
lib_linux/librdmdiscovery.a(artnetrdmcontroller.o):	file format mach-o arm64

Disassembly of section __TEXT,__text:

0000000000000000 <ltmp0>:
       0: d100c3ff     	sub	sp, sp, #48
       4: a9027bfd     	stp	x29, x30, [sp, #32]
       8: 910083fd     	add	x29, sp, #32
       c: 90000008     	adrp	x8, 0x0 <ltmp0+0xc>
      10: f9400108     	ldr	x8, [x8]
      14: f9400108     	ldr	x8, [x8]
      18: f81f83a8     	stur	x8, [x29, #-8]
      1c: f9000be0     	str	x0, [sp, #16]
      20: f9400be0     	ldr	x0, [sp, #16]
      24: f90007e0     	str	x0, [sp, #8]
      28: 94000000     	bl	0x28 <ltmp0+0x28>
      2c: f85f83a9     	ldur	x9, [x29, #-8]
      30: 90000008     	adrp	x8, 0x0 <ltmp0+0x30>
      34: f9400108     	ldr	x8, [x8]
      38: f9400108     	ldr	x8, [x8]
      3c: eb090108     	subs	x8, x8, x9
      40: 1a9f17e8     	cset	w8, eq
      44: 37000068     	tbnz	w8, #0, 0x50 <ltmp0+0x50>
      48: 14000001     	b	0x4c <ltmp0+0x4c>
      4c: 94000000     	bl	0x4c <ltmp0+0x4c>
      50: f94007e0     	ldr	x0, [sp, #8]
      54: a9427bfd     	ldp	x29, x30, [sp, #32]
      58: 9100c3ff     	add	sp, sp, #48
      5c: d65f03c0     	ret

0000000000000060 <RDMTod::~RDMTod()>:
      60: d100c3ff     	sub	sp, sp, #48
      64: a9027bfd     	stp	x29, x30, [sp, #32]
      68: 910083fd     	add	x29, sp, #32
      6c: 90000008     	adrp	x8, 0x0 <RDMTod::~RDMTod()+0xc>
      70: f9400108     	ldr	x8, [x8]
      74: f9400108     	ldr	x8, [x8]
      78: f81f83a8     	stur	x8, [x29, #-8]
      7c: f9000be0     	str	x0, [sp, #16]
      80: f9400be0     	ldr	x0, [sp, #16]
      84: f90007e0     	str	x0, [sp, #8]
      88: 94000000     	bl	0x88 <RDMTod::~RDMTod()+0x28>
      8c: f85f83a9     	ldur	x9, [x29, #-8]
      90: 90000008     	adrp	x8, 0x0 <RDMTod::~RDMTod()+0x30>
      94: f9400108     	ldr	x8, [x8]
      98: f9400108     	ldr	x8, [x8]
      9c: eb090108     	subs	x8, x8, x9
      a0: 1a9f17e8     	cset	w8, eq
      a4: 37000068     	tbnz	w8, #0, 0xb0 <RDMTod::~RDMTod()+0x50>
      a8: 14000001     	b	0xac <RDMTod::~RDMTod()+0x4c>
      ac: 94000000     	bl	0xac <RDMTod::~RDMTod()+0x4c>
      b0: f94007e0     	ldr	x0, [sp, #8]
      b4: a9427bfd     	ldp	x29, x30, [sp, #32]
      b8: 9100c3ff     	add	sp, sp, #48
      bc: d65f03c0     	ret

00000000000000c0 <ArtNetRdmController::ArtNetRdmController()>:
      c0: d10183ff     	sub	sp, sp, #96
      c4: a9057bfd     	stp	x29, x30, [sp, #80]
      c8: 910143fd     	add	x29, sp, #80
      cc: 90000008     	adrp	x8, 0x0 <ArtNetRdmController::ArtNetRdmController()+0xc>
      d0: 91000108     	add	x8, x8, #0
      d4: 91004108     	add	x8, x8, #16
      d8: f90013e8     	str	x8, [sp, #32]
      dc: 90000008     	adrp	x8, 0x0 <ArtNetRdmController::ArtNetRdmController()+0x1c>
      e0: f9400108     	ldr	x8, [x8]
      e4: f9400108     	ldr	x8, [x8]
      e8: f81f83a8     	stur	x8, [x29, #-8]
      ec: f81f03a0     	stur	x0, [x29, #-16]
      f0: f85f03a8     	ldur	x8, [x29, #-16]
      f4: f90017e8     	str	x8, [sp, #40]
      f8: 91002100     	add	x0, x8, #8
      fc: 94000000     	bl	0xfc <ArtNetRdmController::ArtNetRdmController()+0x3c>
     100: f94017e0     	ldr	x0, [sp, #40]
     104: 94000000     	bl	0x104 <ArtNetRdmController::ArtNetRdmController()+0x44>
     108: f94013e9     	ldr	x9, [sp, #32]
     10c: f94017e8     	ldr	x8, [sp, #40]
     110: f9000109     	str	x9, [x8]
     114: 91002100     	add	x0, x8, #8
     118: 94000000     	bl	0x118 <ArtNetRdmController::ArtNetRdmController()+0x58>
     11c: f94017e8     	ldr	x8, [sp, #40]
     120: aa0003e1     	mov	x1, x0
     124: 9101a100     	add	x0, x8, #104
     128: 94000000     	bl	0x128 <ArtNetRdmController::ArtNetRdmController()+0x68>
     12c: f94013e8     	ldr	x8, [sp, #32]
     130: f94017e9     	ldr	x9, [sp, #40]
     134: f9000128     	str	x8, [x9]
     138: 910003e9     	mov	x9, sp
     13c: 90000008     	adrp	x8, 0x0 <ArtNetRdmController::ArtNetRdmController()+0x7c>
     140: 91000108     	add	x8, x8, #0
     144: f81e03a8     	stur	x8, [x29, #-32]
     148: f9000128     	str	x8, [x9]
     14c: 90000008     	adrp	x8, 0x0 <ArtNetRdmController::ArtNetRdmController()+0x8c>
     150: 91000108     	add	x8, x8, #0
     154: f81e83a8     	stur	x8, [x29, #-24]
     158: f9000528     	str	x8, [x9, #8]
     15c: d28005c8     	mov	x8, #46
     160: f9000928     	str	x8, [x9, #16]
     164: 90000000     	adrp	x0, 0x0 <ArtNetRdmController::ArtNetRdmController()+0xa4>
     168: 91000000     	add	x0, x0, #0
     16c: 94000000     	bl	0x16c <ArtNetRdmController::ArtNetRdmController()+0xac>
     170: f85e03aa     	ldur	x10, [x29, #-32]
     174: f85e83a8     	ldur	x8, [x29, #-24]
     178: 9000000b     	adrp	x11, 0x0 <ArtNetRdmController::ArtNetRdmController()+0xb8>
     17c: 52801989     	mov	w9, #204
     180: 39000169     	strb	w9, [x11]
     184: 910003e9     	mov	x9, sp
     188: f900012a     	str	x10, [x9]
     18c: f9000528     	str	x8, [x9, #8]
     190: d2800608     	mov	x8, #48
     194: f9000928     	str	x8, [x9, #16]
     198: 90000000     	adrp	x0, 0x0 <ArtNetRdmController::ArtNetRdmController()+0xd8>
     19c: 91000000     	add	x0, x0, #0
     1a0: 94000000     	bl	0x1a0 <ArtNetRdmController::ArtNetRdmController()+0xe0>
     1a4: f85f83a9     	ldur	x9, [x29, #-8]
     1a8: 90000008     	adrp	x8, 0x0 <ArtNetRdmController::ArtNetRdmController()+0xe8>
     1ac: f9400108     	ldr	x8, [x8]
     1b0: f9400108     	ldr	x8, [x8]
     1b4: eb090108     	subs	x8, x8, x9
     1b8: 1a9f17e8     	cset	w8, eq
     1bc: 37000068     	tbnz	w8, #0, 0x1c8 <ArtNetRdmController::ArtNetRdmController()+0x108>
     1c0: 14000001     	b	0x1c4 <ArtNetRdmController::ArtNetRdmController()+0x104>
     1c4: 94000000     	bl	0x1c4 <ArtNetRdmController::ArtNetRdmController()+0x104>
     1c8: f94017e0     	ldr	x0, [sp, #40]
     1cc: a9457bfd     	ldp	x29, x30, [sp, #80]
     1d0: 910183ff     	add	sp, sp, #96
     1d4: d65f03c0     	ret

00000000000001d8 <RDMDeviceController::RDMDeviceController()>:
     1d8: d10143ff     	sub	sp, sp, #80
     1dc: a9047bfd     	stp	x29, x30, [sp, #64]
     1e0: 910103fd     	add	x29, sp, #64
     1e4: 90000008     	adrp	x8, 0x0 <RDMDeviceController::RDMDeviceController()+0xc>
     1e8: f9400108     	ldr	x8, [x8]
     1ec: f9400108     	ldr	x8, [x8]
     1f0: f81f83a8     	stur	x8, [x29, #-8]
     1f4: f81f03a0     	stur	x0, [x29, #-16]
     1f8: f85f03a0     	ldur	x0, [x29, #-16]
     1fc: f9000fe0     	str	x0, [sp, #24]
     200: 94000000     	bl	0x200 <RDMDeviceController::RDMDeviceController()+0x28>
     204: 910003e9     	mov	x9, sp
     208: 90000008     	adrp	x8, 0x0 <RDMDeviceController::RDMDeviceController()+0x30>
     20c: 91000108     	add	x8, x8, #0
     210: f90013e8     	str	x8, [sp, #32]
     214: f9000128     	str	x8, [x9]
     218: 90000008     	adrp	x8, 0x0 <RDMDeviceController::RDMDeviceController()+0x40>
     21c: 91000108     	add	x8, x8, #0
     220: f81e83a8     	stur	x8, [x29, #-24]
     224: f9000528     	str	x8, [x9, #8]
     228: d2800488     	mov	x8, #36
     22c: f9000928     	str	x8, [x9, #16]
     230: 90000000     	adrp	x0, 0x0 <RDMDeviceController::RDMDeviceController()+0x58>
     234: 91000000     	add	x0, x0, #0
     238: 94000000     	bl	0x238 <RDMDeviceController::RDMDeviceController()+0x60>
     23c: f94013ea     	ldr	x10, [sp, #32]
     240: f85e83a8     	ldur	x8, [x29, #-24]
     244: 910003e9     	mov	x9, sp
     248: f900012a     	str	x10, [x9]
     24c: f9000528     	str	x8, [x9, #8]
     250: d28004a8     	mov	x8, #37
     254: f9000928     	str	x8, [x9, #16]
     258: 90000000     	adrp	x0, 0x0 <RDMDeviceController::RDMDeviceController()+0x80>
     25c: 91000000     	add	x0, x0, #0
     260: 94000000     	bl	0x260 <RDMDeviceController::RDMDeviceController()+0x88>
     264: f85f83a9     	ldur	x9, [x29, #-8]
     268: 90000008     	adrp	x8, 0x0 <RDMDeviceController::RDMDeviceController()+0x90>
     26c: f9400108     	ldr	x8, [x8]
     270: f9400108     	ldr	x8, [x8]
     274: eb090108     	subs	x8, x8, x9
     278: 1a9f17e8     	cset	w8, eq
     27c: 37000068     	tbnz	w8, #0, 0x288 <RDMDeviceController::RDMDeviceController()+0xb0>
     280: 14000001     	b	0x284 <RDMDeviceController::RDMDeviceController()+0xac>
     284: 94000000     	bl	0x284 <RDMDeviceController::RDMDeviceController()+0xac>
     288: f9400fe0     	ldr	x0, [sp, #24]
     28c: a9447bfd     	ldp	x29, x30, [sp, #64]
     290: 910143ff     	add	sp, sp, #80
     294: d65f03c0     	ret

0000000000000298 <ArtNetRdm::ArtNetRdm()>:
     298: d100c3ff     	sub	sp, sp, #48
     29c: a9027bfd     	stp	x29, x30, [sp, #32]
     2a0: 910083fd     	add	x29, sp, #32
     2a4: 90000008     	adrp	x8, 0x0 <ArtNetRdm::ArtNetRdm()+0xc>
     2a8: f9400108     	ldr	x8, [x8]
     2ac: 91004108     	add	x8, x8, #16
     2b0: 90000009     	adrp	x9, 0x0 <ArtNetRdm::ArtNetRdm()+0x18>
     2b4: f9400129     	ldr	x9, [x9]
     2b8: f9400129     	ldr	x9, [x9]
     2bc: f81f83a9     	stur	x9, [x29, #-8]
     2c0: f9000be0     	str	x0, [sp, #16]
     2c4: f9400be9     	ldr	x9, [sp, #16]
     2c8: f90007e9     	str	x9, [sp, #8]
     2cc: f9000128     	str	x8, [x9]
     2d0: f85f83a9     	ldur	x9, [x29, #-8]
     2d4: 90000008     	adrp	x8, 0x0 <ArtNetRdm::ArtNetRdm()+0x3c>
     2d8: f9400108     	ldr	x8, [x8]
     2dc: f9400108     	ldr	x8, [x8]
     2e0: eb090108     	subs	x8, x8, x9
     2e4: 1a9f17e8     	cset	w8, eq
     2e8: 37000068     	tbnz	w8, #0, 0x2f4 <ArtNetRdm::ArtNetRdm()+0x5c>
     2ec: 14000001     	b	0x2f0 <ArtNetRdm::ArtNetRdm()+0x58>
     2f0: 94000000     	bl	0x2f0 <ArtNetRdm::ArtNetRdm()+0x58>
     2f4: f94007e0     	ldr	x0, [sp, #8]
     2f8: a9427bfd     	ldp	x29, x30, [sp, #32]
     2fc: 9100c3ff     	add	sp, sp, #48
     300: d65f03c0     	ret

0000000000000304 <RDMDevice::GetUID() const>:
     304: d100c3ff     	sub	sp, sp, #48
     308: a9027bfd     	stp	x29, x30, [sp, #32]
     30c: 910083fd     	add	x29, sp, #32
     310: 90000008     	adrp	x8, 0x0 <RDMDevice::GetUID() const+0xc>
     314: f9400108     	ldr	x8, [x8]
     318: f9400108     	ldr	x8, [x8]
     31c: f81f83a8     	stur	x8, [x29, #-8]
     320: f9000be0     	str	x0, [sp, #16]
     324: f9400be8     	ldr	x8, [sp, #16]
     328: f90007e8     	str	x8, [sp, #8]
     32c: f85f83a9     	ldur	x9, [x29, #-8]
     330: 90000008     	adrp	x8, 0x0 <RDMDevice::GetUID() const+0x2c>
     334: f9400108     	ldr	x8, [x8]
     338: f9400108     	ldr	x8, [x8]
     33c: eb090108     	subs	x8, x8, x9
     340: 1a9f17e8     	cset	w8, eq
     344: 37000068     	tbnz	w8, #0, 0x350 <RDMDevice::GetUID() const+0x4c>
     348: 14000001     	b	0x34c <RDMDevice::GetUID() const+0x48>
     34c: 94000000     	bl	0x34c <RDMDevice::GetUID() const+0x48>
     350: f94007e8     	ldr	x8, [sp, #8]
     354: 91013900     	add	x0, x8, #78
     358: a9427bfd     	ldp	x29, x30, [sp, #32]
     35c: 9100c3ff     	add	sp, sp, #48
     360: d65f03c0     	ret

0000000000000364 <ArtNetRdmController::ArtNetRdmController()>:
     364: d100c3ff     	sub	sp, sp, #48
     368: a9027bfd     	stp	x29, x30, [sp, #32]
     36c: 910083fd     	add	x29, sp, #32
     370: 90000008     	adrp	x8, 0x0 <ArtNetRdmController::ArtNetRdmController()+0xc>
     374: f9400108     	ldr	x8, [x8]
     378: f9400108     	ldr	x8, [x8]
     37c: f81f83a8     	stur	x8, [x29, #-8]
     380: f9000be0     	str	x0, [sp, #16]
     384: f9400be0     	ldr	x0, [sp, #16]
     388: f90007e0     	str	x0, [sp, #8]
     38c: 94000000     	bl	0x38c <ArtNetRdmController::ArtNetRdmController()+0x28>
     390: f85f83a9     	ldur	x9, [x29, #-8]
     394: 90000008     	adrp	x8, 0x0 <ArtNetRdmController::ArtNetRdmController()+0x30>
     398: f9400108     	ldr	x8, [x8]
     39c: f9400108     	ldr	x8, [x8]
     3a0: eb090108     	subs	x8, x8, x9
     3a4: 1a9f17e8     	cset	w8, eq
     3a8: 37000068     	tbnz	w8, #0, 0x3b4 <ArtNetRdmController::ArtNetRdmController()+0x50>
     3ac: 14000001     	b	0x3b0 <ArtNetRdmController::ArtNetRdmController()+0x4c>
     3b0: 94000000     	bl	0x3b0 <ArtNetRdmController::ArtNetRdmController()+0x4c>
     3b4: f94007e0     	ldr	x0, [sp, #8]
     3b8: a9427bfd     	ldp	x29, x30, [sp, #32]
     3bc: 9100c3ff     	add	sp, sp, #48
     3c0: d65f03c0     	ret

00000000000003c4 <ArtNetRdmController::Handler(unsigned int, unsigned char const*)>:
     3c4: d10183ff     	sub	sp, sp, #96
     3c8: a9057bfd     	stp	x29, x30, [sp, #80]
     3cc: 910143fd     	add	x29, sp, #80
     3d0: 90000008     	adrp	x8, 0x0 <ArtNetRdmController::Handler(unsigned int, unsigned char const*)+0xc>
     3d4: f9400108     	ldr	x8, [x8]
     3d8: f9400108     	ldr	x8, [x8]
     3dc: f81f83a8     	stur	x8, [x29, #-8]
     3e0: f81e83a0     	stur	x0, [x29, #-24]
     3e4: b81e43a1     	stur	w1, [x29, #-28]
     3e8: f90017e2     	str	x2, [sp, #40]
     3ec: b85e43a8     	ldur	w8, [x29, #-28]
     3f0: 71001108     	subs	w8, w8, #4
     3f4: 1a9f27e8     	cset	w8, lo
     3f8: 37000148     	tbnz	w8, #0, 0x420 <ArtNetRdmController::Handler(unsigned int, unsigned char const*)+0x5c>
     3fc: 14000001     	b	0x400 <ArtNetRdmController::Handler(unsigned int, unsigned char const*)+0x3c>
     400: 90000000     	adrp	x0, 0x0 <ArtNetRdmController::Handler(unsigned int, unsigned char const*)+0x3c>
     404: 91000000     	add	x0, x0, #0
     408: 90000001     	adrp	x1, 0x0 <ArtNetRdmController::Handler(unsigned int, unsigned char const*)+0x44>
     40c: 91000021     	add	x1, x1, #0
     410: 52800682     	mov	w2, #52
     414: 90000003     	adrp	x3, 0x0 <ArtNetRdmController::Handler(unsigned int, unsigned char const*)+0x50>
     418: 91000063     	add	x3, x3, #0
     41c: 94000000     	bl	0x41c <ArtNetRdmController::Handler(unsigned int, unsigned char const*)+0x58>
     420: 14000001     	b	0x424 <ArtNetRdmController::Handler(unsigned int, unsigned char const*)+0x60>
     424: f94017e8     	ldr	x8, [sp, #40]
     428: f1000108     	subs	x8, x8, #0
     42c: 1a9f07e8     	cset	w8, ne
     430: 37000088     	tbnz	w8, #0, 0x440 <ArtNetRdmController::Handler(unsigned int, unsigned char const*)+0x7c>
     434: 14000001     	b	0x438 <ArtNetRdmController::Handler(unsigned int, unsigned char const*)+0x74>
     438: f81f03bf     	stur	xzr, [x29, #-16]
     43c: 1400002d     	b	0x4f0 <ArtNetRdmController::Handler(unsigned int, unsigned char const*)+0x12c>
     440: 94000000     	bl	0x440 <ArtNetRdmController::Handler(unsigned int, unsigned char const*)+0x7c>
     444: 94000000     	bl	0x444 <ArtNetRdmController::Handler(unsigned int, unsigned char const*)+0x80>
     448: 14000001     	b	0x44c <ArtNetRdmController::Handler(unsigned int, unsigned char const*)+0x88>
     44c: b85e43a0     	ldur	w0, [x29, #-28]
     450: 94000000     	bl	0x450 <ArtNetRdmController::Handler(unsigned int, unsigned char const*)+0x8c>
     454: d2800008     	mov	x8, #0
     458: eb000108     	subs	x8, x8, x0
     45c: 1a9f17e8     	cset	w8, eq
     460: 370000a8     	tbnz	w8, #0, 0x474 <ArtNetRdmController::Handler(unsigned int, unsigned char const*)+0xb0>
     464: 14000001     	b	0x468 <ArtNetRdmController::Handler(unsigned int, unsigned char const*)+0xa4>
     468: 94000000     	bl	0x468 <ArtNetRdmController::Handler(unsigned int, unsigned char const*)+0xa4>
     46c: 94000000     	bl	0x46c <ArtNetRdmController::Handler(unsigned int, unsigned char const*)+0xa8>
     470: 17fffff7     	b	0x44c <ArtNetRdmController::Handler(unsigned int, unsigned char const*)+0x88>
     474: f94017e8     	ldr	x8, [sp, #40]
     478: f90013e8     	str	x8, [sp, #32]
     47c: 90000008     	adrp	x8, 0x0 <ArtNetRdmController::Handler(unsigned int, unsigned char const*)+0xb8>
     480: 91000108     	add	x8, x8, #0
     484: f9000fe8     	str	x8, [sp, #24]
     488: f9400fe8     	ldr	x8, [sp, #24]
     48c: 91000500     	add	x0, x8, #1
     490: f94017e1     	ldr	x1, [sp, #40]
     494: f94013e8     	ldr	x8, [sp, #32]
     498: 39400508     	ldrb	w8, [x8, #1]
     49c: 11000909     	add	w9, w8, #2
     4a0: aa0903e8     	mov	x8, x9
     4a4: 93407d02     	sxtw	x2, w8
     4a8: 94000000     	bl	0x4a8 <ArtNetRdmController::Handler(unsigned int, unsigned char const*)+0xe4>
     4ac: f9400fe0     	ldr	x0, [sp, #24]
     4b0: 94000000     	bl	0x4b0 <ArtNetRdmController::Handler(unsigned int, unsigned char const*)+0xec>
     4b4: b85e43a0     	ldur	w0, [x29, #-28]
     4b8: f9400fe1     	ldr	x1, [sp, #24]
     4bc: f94013e8     	ldr	x8, [sp, #32]
     4c0: 39400508     	ldrb	w8, [x8, #1]
     4c4: 11000902     	add	w2, w8, #2
     4c8: 94000000     	bl	0x4c8 <ArtNetRdmController::Handler(unsigned int, unsigned char const*)+0x104>
     4cc: b85e43a0     	ldur	w0, [x29, #-28]
     4d0: 529d4c01     	mov	w1, #60000
     4d4: 94000000     	bl	0x4d4 <ArtNetRdmController::Handler(unsigned int, unsigned char const*)+0x110>
     4d8: f9000be0     	str	x0, [sp, #16]
     4dc: f9400be0     	ldr	x0, [sp, #16]
     4e0: 94000000     	bl	0x4e0 <ArtNetRdmController::Handler(unsigned int, unsigned char const*)+0x11c>
     4e4: f9400be8     	ldr	x8, [sp, #16]
     4e8: f81f03a8     	stur	x8, [x29, #-16]
     4ec: 14000001     	b	0x4f0 <ArtNetRdmController::Handler(unsigned int, unsigned char const*)+0x12c>
     4f0: f85f03a8     	ldur	x8, [x29, #-16]
     4f4: f90007e8     	str	x8, [sp, #8]
     4f8: f85f83a9     	ldur	x9, [x29, #-8]
     4fc: 90000008     	adrp	x8, 0x0 <ArtNetRdmController::Handler(unsigned int, unsigned char const*)+0x138>
     500: f9400108     	ldr	x8, [x8]
     504: f9400108     	ldr	x8, [x8]
     508: eb090108     	subs	x8, x8, x9
     50c: 1a9f17e8     	cset	w8, eq
     510: 37000068     	tbnz	w8, #0, 0x51c <ArtNetRdmController::Handler(unsigned int, unsigned char const*)+0x158>
     514: 14000001     	b	0x518 <ArtNetRdmController::Handler(unsigned int, unsigned char const*)+0x154>
     518: 94000000     	bl	0x518 <ArtNetRdmController::Handler(unsigned int, unsigned char const*)+0x154>
     51c: f94007e0     	ldr	x0, [sp, #8]
     520: a9457bfd     	ldp	x29, x30, [sp, #80]
     524: 910183ff     	add	sp, sp, #96
     528: d65f03c0     	ret

000000000000052c <Hardware::Get()>:
     52c: d10083ff     	sub	sp, sp, #32
     530: a9017bfd     	stp	x29, x30, [sp, #16]
     534: 910043fd     	add	x29, sp, #16
     538: 90000008     	adrp	x8, 0x0 <Hardware::Get()+0xc>
     53c: f9400108     	ldr	x8, [x8]
     540: f9400108     	ldr	x8, [x8]
     544: f90007e8     	str	x8, [sp, #8]
     548: 90000008     	adrp	x8, 0x0 <Hardware::Get()+0x1c>
     54c: f9400108     	ldr	x8, [x8]
     550: f9400108     	ldr	x8, [x8]
     554: f90003e8     	str	x8, [sp]
     558: f94007e9     	ldr	x9, [sp, #8]
     55c: 90000008     	adrp	x8, 0x0 <Hardware::Get()+0x30>
     560: f9400108     	ldr	x8, [x8]
     564: f9400108     	ldr	x8, [x8]
     568: eb090108     	subs	x8, x8, x9
     56c: 1a9f17e8     	cset	w8, eq
     570: 37000068     	tbnz	w8, #0, 0x57c <Hardware::Get()+0x50>
     574: 14000001     	b	0x578 <Hardware::Get()+0x4c>
     578: 94000000     	bl	0x578 <Hardware::Get()+0x4c>
     57c: f94003e0     	ldr	x0, [sp]
     580: a9417bfd     	ldp	x29, x30, [sp, #16]
     584: 910083ff     	add	sp, sp, #32
     588: d65f03c0     	ret

000000000000058c <Hardware::WatchdogFeed()>:
     58c: d10083ff     	sub	sp, sp, #32
     590: a9017bfd     	stp	x29, x30, [sp, #16]
     594: 910043fd     	add	x29, sp, #16
     598: 90000008     	adrp	x8, 0x0 <Hardware::WatchdogFeed()+0xc>
     59c: f9400108     	ldr	x8, [x8]
     5a0: f9400108     	ldr	x8, [x8]
     5a4: f90007e8     	str	x8, [sp, #8]
     5a8: f90003e0     	str	x0, [sp]
     5ac: f94007e9     	ldr	x9, [sp, #8]
     5b0: 90000008     	adrp	x8, 0x0 <Hardware::WatchdogFeed()+0x24>
     5b4: f9400108     	ldr	x8, [x8]
     5b8: f9400108     	ldr	x8, [x8]
     5bc: eb090108     	subs	x8, x8, x9
     5c0: 1a9f17e8     	cset	w8, eq
     5c4: 37000068     	tbnz	w8, #0, 0x5d0 <Hardware::WatchdogFeed()+0x44>
     5c8: 14000001     	b	0x5cc <Hardware::WatchdogFeed()+0x40>
     5cc: 94000000     	bl	0x5cc <Hardware::WatchdogFeed()+0x40>
     5d0: a9417bfd     	ldp	x29, x30, [sp, #16]
     5d4: 910083ff     	add	sp, sp, #32
     5d8: d65f03c0     	ret

00000000000005dc <ArtNetRdmController::RdmReceive(unsigned int, unsigned char*)>:
     5dc: d10243ff     	sub	sp, sp, #144
     5e0: a9087bfd     	stp	x29, x30, [sp, #128]
     5e4: 910203fd     	add	x29, sp, #128
     5e8: 90000008     	adrp	x8, 0x0 <ArtNetRdmController::RdmReceive(unsigned int, unsigned char*)+0xc>
     5ec: 91000108     	add	x8, x8, #0
     5f0: f9000be8     	str	x8, [sp, #16]
     5f4: 90000008     	adrp	x8, 0x0 <ArtNetRdmController::RdmReceive(unsigned int, unsigned char*)+0x18>
     5f8: f9400108     	ldr	x8, [x8]
     5fc: f9400108     	ldr	x8, [x8]
     600: f81f83a8     	stur	x8, [x29, #-8]
     604: f81e83a0     	stur	x0, [x29, #-24]
     608: b81e43a1     	stur	w1, [x29, #-28]
     60c: f81d83a2     	stur	x2, [x29, #-40]
     610: f85e83a8     	ldur	x8, [x29, #-24]
     614: f9000fe8     	str	x8, [sp, #24]
     618: b85e43a8     	ldur	w8, [x29, #-28]
     61c: 71001108     	subs	w8, w8, #4
     620: 1a9f27e8     	cset	w8, lo
     624: 37000148     	tbnz	w8, #0, 0x64c <ArtNetRdmController::RdmReceive(unsigned int, unsigned char*)+0x70>
     628: 14000001     	b	0x62c <ArtNetRdmController::RdmReceive(unsigned int, unsigned char*)+0x50>
     62c: 90000000     	adrp	x0, 0x0 <ArtNetRdmController::RdmReceive(unsigned int, unsigned char*)+0x50>
     630: 91000000     	add	x0, x0, #0
     634: 90000001     	adrp	x1, 0x0 <ArtNetRdmController::RdmReceive(unsigned int, unsigned char*)+0x58>
     638: 91000021     	add	x1, x1, #0
     63c: 52800aa2     	mov	w2, #85
     640: 90000003     	adrp	x3, 0x0 <ArtNetRdmController::RdmReceive(unsigned int, unsigned char*)+0x64>
     644: 91000063     	add	x3, x3, #0
     648: 94000000     	bl	0x648 <ArtNetRdmController::RdmReceive(unsigned int, unsigned char*)+0x6c>
     64c: 14000001     	b	0x650 <ArtNetRdmController::RdmReceive(unsigned int, unsigned char*)+0x74>
     650: f85d83a8     	ldur	x8, [x29, #-40]
     654: f1000108     	subs	x8, x8, #0
     658: 1a9f07e8     	cset	w8, ne
     65c: 37000148     	tbnz	w8, #0, 0x684 <ArtNetRdmController::RdmReceive(unsigned int, unsigned char*)+0xa8>
     660: 14000001     	b	0x664 <ArtNetRdmController::RdmReceive(unsigned int, unsigned char*)+0x88>
     664: 90000000     	adrp	x0, 0x0 <ArtNetRdmController::RdmReceive(unsigned int, unsigned char*)+0x88>
     668: 91000000     	add	x0, x0, #0
     66c: 90000001     	adrp	x1, 0x0 <ArtNetRdmController::RdmReceive(unsigned int, unsigned char*)+0x90>
     670: 91000021     	add	x1, x1, #0
     674: 52800ac2     	mov	w2, #86
     678: 90000003     	adrp	x3, 0x0 <ArtNetRdmController::RdmReceive(unsigned int, unsigned char*)+0x9c>
     67c: 91000063     	add	x3, x3, #0
     680: 94000000     	bl	0x680 <ArtNetRdmController::RdmReceive(unsigned int, unsigned char*)+0xa4>
     684: 14000001     	b	0x688 <ArtNetRdmController::RdmReceive(unsigned int, unsigned char*)+0xac>
     688: b85e43a0     	ldur	w0, [x29, #-28]
     68c: 94000000     	bl	0x68c <ArtNetRdmController::RdmReceive(unsigned int, unsigned char*)+0xb0>
     690: f81d03a0     	stur	x0, [x29, #-48]
     694: f85d03a8     	ldur	x8, [x29, #-48]
     698: f1000108     	subs	x8, x8, #0
     69c: 1a9f07e8     	cset	w8, ne
     6a0: 370000e8     	tbnz	w8, #0, 0x6bc <ArtNetRdmController::RdmReceive(unsigned int, unsigned char*)+0xe0>
     6a4: 14000001     	b	0x6a8 <ArtNetRdmController::RdmReceive(unsigned int, unsigned char*)+0xcc>
     6a8: 52800008     	mov	w8, #0
     6ac: 12000108     	and	w8, w8, #0x1
     6b0: 12000108     	and	w8, w8, #0x1
     6b4: 381f73a8     	sturb	w8, [x29, #-9]
     6b8: 14000140     	b	0xbb8 <ArtNetRdmController::RdmReceive(unsigned int, unsigned char*)+0x5dc>
     6bc: f85d03a8     	ldur	x8, [x29, #-48]
     6c0: f81c83a8     	stur	x8, [x29, #-56]
     6c4: f85c83a8     	ldur	x8, [x29, #-56]
     6c8: 91000d08     	add	x8, x8, #3
     6cc: f90023e8     	str	x8, [sp, #64]
     6d0: f94023e0     	ldr	x0, [sp, #64]
     6d4: 90000001     	adrp	x1, 0x0 <ArtNetRdmController::RdmReceive(unsigned int, unsigned char*)+0xf8>
     6d8: 91000021     	add	x1, x1, #0
     6dc: d28000c2     	mov	x2, #6
     6e0: 94000000     	bl	0x6e0 <ArtNetRdmController::RdmReceive(unsigned int, unsigned char*)+0x104>
     6e4: 71000008     	subs	w8, w0, #0
     6e8: 1a9f17e8     	cset	w8, eq
     6ec: 52800029     	mov	w9, #1
     6f0: 0a090108     	and	w8, w8, w9
     6f4: 3900ffe8     	strb	w8, [sp, #63]
     6f8: 3900fbff     	strb	wzr, [sp, #62]
     6fc: 3940ffe8     	ldrb	w8, [sp, #63]
     700: 370001a8     	tbnz	w8, #0, 0x734 <ArtNetRdmController::RdmReceive(unsigned int, unsigned char*)+0x158>
     704: 14000001     	b	0x708 <ArtNetRdmController::RdmReceive(unsigned int, unsigned char*)+0x12c>
     708: b85e43a8     	ldur	w8, [x29, #-28]
     70c: d2809a89     	mov	x9, #1236
     710: 9b097d09     	mul	x9, x8, x9
     714: 90000008     	adrp	x8, 0x0 <ArtNetRdmController::RdmReceive(unsigned int, unsigned char*)+0x138>
     718: 91000108     	add	x8, x8, #0
     71c: 8b090100     	add	x0, x8, x9
     720: f94023e1     	ldr	x1, [sp, #64]
     724: 94000000     	bl	0x724 <ArtNetRdmController::RdmReceive(unsigned int, unsigned char*)+0x148>
     728: 12000008     	and	w8, w0, #0x1
     72c: 3900fbe8     	strb	w8, [sp, #62]
     730: 14000001     	b	0x734 <ArtNetRdmController::RdmReceive(unsigned int, unsigned char*)+0x158>
     734: 3940fbe8     	ldrb	w8, [sp, #62]
     738: 37000148     	tbnz	w8, #0, 0x760 <ArtNetRdmController::RdmReceive(unsigned int, unsigned char*)+0x184>
     73c: 14000001     	b	0x740 <ArtNetRdmController::RdmReceive(unsigned int, unsigned char*)+0x164>
     740: 3940ffe8     	ldrb	w8, [sp, #63]
     744: 370000e8     	tbnz	w8, #0, 0x760 <ArtNetRdmController::RdmReceive(unsigned int, unsigned char*)+0x184>
     748: 14000001     	b	0x74c <ArtNetRdmController::RdmReceive(unsigned int, unsigned char*)+0x170>
     74c: 52800008     	mov	w8, #0
     750: 12000108     	and	w8, w8, #0x1
     754: 12000108     	and	w8, w8, #0x1
     758: 381f73a8     	sturb	w8, [x29, #-9]
     75c: 14000117     	b	0xbb8 <ArtNetRdmController::RdmReceive(unsigned int, unsigned char*)+0x5dc>
     760: f85c83a8     	ldur	x8, [x29, #-56]
     764: 39405108     	ldrb	w8, [x8, #20]
     768: 71008108     	subs	w8, w8, #32
     76c: 1a9f17e8     	cset	w8, eq
     770: 37000108     	tbnz	w8, #0, 0x790 <ArtNetRdmController::RdmReceive(unsigned int, unsigned char*)+0x1b4>
     774: 14000001     	b	0x778 <ArtNetRdmController::RdmReceive(unsigned int, unsigned char*)+0x19c>
     778: f85c83a8     	ldur	x8, [x29, #-56]
     77c: 39405108     	ldrb	w8, [x8, #20]
     780: 7100c108     	subs	w8, w8, #48
     784: 1a9f07e8     	cset	w8, ne
     788: 370001c8     	tbnz	w8, #0, 0x7c0 <ArtNetRdmController::RdmReceive(unsigned int, unsigned char*)+0x1e4>
     78c: 14000001     	b	0x790 <ArtNetRdmController::RdmReceive(unsigned int, unsigned char*)+0x1b4>
     790: f85d83a0     	ldur	x0, [x29, #-40]
     794: f85d03a8     	ldur	x8, [x29, #-48]
     798: 91000501     	add	x1, x8, #1
     79c: f85c83a8     	ldur	x8, [x29, #-56]
     7a0: 39400908     	ldrb	w8, [x8, #2]
     7a4: aa0803e2     	mov	x2, x8
     7a8: 94000000     	bl	0x7a8 <ArtNetRdmController::RdmReceive(unsigned int, unsigned char*)+0x1cc>
     7ac: 52800028     	mov	w8, #1
     7b0: 12000108     	and	w8, w8, #0x1
     7b4: 12000108     	and	w8, w8, #0x1
     7b8: 381f73a8     	sturb	w8, [x29, #-9]
     7bc: 140000ff     	b	0xbb8 <ArtNetRdmController::RdmReceive(unsigned int, unsigned char*)+0x5dc>
     7c0: 3940ffe8     	ldrb	w8, [sp, #63]
     7c4: 36000168     	tbz	w8, #0, 0x7f0 <ArtNetRdmController::RdmReceive(unsigned int, unsigned char*)+0x214>
     7c8: 14000001     	b	0x7cc <ArtNetRdmController::RdmReceive(unsigned int, unsigned char*)+0x1f0>
     7cc: b85e43a8     	ldur	w8, [x29, #-28]
     7d0: d2809a89     	mov	x9, #1236
     7d4: 9b097d09     	mul	x9, x8, x9
     7d8: 90000008     	adrp	x8, 0x0 <ArtNetRdmController::RdmReceive(unsigned int, unsigned char*)+0x1fc>
     7dc: 91000108     	add	x8, x8, #0
     7e0: 8b090100     	add	x0, x8, x9
     7e4: 94000000     	bl	0x7e4 <ArtNetRdmController::RdmReceive(unsigned int, unsigned char*)+0x208>
     7e8: f90023e0     	str	x0, [sp, #64]
     7ec: 14000001     	b	0x7f0 <ArtNetRdmController::RdmReceive(unsigned int, unsigned char*)+0x214>
     7f0: f85c83a8     	ldur	x8, [x29, #-56]
     7f4: 39405108     	ldrb	w8, [x8, #20]
     7f8: 71004108     	subs	w8, w8, #16
     7fc: 1a9f07e8     	cset	w8, ne
     800: 37001d28     	tbnz	w8, #0, 0xba4 <ArtNetRdmController::RdmReceive(unsigned int, unsigned char*)+0x5c8>
     804: 14000001     	b	0x808 <ArtNetRdmController::RdmReceive(unsigned int, unsigned char*)+0x22c>
     808: f85c83a8     	ldur	x8, [x29, #-56]
     80c: 39405509     	ldrb	w9, [x8, #21]
     810: f85c83a8     	ldur	x8, [x29, #-56]
     814: 39405908     	ldrb	w8, [x8, #22]
     818: 0b092108     	add	w8, w8, w9, lsl #8
     81c: 79007be8     	strh	w8, [sp, #60]
     820: 79407be8     	ldrh	w8, [sp, #60]
     824: 71000508     	subs	w8, w8, #1
     828: 1a9f07e8     	cset	w8, ne
     82c: 37000f88     	tbnz	w8, #0, 0xa1c <ArtNetRdmController::RdmReceive(unsigned int, unsigned char*)+0x440>
     830: 14000001     	b	0x834 <ArtNetRdmController::RdmReceive(unsigned int, unsigned char*)+0x258>
     834: b85e43a8     	ldur	w8, [x29, #-28]
     838: d2809a89     	mov	x9, #1236
     83c: 9b097d09     	mul	x9, x8, x9
     840: 90000008     	adrp	x8, 0x0 <ArtNetRdmController::RdmReceive(unsigned int, unsigned char*)+0x264>
     844: 91000108     	add	x8, x8, #0
     848: 8b090100     	add	x0, x8, x9
     84c: 94000000     	bl	0x84c <ArtNetRdmController::RdmReceive(unsigned int, unsigned char*)+0x270>
     850: 37000e40     	tbnz	w0, #0, 0xa18 <ArtNetRdmController::RdmReceive(unsigned int, unsigned char*)+0x43c>
     854: 14000001     	b	0x858 <ArtNetRdmController::RdmReceive(unsigned int, unsigned char*)+0x27c>
     858: f85c83a8     	ldur	x8, [x29, #-56]
     85c: 91006100     	add	x0, x8, #24
     860: f94023e1     	ldr	x1, [sp, #64]
     864: d28000c2     	mov	x2, #6
     868: 94000000     	bl	0x868 <ArtNetRdmController::RdmReceive(unsigned int, unsigned char*)+0x28c>
     86c: 71000008     	subs	w8, w0, #0
     870: 1a9fd7e8     	cset	w8, gt
     874: 37000d08     	tbnz	w8, #0, 0xa14 <ArtNetRdmController::RdmReceive(unsigned int, unsigned char*)+0x438>
     878: 14000001     	b	0x87c <ArtNetRdmController::RdmReceive(unsigned int, unsigned char*)+0x2a0>
     87c: f94023e0     	ldr	x0, [sp, #64]
     880: f85c83a8     	ldur	x8, [x29, #-56]
     884: 91007901     	add	x1, x8, #30
     888: d28000c2     	mov	x2, #6
     88c: 94000000     	bl	0x88c <ArtNetRdmController::RdmReceive(unsigned int, unsigned char*)+0x2b0>
     890: 71000008     	subs	w8, w0, #0
     894: 1a9fd7e8     	cset	w8, gt
     898: 37000be8     	tbnz	w8, #0, 0xa14 <ArtNetRdmController::RdmReceive(unsigned int, unsigned char*)+0x438>
     89c: 14000001     	b	0x8a0 <ArtNetRdmController::RdmReceive(unsigned int, unsigned char*)+0x2c4>
     8a0: 90000008     	adrp	x8, 0x0 <ArtNetRdmController::RdmReceive(unsigned int, unsigned char*)+0x2c4>
     8a4: 91000108     	add	x8, x8, #0
     8a8: f9001be8     	str	x8, [sp, #48]
     8ac: 5280bf48     	mov	w8, #1530
     8b0: 79005fe8     	strh	w8, [sp, #46]
     8b4: b9002bff     	str	wzr, [sp, #40]
     8b8: 14000001     	b	0x8bc <ArtNetRdmController::RdmReceive(unsigned int, unsigned char*)+0x2e0>
     8bc: b9402be8     	ldr	w8, [sp, #40]
     8c0: 71001d08     	subs	w8, w8, #7
     8c4: 1a9f37e8     	cset	w8, hs
     8c8: 37000188     	tbnz	w8, #0, 0x8f8 <ArtNetRdmController::RdmReceive(unsigned int, unsigned char*)+0x31c>
     8cc: 14000001     	b	0x8d0 <ArtNetRdmController::RdmReceive(unsigned int, unsigned char*)+0x2f4>
     8d0: f9401be8     	ldr	x8, [sp, #48]
     8d4: b9402be9     	ldr	w9, [sp, #40]
     8d8: 8b090109     	add	x9, x8, x9
     8dc: 52801fc8     	mov	w8, #254
     8e0: 39000128     	strb	w8, [x9]
     8e4: 14000001     	b	0x8e8 <ArtNetRdmController::RdmReceive(unsigned int, unsigned char*)+0x30c>
     8e8: b9402be8     	ldr	w8, [sp, #40]
     8ec: 11000508     	add	w8, w8, #1
     8f0: b9002be8     	str	w8, [sp, #40]
     8f4: 17fffff2     	b	0x8bc <ArtNetRdmController::RdmReceive(unsigned int, unsigned char*)+0x2e0>
     8f8: f9401be9     	ldr	x9, [sp, #48]
     8fc: 52801548     	mov	w8, #170
     900: 39001d28     	strb	w8, [x9, #7]
     904: b90027ff     	str	wzr, [sp, #36]
     908: 14000001     	b	0x90c <ArtNetRdmController::RdmReceive(unsigned int, unsigned char*)+0x330>
     90c: b94027e8     	ldr	w8, [sp, #36]
     910: 71001908     	subs	w8, w8, #6
     914: 1a9f37e8     	cset	w8, hs
     918: 37000488     	tbnz	w8, #0, 0x9a8 <ArtNetRdmController::RdmReceive(unsigned int, unsigned char*)+0x3cc>
     91c: 14000001     	b	0x920 <ArtNetRdmController::RdmReceive(unsigned int, unsigned char*)+0x344>
     920: f94023e8     	ldr	x8, [sp, #64]
     924: b94027e9     	ldr	w9, [sp, #36]
     928: 38696908     	ldrb	w8, [x8, x9]
     92c: 52801549     	mov	w9, #170
     930: 2a090108     	orr	w8, w8, w9
     934: f9401be9     	ldr	x9, [sp, #48]
     938: 91002129     	add	x9, x9, #8
     93c: b94027ea     	ldr	w10, [sp, #36]
     940: b94027eb     	ldr	w11, [sp, #36]
     944: 0b0b014a     	add	w10, w10, w11
     948: 382a4928     	strb	w8, [x9, w10, uxtw]
     94c: f94023e8     	ldr	x8, [sp, #64]
     950: b94027e9     	ldr	w9, [sp, #36]
     954: 38696908     	ldrb	w8, [x8, x9]
     958: 52800aa9     	mov	w9, #85
     95c: 2a090108     	orr	w8, w8, w9
     960: f9401be9     	ldr	x9, [sp, #48]
     964: 91002129     	add	x9, x9, #8
     968: b94027ea     	ldr	w10, [sp, #36]
     96c: b94027eb     	ldr	w11, [sp, #36]
     970: 0b0b014a     	add	w10, w10, w11
     974: 1100054a     	add	w10, w10, #1
     978: 382a4928     	strb	w8, [x9, w10, uxtw]
     97c: 79405fe8     	ldrh	w8, [sp, #46]
     980: f94023e9     	ldr	x9, [sp, #64]
     984: b94027ea     	ldr	w10, [sp, #36]
     988: 386a6929     	ldrb	w9, [x9, x10]
     98c: 0b090108     	add	w8, w8, w9
     990: 79005fe8     	strh	w8, [sp, #46]
     994: 14000001     	b	0x998 <ArtNetRdmController::RdmReceive(unsigned int, unsigned char*)+0x3bc>
     998: b94027e8     	ldr	w8, [sp, #36]
     99c: 11000508     	add	w8, w8, #1
     9a0: b90027e8     	str	w8, [sp, #36]
     9a4: 17ffffda     	b	0x90c <ArtNetRdmController::RdmReceive(unsigned int, unsigned char*)+0x330>
     9a8: 79405fe8     	ldrh	w8, [sp, #46]
     9ac: 5280154a     	mov	w10, #170
     9b0: 2a882148     	orr	w8, w10, w8, asr #8
     9b4: f9401be9     	ldr	x9, [sp, #48]
     9b8: 39005128     	strb	w8, [x9, #20]
     9bc: 79405fe8     	ldrh	w8, [sp, #46]
     9c0: 52800aa9     	mov	w9, #85
     9c4: 2a882128     	orr	w8, w9, w8, asr #8
     9c8: f9401beb     	ldr	x11, [sp, #48]
     9cc: 39005568     	strb	w8, [x11, #21]
     9d0: 3940bbe8     	ldrb	w8, [sp, #46]
     9d4: 2a0a0108     	orr	w8, w8, w10
     9d8: f9401bea     	ldr	x10, [sp, #48]
     9dc: 39005948     	strb	w8, [x10, #22]
     9e0: 3940bbe8     	ldrb	w8, [sp, #46]
     9e4: 2a090108     	orr	w8, w8, w9
     9e8: f9401be9     	ldr	x9, [sp, #48]
     9ec: 39005d28     	strb	w8, [x9, #23]
     9f0: b85e43a0     	ldur	w0, [x29, #-28]
     9f4: f9401be1     	ldr	x1, [sp, #48]
     9f8: 52800302     	mov	w2, #24
     9fc: 94000000     	bl	0x9fc <ArtNetRdmController::RdmReceive(unsigned int, unsigned char*)+0x420>
     a00: 52800008     	mov	w8, #0
     a04: 12000108     	and	w8, w8, #0x1
     a08: 12000108     	and	w8, w8, #0x1
     a0c: 381f73a8     	sturb	w8, [x29, #-9]
     a10: 1400006a     	b	0xbb8 <ArtNetRdmController::RdmReceive(unsigned int, unsigned char*)+0x5dc>
     a14: 14000001     	b	0xa18 <ArtNetRdmController::RdmReceive(unsigned int, unsigned char*)+0x43c>
     a18: 14000062     	b	0xba0 <ArtNetRdmController::RdmReceive(unsigned int, unsigned char*)+0x5c4>
     a1c: 79407be8     	ldrh	w8, [sp, #60]
     a20: 71000d08     	subs	w8, w8, #3
     a24: 1a9f07e8     	cset	w8, ne
     a28: 37000648     	tbnz	w8, #0, 0xaf0 <ArtNetRdmController::RdmReceive(unsigned int, unsigned char*)+0x514>
     a2c: 14000001     	b	0xa30 <ArtNetRdmController::RdmReceive(unsigned int, unsigned char*)+0x454>
     a30: f85c83a8     	ldur	x8, [x29, #-56]
     a34: 39405d08     	ldrb	w8, [x8, #23]
     a38: 71000108     	subs	w8, w8, #0
     a3c: 1a9f17e8     	cset	w8, eq
     a40: 370000e8     	tbnz	w8, #0, 0xa5c <ArtNetRdmController::RdmReceive(unsigned int, unsigned char*)+0x480>
     a44: 14000001     	b	0xa48 <ArtNetRdmController::RdmReceive(unsigned int, unsigned char*)+0x46c>
     a48: 52800008     	mov	w8, #0
     a4c: 12000108     	and	w8, w8, #0x1
     a50: 12000108     	and	w8, w8, #0x1
     a54: 381f73a8     	sturb	w8, [x29, #-9]
     a58: 14000058     	b	0xbb8 <ArtNetRdmController::RdmReceive(unsigned int, unsigned char*)+0x5dc>
     a5c: 3940ffe8     	ldrb	w8, [sp, #63]
     a60: 370002e8     	tbnz	w8, #0, 0xabc <ArtNetRdmController::RdmReceive(unsigned int, unsigned char*)+0x4e0>
     a64: 14000001     	b	0xa68 <ArtNetRdmController::RdmReceive(unsigned int, unsigned char*)+0x48c>
     a68: 3940fbe8     	ldrb	w8, [sp, #62]
     a6c: 36000288     	tbz	w8, #0, 0xabc <ArtNetRdmController::RdmReceive(unsigned int, unsigned char*)+0x4e0>
     a70: 14000001     	b	0xa74 <ArtNetRdmController::RdmReceive(unsigned int, unsigned char*)+0x498>
     a74: b85e43a8     	ldur	w8, [x29, #-28]
     a78: d2809a89     	mov	x9, #1236
     a7c: 9b097d09     	mul	x9, x8, x9
     a80: 90000008     	adrp	x8, 0x0 <ArtNetRdmController::RdmReceive(unsigned int, unsigned char*)+0x4a4>
     a84: 91000108     	add	x8, x8, #0
     a88: 8b090100     	add	x0, x8, x9
     a8c: 94000000     	bl	0xa8c <ArtNetRdmController::RdmReceive(unsigned int, unsigned char*)+0x4b0>
     a90: f9400be8     	ldr	x8, [sp, #16]
     a94: f9400fe0     	ldr	x0, [sp, #24]
     a98: 52800049     	mov	w9, #2
     a9c: 39005d09     	strb	w9, [x8, #23]
     aa0: 3900611f     	strb	wzr, [x8, #24]
     aa4: 3900651f     	strb	wzr, [x8, #25]
     aa8: b85e43a1     	ldur	w1, [x29, #-28]
     aac: f94023e2     	ldr	x2, [sp, #64]
     ab0: f85c83a3     	ldur	x3, [x29, #-56]
     ab4: 94000000     	bl	0xab4 <ArtNetRdmController::RdmReceive(unsigned int, unsigned char*)+0x4d8>
     ab8: 14000009     	b	0xadc <ArtNetRdmController::RdmReceive(unsigned int, unsigned char*)+0x500>
     abc: b85e43a8     	ldur	w8, [x29, #-28]
     ac0: d2809a89     	mov	x9, #1236
     ac4: 9b097d09     	mul	x9, x8, x9
     ac8: 90000008     	adrp	x8, 0x0 <ArtNetRdmController::RdmReceive(unsigned int, unsigned char*)+0x4ec>
     acc: 91000108     	add	x8, x8, #0
     ad0: 8b090100     	add	x0, x8, x9
     ad4: 94000000     	bl	0xad4 <ArtNetRdmController::RdmReceive(unsigned int, unsigned char*)+0x4f8>
     ad8: 14000001     	b	0xadc <ArtNetRdmController::RdmReceive(unsigned int, unsigned char*)+0x500>
     adc: 52800008     	mov	w8, #0
     ae0: 12000108     	and	w8, w8, #0x1
     ae4: 12000108     	and	w8, w8, #0x1
     ae8: 381f73a8     	sturb	w8, [x29, #-9]
     aec: 14000033     	b	0xbb8 <ArtNetRdmController::RdmReceive(unsigned int, unsigned char*)+0x5dc>
     af0: 79407be8     	ldrh	w8, [sp, #60]
     af4: 71000908     	subs	w8, w8, #2
     af8: 1a9f07e8     	cset	w8, ne
     afc: 370004e8     	tbnz	w8, #0, 0xb98 <ArtNetRdmController::RdmReceive(unsigned int, unsigned char*)+0x5bc>
     b00: 14000001     	b	0xb04 <ArtNetRdmController::RdmReceive(unsigned int, unsigned char*)+0x528>
     b04: f85c83a8     	ldur	x8, [x29, #-56]
     b08: 39405d08     	ldrb	w8, [x8, #23]
     b0c: 71000108     	subs	w8, w8, #0
     b10: 1a9f17e8     	cset	w8, eq
     b14: 370000e8     	tbnz	w8, #0, 0xb30 <ArtNetRdmController::RdmReceive(unsigned int, unsigned char*)+0x554>
     b18: 14000001     	b	0xb1c <ArtNetRdmController::RdmReceive(unsigned int, unsigned char*)+0x540>
     b1c: 52800008     	mov	w8, #0
     b20: 12000108     	and	w8, w8, #0x1
     b24: 12000108     	and	w8, w8, #0x1
     b28: 381f73a8     	sturb	w8, [x29, #-9]
     b2c: 14000023     	b	0xbb8 <ArtNetRdmController::RdmReceive(unsigned int, unsigned char*)+0x5dc>
     b30: 3940fbe8     	ldrb	w8, [sp, #62]
     b34: 36000308     	tbz	w8, #0, 0xb94 <ArtNetRdmController::RdmReceive(unsigned int, unsigned char*)+0x5b8>
     b38: 14000001     	b	0xb3c <ArtNetRdmController::RdmReceive(unsigned int, unsigned char*)+0x560>
     b3c: b85e43a8     	ldur	w8, [x29, #-28]
     b40: d2809a89     	mov	x9, #1236
     b44: 9b097d09     	mul	x9, x8, x9
     b48: 90000008     	adrp	x8, 0x0 <ArtNetRdmController::RdmReceive(unsigned int, unsigned char*)+0x56c>
     b4c: 91000108     	add	x8, x8, #0
     b50: 8b090100     	add	x0, x8, x9
     b54: 94000000     	bl	0xb54 <ArtNetRdmController::RdmReceive(unsigned int, unsigned char*)+0x578>
     b58: f9400be8     	ldr	x8, [sp, #16]
     b5c: f9400fe0     	ldr	x0, [sp, #24]
     b60: 52800049     	mov	w9, #2
     b64: 39005d09     	strb	w9, [x8, #23]
     b68: 3900611f     	strb	wzr, [x8, #24]
     b6c: 3900651f     	strb	wzr, [x8, #25]
     b70: b85e43a1     	ldur	w1, [x29, #-28]
     b74: f94023e2     	ldr	x2, [sp, #64]
     b78: f85c83a3     	ldur	x3, [x29, #-56]
     b7c: 94000000     	bl	0xb7c <ArtNetRdmController::RdmReceive(unsigned int, unsigned char*)+0x5a0>
     b80: 52800008     	mov	w8, #0
     b84: 12000108     	and	w8, w8, #0x1
     b88: 12000108     	and	w8, w8, #0x1
     b8c: 381f73a8     	sturb	w8, [x29, #-9]
     b90: 1400000a     	b	0xbb8 <ArtNetRdmController::RdmReceive(unsigned int, unsigned char*)+0x5dc>
     b94: 14000001     	b	0xb98 <ArtNetRdmController::RdmReceive(unsigned int, unsigned char*)+0x5bc>
     b98: 14000001     	b	0xb9c <ArtNetRdmController::RdmReceive(unsigned int, unsigned char*)+0x5c0>
     b9c: 14000001     	b	0xba0 <ArtNetRdmController::RdmReceive(unsigned int, unsigned char*)+0x5c4>
     ba0: 14000001     	b	0xba4 <ArtNetRdmController::RdmReceive(unsigned int, unsigned char*)+0x5c8>
     ba4: 52800008     	mov	w8, #0
     ba8: 12000108     	and	w8, w8, #0x1
     bac: 12000108     	and	w8, w8, #0x1
     bb0: 381f73a8     	sturb	w8, [x29, #-9]
     bb4: 14000001     	b	0xbb8 <ArtNetRdmController::RdmReceive(unsigned int, unsigned char*)+0x5dc>
     bb8: 385f73a8     	ldurb	w8, [x29, #-9]
     bbc: b9000fe8     	str	w8, [sp, #12]
     bc0: f85f83a9     	ldur	x9, [x29, #-8]
     bc4: 90000008     	adrp	x8, 0x0 <ArtNetRdmController::RdmReceive(unsigned int, unsigned char*)+0x5e8>
     bc8: f9400108     	ldr	x8, [x8]
     bcc: f9400108     	ldr	x8, [x8]
     bd0: eb090108     	subs	x8, x8, x9
     bd4: 1a9f17e8     	cset	w8, eq
     bd8: 37000068     	tbnz	w8, #0, 0xbe4 <ArtNetRdmController::RdmReceive(unsigned int, unsigned char*)+0x608>
     bdc: 14000001     	b	0xbe0 <ArtNetRdmController::RdmReceive(unsigned int, unsigned char*)+0x604>
     be0: 94000000     	bl	0xbe0 <ArtNetRdmController::RdmReceive(unsigned int, unsigned char*)+0x604>
     be4: b9400fe8     	ldr	w8, [sp, #12]
     be8: 12000100     	and	w0, w8, #0x1
     bec: a9487bfd     	ldp	x29, x30, [sp, #128]
     bf0: 910243ff     	add	sp, sp, #144
     bf4: d65f03c0     	ret

0000000000000bf8 <RDMTod::Exist(unsigned char const*)>:
     bf8: d10143ff     	sub	sp, sp, #80
     bfc: a9047bfd     	stp	x29, x30, [sp, #64]
     c00: 910103fd     	add	x29, sp, #64
     c04: 90000008     	adrp	x8, 0x0 <RDMTod::Exist(unsigned char const*)+0xc>
     c08: f9400108     	ldr	x8, [x8]
     c0c: f9400108     	ldr	x8, [x8]
     c10: f81f83a8     	stur	x8, [x29, #-8]
     c14: f81e83a0     	stur	x0, [x29, #-24]
     c18: f90013e1     	str	x1, [sp, #32]
     c1c: f85e83a8     	ldur	x8, [x29, #-24]
     c20: f9000be8     	str	x8, [sp, #16]
     c24: b9001fff     	str	wzr, [sp, #28]
     c28: 14000001     	b	0xc2c <RDMTod::Exist(unsigned char const*)+0x34>
     c2c: f9400be9     	ldr	x9, [sp, #16]
     c30: b9401fe8     	ldr	w8, [sp, #28]
     c34: b9400129     	ldr	w9, [x9]
     c38: 6b090108     	subs	w8, w8, w9
     c3c: 1a9f37e8     	cset	w8, hs
     c40: 37000388     	tbnz	w8, #0, 0xcb0 <RDMTod::Exist(unsigned char const*)+0xb8>
     c44: 14000001     	b	0xc48 <RDMTod::Exist(unsigned char const*)+0x50>
     c48: f9400be8     	ldr	x8, [sp, #16]
     c4c: 91009108     	add	x8, x8, #36
     c50: b9401fe9     	ldr	w9, [sp, #28]
     c54: d28000ca     	mov	x10, #6
     c58: 9b0a7d29     	mul	x9, x9, x10
     c5c: 8b090100     	add	x0, x8, x9
     c60: f94013e1     	ldr	x1, [sp, #32]
     c64: d28000c2     	mov	x2, #6
     c68: 94000000     	bl	0xc68 <RDMTod::Exist(unsigned char const*)+0x70>
     c6c: 71000008     	subs	w8, w0, #0
     c70: 1a9f07e8     	cset	w8, ne
     c74: 37000148     	tbnz	w8, #0, 0xc9c <RDMTod::Exist(unsigned char const*)+0xa4>
     c78: 14000001     	b	0xc7c <RDMTod::Exist(unsigned char const*)+0x84>
     c7c: f9400be9     	ldr	x9, [sp, #16]
     c80: b9401fe8     	ldr	w8, [sp, #28]
     c84: b9000528     	str	w8, [x9, #4]
     c88: 52800028     	mov	w8, #1
     c8c: 12000108     	and	w8, w8, #0x1
     c90: 12000108     	and	w8, w8, #0x1
     c94: 381f73a8     	sturb	w8, [x29, #-9]
     c98: 1400000e     	b	0xcd0 <RDMTod::Exist(unsigned char const*)+0xd8>
     c9c: 14000001     	b	0xca0 <RDMTod::Exist(unsigned char const*)+0xa8>
     ca0: b9401fe8     	ldr	w8, [sp, #28]
     ca4: 11000508     	add	w8, w8, #1
     ca8: b9001fe8     	str	w8, [sp, #28]
     cac: 17ffffe0     	b	0xc2c <RDMTod::Exist(unsigned char const*)+0x34>
     cb0: f9400be9     	ldr	x9, [sp, #16]
     cb4: 12800008     	mov	w8, #-1
     cb8: b9000528     	str	w8, [x9, #4]
     cbc: 52800008     	mov	w8, #0
     cc0: 12000108     	and	w8, w8, #0x1
     cc4: 12000108     	and	w8, w8, #0x1
     cc8: 381f73a8     	sturb	w8, [x29, #-9]
     ccc: 14000001     	b	0xcd0 <RDMTod::Exist(unsigned char const*)+0xd8>
     cd0: 385f73a8     	ldurb	w8, [x29, #-9]
     cd4: b9000fe8     	str	w8, [sp, #12]
     cd8: f85f83a9     	ldur	x9, [x29, #-8]
     cdc: 90000008     	adrp	x8, 0x0 <RDMTod::Exist(unsigned char const*)+0xe4>
     ce0: f9400108     	ldr	x8, [x8]
     ce4: f9400108     	ldr	x8, [x8]
     ce8: eb090108     	subs	x8, x8, x9
     cec: 1a9f17e8     	cset	w8, eq
     cf0: 37000068     	tbnz	w8, #0, 0xcfc <RDMTod::Exist(unsigned char const*)+0x104>
     cf4: 14000001     	b	0xcf8 <RDMTod::Exist(unsigned char const*)+0x100>
     cf8: 94000000     	bl	0xcf8 <RDMTod::Exist(unsigned char const*)+0x100>
     cfc: b9400fe8     	ldr	w8, [sp, #12]
     d00: 12000100     	and	w0, w8, #0x1
     d04: a9447bfd     	ldp	x29, x30, [sp, #64]
     d08: 910143ff     	add	sp, sp, #80
     d0c: d65f03c0     	ret

0000000000000d10 <RDMTod::Next()>:
     d10: d100c3ff     	sub	sp, sp, #48
     d14: a9027bfd     	stp	x29, x30, [sp, #32]
     d18: 910083fd     	add	x29, sp, #32
     d1c: 90000008     	adrp	x8, 0x0 <RDMTod::Next()+0xc>
     d20: f9400108     	ldr	x8, [x8]
     d24: f9400108     	ldr	x8, [x8]
     d28: f81f83a8     	stur	x8, [x29, #-8]
     d2c: f9000be0     	str	x0, [sp, #16]
     d30: f9400be9     	ldr	x9, [sp, #16]
     d34: f90007e9     	str	x9, [sp, #8]
     d38: b9400528     	ldr	w8, [x9, #4]
     d3c: 11000508     	add	w8, w8, #1
     d40: b9000528     	str	w8, [x9, #4]
     d44: b9400528     	ldr	w8, [x9, #4]
     d48: b9400129     	ldr	w9, [x9]
     d4c: 6b090108     	subs	w8, w8, w9
     d50: 1a9f07e8     	cset	w8, ne
     d54: 370000a8     	tbnz	w8, #0, 0xd68 <RDMTod::Next()+0x58>
     d58: 14000001     	b	0xd5c <RDMTod::Next()+0x4c>
     d5c: f94007e8     	ldr	x8, [sp, #8]
     d60: b900051f     	str	wzr, [x8, #4]
     d64: 14000001     	b	0xd68 <RDMTod::Next()+0x58>
     d68: f94007e9     	ldr	x9, [sp, #8]
     d6c: 91009128     	add	x8, x9, #36
     d70: b9400529     	ldr	w9, [x9, #4]
     d74: d28000ca     	mov	x10, #6
     d78: 9b0a7d29     	mul	x9, x9, x10
     d7c: 8b090108     	add	x8, x8, x9
     d80: f90003e8     	str	x8, [sp]
     d84: f85f83a9     	ldur	x9, [x29, #-8]
     d88: 90000008     	adrp	x8, 0x0 <RDMTod::Next()+0x78>
     d8c: f9400108     	ldr	x8, [x8]
     d90: f9400108     	ldr	x8, [x8]
     d94: eb090108     	subs	x8, x8, x9
     d98: 1a9f17e8     	cset	w8, eq
     d9c: 37000068     	tbnz	w8, #0, 0xda8 <RDMTod::Next()+0x98>
     da0: 14000001     	b	0xda4 <RDMTod::Next()+0x94>
     da4: 94000000     	bl	0xda4 <RDMTod::Next()+0x94>
     da8: f94003e0     	ldr	x0, [sp]
     dac: a9427bfd     	ldp	x29, x30, [sp, #32]
     db0: 9100c3ff     	add	sp, sp, #48
     db4: d65f03c0     	ret

0000000000000db8 <RDMTod::IsMuted()>:
     db8: d10143ff     	sub	sp, sp, #80
     dbc: a9047bfd     	stp	x29, x30, [sp, #64]
     dc0: 910103fd     	add	x29, sp, #64
     dc4: 90000008     	adrp	x8, 0x0 <RDMTod::IsMuted()+0xc>
     dc8: f9400108     	ldr	x8, [x8]
     dcc: f9400108     	ldr	x8, [x8]
     dd0: f81f83a8     	stur	x8, [x29, #-8]
     dd4: f81e83a0     	stur	x0, [x29, #-24]
     dd8: f85e83a8     	ldur	x8, [x29, #-24]
     ddc: f9000be8     	str	x8, [sp, #16]
     de0: b9400508     	ldr	w8, [x8, #4]
     de4: 31000508     	adds	w8, w8, #1
     de8: 1a9f07e8     	cset	w8, ne
     dec: 370000e8     	tbnz	w8, #0, 0xe08 <RDMTod::IsMuted()+0x50>
     df0: 14000001     	b	0xdf4 <RDMTod::IsMuted()+0x3c>
     df4: 52800028     	mov	w8, #1
     df8: 12000108     	and	w8, w8, #0x1
     dfc: 12000108     	and	w8, w8, #0x1
     e00: 381f73a8     	sturb	w8, [x29, #-9]
     e04: 1400001b     	b	0xe70 <RDMTod::IsMuted()+0xb8>
     e08: f9400be8     	ldr	x8, [sp, #16]
     e0c: b9400509     	ldr	w9, [x8, #4]
     e10: 5280040a     	mov	w10, #32
     e14: 1aca0929     	udiv	w9, w9, w10
     e18: b81e43a9     	stur	w9, [x29, #-28]
     e1c: 91002109     	add	x9, x8, #8
     e20: b85e43aa     	ldur	w10, [x29, #-28]
     e24: b86a7929     	ldr	w9, [x9, x10, lsl  #2]
     e28: b90023e9     	str	w9, [sp, #32]
     e2c: b9400508     	ldr	w8, [x8, #4]
     e30: b85e43a9     	ldur	w9, [x29, #-28]
     e34: 6b091508     	subs	w8, w8, w9, lsl #5
     e38: b9001fe8     	str	w8, [sp, #28]
     e3c: b94023e8     	ldr	w8, [sp, #32]
     e40: b9401fea     	ldr	w10, [sp, #28]
     e44: 52800029     	mov	w9, #1
     e48: 1aca212a     	lsl	w10, w9, w10
     e4c: 0a0a0108     	and	w8, w8, w10
     e50: b9401fea     	ldr	w10, [sp, #28]
     e54: 1aca2129     	lsl	w9, w9, w10
     e58: 6b090108     	subs	w8, w8, w9
     e5c: 1a9f17e8     	cset	w8, eq
     e60: 12000108     	and	w8, w8, #0x1
     e64: 12000108     	and	w8, w8, #0x1
     e68: 381f73a8     	sturb	w8, [x29, #-9]
     e6c: 14000001     	b	0xe70 <RDMTod::IsMuted()+0xb8>
     e70: 385f73a8     	ldurb	w8, [x29, #-9]
     e74: b9000fe8     	str	w8, [sp, #12]
     e78: f85f83a9     	ldur	x9, [x29, #-8]
     e7c: 90000008     	adrp	x8, 0x0 <RDMTod::IsMuted()+0xc4>
     e80: f9400108     	ldr	x8, [x8]
     e84: f9400108     	ldr	x8, [x8]
     e88: eb090108     	subs	x8, x8, x9
     e8c: 1a9f17e8     	cset	w8, eq
     e90: 37000068     	tbnz	w8, #0, 0xe9c <RDMTod::IsMuted()+0xe4>
     e94: 14000001     	b	0xe98 <RDMTod::IsMuted()+0xe0>
     e98: 94000000     	bl	0xe98 <RDMTod::IsMuted()+0xe0>
     e9c: b9400fe8     	ldr	w8, [sp, #12]
     ea0: 12000100     	and	w0, w8, #0x1
     ea4: a9447bfd     	ldp	x29, x30, [sp, #64]
     ea8: 910143ff     	add	sp, sp, #80
     eac: d65f03c0     	ret

0000000000000eb0 <RDMTod::UnMute()>:
     eb0: d100c3ff     	sub	sp, sp, #48
     eb4: a9027bfd     	stp	x29, x30, [sp, #32]
     eb8: 910083fd     	add	x29, sp, #32
     ebc: 90000008     	adrp	x8, 0x0 <RDMTod::UnMute()+0xc>
     ec0: f9400108     	ldr	x8, [x8]
     ec4: f9400108     	ldr	x8, [x8]
     ec8: f81f83a8     	stur	x8, [x29, #-8]
     ecc: f9000be0     	str	x0, [sp, #16]
     ed0: f9400be8     	ldr	x8, [sp, #16]
     ed4: f90003e8     	str	x8, [sp]
     ed8: b9400508     	ldr	w8, [x8, #4]
     edc: 31000508     	adds	w8, w8, #1
     ee0: 1a9f07e8     	cset	w8, ne
     ee4: 37000068     	tbnz	w8, #0, 0xef0 <RDMTod::UnMute()+0x40>
     ee8: 14000001     	b	0xeec <RDMTod::UnMute()+0x3c>
     eec: 14000014     	b	0xf3c <RDMTod::UnMute()+0x8c>
     ef0: f94003e8     	ldr	x8, [sp]
     ef4: b9400509     	ldr	w9, [x8, #4]
     ef8: 5280040a     	mov	w10, #32
     efc: 1aca0929     	udiv	w9, w9, w10
     f00: b9000fe9     	str	w9, [sp, #12]
     f04: b9400509     	ldr	w9, [x8, #4]
     f08: b9400fea     	ldr	w10, [sp, #12]
     f0c: 6b0a1529     	subs	w9, w9, w10, lsl #5
     f10: b9000be9     	str	w9, [sp, #8]
     f14: b9400bea     	ldr	w10, [sp, #8]
     f18: 52800029     	mov	w9, #1
     f1c: 1aca212a     	lsl	w10, w9, w10
     f20: 91002108     	add	x8, x8, #8
     f24: b9400fe9     	ldr	w9, [sp, #12]
     f28: 8b090909     	add	x9, x8, x9, lsl #2
     f2c: b9400128     	ldr	w8, [x9]
     f30: 0a2a0108     	bic	w8, w8, w10
     f34: b9000128     	str	w8, [x9]
     f38: 14000001     	b	0xf3c <RDMTod::UnMute()+0x8c>
     f3c: f85f83a9     	ldur	x9, [x29, #-8]
     f40: 90000008     	adrp	x8, 0x0 <RDMTod::UnMute()+0x90>
     f44: f9400108     	ldr	x8, [x8]
     f48: f9400108     	ldr	x8, [x8]
     f4c: eb090108     	subs	x8, x8, x9
     f50: 1a9f17e8     	cset	w8, eq
     f54: 37000068     	tbnz	w8, #0, 0xf60 <RDMTod::UnMute()+0xb0>
     f58: 14000001     	b	0xf5c <RDMTod::UnMute()+0xac>
     f5c: 94000000     	bl	0xf5c <RDMTod::UnMute()+0xac>
     f60: a9427bfd     	ldp	x29, x30, [sp, #32]
     f64: 9100c3ff     	add	sp, sp, #48
     f68: d65f03c0     	ret

0000000000000f6c <ArtNetRdmController::RespondMessageAck(unsigned int, unsigned char const*, TRdmMessage const*)>:
     f6c: d101c3ff     	sub	sp, sp, #112
     f70: a9067bfd     	stp	x29, x30, [sp, #96]
     f74: 910183fd     	add	x29, sp, #96
     f78: 9000000a     	adrp	x10, 0x0 <ArtNetRdmController::RespondMessageAck(unsigned int, unsigned char const*, TRdmMessage const*)+0xc>
     f7c: 90000008     	adrp	x8, 0x0 <ArtNetRdmController::RespondMessageAck(unsigned int, unsigned char const*, TRdmMessage const*)+0x10>
     f80: 91000108     	add	x8, x8, #0
     f84: f90003e8     	str	x8, [sp]
     f88: 91000d09     	add	x9, x8, #3
     f8c: f90007e9     	str	x9, [sp, #8]
     f90: 91002509     	add	x9, x8, #9
     f94: f9000be9     	str	x9, [sp, #16]
     f98: 90000009     	adrp	x9, 0x0 <ArtNetRdmController::RespondMessageAck(unsigned int, unsigned char const*, TRdmMessage const*)+0x2c>
     f9c: f9400129     	ldr	x9, [x9]
     fa0: f9400129     	ldr	x9, [x9]
     fa4: f81f83a9     	stur	x9, [x29, #-8]
     fa8: f81f03a0     	stur	x0, [x29, #-16]
     fac: b81ec3a1     	stur	w1, [x29, #-20]
     fb0: f81e03a2     	stur	x2, [x29, #-32]
     fb4: f81d83a3     	stur	x3, [x29, #-40]
     fb8: 52801989     	mov	w9, #204
     fbc: 39000149     	strb	w9, [x10]
     fc0: f85d83a9     	ldur	x9, [x29, #-40]
     fc4: 39400529     	ldrb	w9, [x9, #1]
     fc8: 39000509     	strb	w9, [x8, #1]
     fcc: f85d83a9     	ldur	x9, [x29, #-40]
     fd0: 39403d29     	ldrb	w9, [x9, #15]
     fd4: 39003d09     	strb	w9, [x8, #15]
     fd8: 3900451f     	strb	wzr, [x8, #17]
     fdc: f85d83a9     	ldur	x9, [x29, #-40]
     fe0: 39404929     	ldrb	w9, [x9, #18]
     fe4: 39004909     	strb	w9, [x8, #18]
     fe8: f85d83a9     	ldur	x9, [x29, #-40]
     fec: 39404d29     	ldrb	w9, [x9, #19]
     ff0: 39004d09     	strb	w9, [x8, #19]
     ff4: f85d83a9     	ldur	x9, [x29, #-40]
     ff8: 39405129     	ldrb	w9, [x9, #20]
     ffc: 11000529     	add	w9, w9, #1
    1000: 39005109     	strb	w9, [x8, #20]
    1004: f85d83a9     	ldur	x9, [x29, #-40]
    1008: 39405529     	ldrb	w9, [x9, #21]
    100c: 39005509     	strb	w9, [x8, #21]
    1010: f85d83a9     	ldur	x9, [x29, #-40]
    1014: 39405929     	ldrb	w9, [x9, #22]
    1018: 39005909     	strb	w9, [x8, #22]
    101c: 39405d09     	ldrb	w9, [x8, #23]
    1020: 11006129     	add	w9, w9, #24
    1024: 39000909     	strb	w9, [x8, #2]
    1028: 3900411f     	strb	wzr, [x8, #16]
    102c: b81d43bf     	stur	wzr, [x29, #-44]
    1030: 14000001     	b	0x1034 <ArtNetRdmController::RespondMessageAck(unsigned int, unsigned char const*, TRdmMessage const*)+0xc8>
    1034: b85d43a8     	ldur	w8, [x29, #-44]
    1038: 71001908     	subs	w8, w8, #6
    103c: 1a9f37e8     	cset	w8, hs
    1040: 37000308     	tbnz	w8, #0, 0x10a0 <ArtNetRdmController::RespondMessageAck(unsigned int, unsigned char const*, TRdmMessage const*)+0x134>
    1044: 14000001     	b	0x1048 <ArtNetRdmController::RespondMessageAck(unsigned int, unsigned char const*, TRdmMessage const*)+0xdc>
    1048: f9400be9     	ldr	x9, [sp, #16]
    104c: f94007ea     	ldr	x10, [sp, #8]
    1050: f85d83a8     	ldur	x8, [x29, #-40]
    1054: 91002508     	add	x8, x8, #9
    1058: b85d43ab     	ldur	w11, [x29, #-44]
    105c: 8b0b0108     	add	x8, x8, x11
    1060: 39400108     	ldrb	w8, [x8]
    1064: b85d43ab     	ldur	w11, [x29, #-44]
    1068: 8b0b014a     	add	x10, x10, x11
    106c: 39000148     	strb	w8, [x10]
    1070: f85e03a8     	ldur	x8, [x29, #-32]
    1074: b85d43aa     	ldur	w10, [x29, #-44]
    1078: 8b0a0108     	add	x8, x8, x10
    107c: 39400108     	ldrb	w8, [x8]
    1080: b85d43aa     	ldur	w10, [x29, #-44]
    1084: 8b0a0129     	add	x9, x9, x10
    1088: 39000128     	strb	w8, [x9]
    108c: 14000001     	b	0x1090 <ArtNetRdmController::RespondMessageAck(unsigned int, unsigned char const*, TRdmMessage const*)+0x124>
    1090: b85d43a8     	ldur	w8, [x29, #-44]
    1094: 11000508     	add	w8, w8, #1
    1098: b81d43a8     	stur	w8, [x29, #-44]
    109c: 17ffffe6     	b	0x1034 <ArtNetRdmController::RespondMessageAck(unsigned int, unsigned char const*, TRdmMessage const*)+0xc8>
    10a0: 90000008     	adrp	x8, 0x1000 <ArtNetRdmController::RespondMessageAck(unsigned int, unsigned char const*, TRdmMessage const*)+0x134>
    10a4: 91000108     	add	x8, x8, #0
    10a8: f90017e8     	str	x8, [sp, #40]
    10ac: 79004fff     	strh	wzr, [sp, #38]
    10b0: b90023ff     	str	wzr, [sp, #32]
    10b4: 14000001     	b	0x10b8 <ArtNetRdmController::RespondMessageAck(unsigned int, unsigned char const*, TRdmMessage const*)+0x14c>
    10b8: f94003e9     	ldr	x9, [sp]
    10bc: b94023e8     	ldr	w8, [sp, #32]
    10c0: 39400929     	ldrb	w9, [x9, #2]
    10c4: 6b090108     	subs	w8, w8, w9
    10c8: 1a9f37e8     	cset	w8, hs
    10cc: 370001a8     	tbnz	w8, #0, 0x1100 <ArtNetRdmController::RespondMessageAck(unsigned int, unsigned char const*, TRdmMessage const*)+0x194>
    10d0: 14000001     	b	0x10d4 <ArtNetRdmController::RespondMessageAck(unsigned int, unsigned char const*, TRdmMessage const*)+0x168>
    10d4: 79404fe8     	ldrh	w8, [sp, #38]
    10d8: f94017e9     	ldr	x9, [sp, #40]
    10dc: b94023ea     	ldr	w10, [sp, #32]
    10e0: 386a6929     	ldrb	w9, [x9, x10]
    10e4: 0b090108     	add	w8, w8, w9
    10e8: 79004fe8     	strh	w8, [sp, #38]
    10ec: 14000001     	b	0x10f0 <ArtNetRdmController::RespondMessageAck(unsigned int, unsigned char const*, TRdmMessage const*)+0x184>
    10f0: b94023e8     	ldr	w8, [sp, #32]
    10f4: 11000508     	add	w8, w8, #1
    10f8: b90023e8     	str	w8, [sp, #32]
    10fc: 17ffffef     	b	0x10b8 <ArtNetRdmController::RespondMessageAck(unsigned int, unsigned char const*, TRdmMessage const*)+0x14c>
    1100: f94003e8     	ldr	x8, [sp]
    1104: 79404fe9     	ldrh	w9, [sp, #38]
    1108: 13087d29     	asr	w9, w9, #8
    110c: f94017ea     	ldr	x10, [sp, #40]
    1110: b94023eb     	ldr	w11, [sp, #32]
    1114: aa0b03ec     	mov	x12, x11
    1118: 1100058c     	add	w12, w12, #1
    111c: b90023ec     	str	w12, [sp, #32]
    1120: 382b6949     	strb	w9, [x10, x11]
    1124: 39409be9     	ldrb	w9, [sp, #38]
    1128: f94017ea     	ldr	x10, [sp, #40]
    112c: b94023eb     	ldr	w11, [sp, #32]
    1130: 382b6949     	strb	w9, [x10, x11]
    1134: 39400908     	ldrb	w8, [x8, #2]
    1138: 11000908     	add	w8, w8, #2
    113c: 79003fe8     	strh	w8, [sp, #30]
    1140: b85ec3a0     	ldur	w0, [x29, #-20]
    1144: f94017e1     	ldr	x1, [sp, #40]
    1148: 79403fe2     	ldrh	w2, [sp, #30]
    114c: 94000000     	bl	0x114c <ArtNetRdmController::RespondMessageAck(unsigned int, unsigned char const*, TRdmMessage const*)+0x1e0>
    1150: f85f83a9     	ldur	x9, [x29, #-8]
    1154: 90000008     	adrp	x8, 0x1000 <ArtNetRdmController::RespondMessageAck(unsigned int, unsigned char const*, TRdmMessage const*)+0x1e8>
    1158: f9400108     	ldr	x8, [x8]
    115c: f9400108     	ldr	x8, [x8]
    1160: eb090108     	subs	x8, x8, x9
    1164: 1a9f17e8     	cset	w8, eq
    1168: 37000068     	tbnz	w8, #0, 0x1174 <ArtNetRdmController::RespondMessageAck(unsigned int, unsigned char const*, TRdmMessage const*)+0x208>
    116c: 14000001     	b	0x1170 <ArtNetRdmController::RespondMessageAck(unsigned int, unsigned char const*, TRdmMessage const*)+0x204>
    1170: 94000000     	bl	0x1170 <ArtNetRdmController::RespondMessageAck(unsigned int, unsigned char const*, TRdmMessage const*)+0x204>
    1174: a9467bfd     	ldp	x29, x30, [sp, #96]
    1178: 9101c3ff     	add	sp, sp, #112
    117c: d65f03c0     	ret

0000000000001180 <RDMTod::UnMuteAll()>:
    1180: d100c3ff     	sub	sp, sp, #48
    1184: a9027bfd     	stp	x29, x30, [sp, #32]
    1188: 910083fd     	add	x29, sp, #32
    118c: 90000008     	adrp	x8, 0x1000 <RDMTod::UnMuteAll()+0xc>
    1190: f9400108     	ldr	x8, [x8]
    1194: f9400108     	ldr	x8, [x8]
    1198: f81f83a8     	stur	x8, [x29, #-8]
    119c: f9000be0     	str	x0, [sp, #16]
    11a0: f9400be8     	ldr	x8, [sp, #16]
    11a4: f90003e8     	str	x8, [sp]
    11a8: b9000fff     	str	wzr, [sp, #12]
    11ac: 14000001     	b	0x11b0 <RDMTod::UnMuteAll()+0x30>
    11b0: b9400fe8     	ldr	w8, [sp, #12]
    11b4: 71001d08     	subs	w8, w8, #7
    11b8: 1a9f37e8     	cset	w8, hs
    11bc: 370001a8     	tbnz	w8, #0, 0x11f0 <RDMTod::UnMuteAll()+0x70>
    11c0: 14000001     	b	0x11c4 <RDMTod::UnMuteAll()+0x44>
    11c4: f94003e8     	ldr	x8, [sp]
    11c8: 91002109     	add	x9, x8, #8
    11cc: b9400fe8     	ldr	w8, [sp, #12]
    11d0: aa0803ea     	mov	x10, x8
    11d4: 52800008     	mov	w8, #0
    11d8: b82a7928     	str	w8, [x9, x10, lsl  #2]
    11dc: 14000001     	b	0x11e0 <RDMTod::UnMuteAll()+0x60>
    11e0: b9400fe8     	ldr	w8, [sp, #12]
    11e4: 11000508     	add	w8, w8, #1
    11e8: b9000fe8     	str	w8, [sp, #12]
    11ec: 17fffff1     	b	0x11b0 <RDMTod::UnMuteAll()+0x30>
    11f0: f85f83a9     	ldur	x9, [x29, #-8]
    11f4: 90000008     	adrp	x8, 0x1000 <RDMTod::UnMuteAll()+0x74>
    11f8: f9400108     	ldr	x8, [x8]
    11fc: f9400108     	ldr	x8, [x8]
    1200: eb090108     	subs	x8, x8, x9
    1204: 1a9f17e8     	cset	w8, eq
    1208: 37000068     	tbnz	w8, #0, 0x1214 <RDMTod::UnMuteAll()+0x94>
    120c: 14000001     	b	0x1210 <RDMTod::UnMuteAll()+0x90>
    1210: 94000000     	bl	0x1210 <RDMTod::UnMuteAll()+0x90>
    1214: a9427bfd     	ldp	x29, x30, [sp, #32]
    1218: 9100c3ff     	add	sp, sp, #48
    121c: d65f03c0     	ret

0000000000001220 <RDMTod::Mute()>:
    1220: d100c3ff     	sub	sp, sp, #48
    1224: a9027bfd     	stp	x29, x30, [sp, #32]
    1228: 910083fd     	add	x29, sp, #32
    122c: 90000008     	adrp	x8, 0x1000 <RDMTod::Mute()+0xc>
    1230: f9400108     	ldr	x8, [x8]
    1234: f9400108     	ldr	x8, [x8]
    1238: f81f83a8     	stur	x8, [x29, #-8]
    123c: f9000be0     	str	x0, [sp, #16]
    1240: f9400be8     	ldr	x8, [sp, #16]
    1244: f90003e8     	str	x8, [sp]
    1248: b9400508     	ldr	w8, [x8, #4]
    124c: 31000508     	adds	w8, w8, #1
    1250: 1a9f07e8     	cset	w8, ne
    1254: 37000068     	tbnz	w8, #0, 0x1260 <RDMTod::Mute()+0x40>
    1258: 14000001     	b	0x125c <RDMTod::Mute()+0x3c>
    125c: 14000014     	b	0x12ac <RDMTod::Mute()+0x8c>
    1260: f94003e8     	ldr	x8, [sp]
    1264: b9400509     	ldr	w9, [x8, #4]
    1268: 5280040a     	mov	w10, #32
    126c: 1aca0929     	udiv	w9, w9, w10
    1270: b9000fe9     	str	w9, [sp, #12]
    1274: b9400509     	ldr	w9, [x8, #4]
    1278: b9400fea     	ldr	w10, [sp, #12]
    127c: 6b0a1529     	subs	w9, w9, w10, lsl #5
    1280: b9000be9     	str	w9, [sp, #8]
    1284: b9400bea     	ldr	w10, [sp, #8]
    1288: 52800029     	mov	w9, #1
    128c: 1aca212a     	lsl	w10, w9, w10
    1290: 91002108     	add	x8, x8, #8
    1294: b9400fe9     	ldr	w9, [sp, #12]
    1298: 8b090909     	add	x9, x8, x9, lsl #2
    129c: b9400128     	ldr	w8, [x9]
    12a0: 2a0a0108     	orr	w8, w8, w10
    12a4: b9000128     	str	w8, [x9]
    12a8: 14000001     	b	0x12ac <RDMTod::Mute()+0x8c>
    12ac: f85f83a9     	ldur	x9, [x29, #-8]
    12b0: 90000008     	adrp	x8, 0x1000 <RDMTod::Mute()+0x90>
    12b4: f9400108     	ldr	x8, [x8]
    12b8: f9400108     	ldr	x8, [x8]
    12bc: eb090108     	subs	x8, x8, x9
    12c0: 1a9f17e8     	cset	w8, eq
    12c4: 37000068     	tbnz	w8, #0, 0x12d0 <RDMTod::Mute()+0xb0>
    12c8: 14000001     	b	0x12cc <RDMTod::Mute()+0xac>
    12cc: 94000000     	bl	0x12cc <RDMTod::Mute()+0xac>
    12d0: a9427bfd     	ldp	x29, x30, [sp, #32]
    12d4: 9100c3ff     	add	sp, sp, #48
    12d8: d65f03c0     	ret

00000000000012dc <ArtNetRdmController::~ArtNetRdmController()>:
    12dc: d100c3ff     	sub	sp, sp, #48
    12e0: a9027bfd     	stp	x29, x30, [sp, #32]
    12e4: 910083fd     	add	x29, sp, #32
    12e8: 90000008     	adrp	x8, 0x1000 <ArtNetRdmController::~ArtNetRdmController()+0xc>
    12ec: f9400108     	ldr	x8, [x8]
    12f0: f9400108     	ldr	x8, [x8]
    12f4: f81f83a8     	stur	x8, [x29, #-8]
    12f8: f9000be0     	str	x0, [sp, #16]
    12fc: f9400be0     	ldr	x0, [sp, #16]
    1300: f90007e0     	str	x0, [sp, #8]
    1304: 94000000     	bl	0x1304 <ArtNetRdmController::~ArtNetRdmController()+0x28>
    1308: f85f83a9     	ldur	x9, [x29, #-8]
    130c: 90000008     	adrp	x8, 0x1000 <ArtNetRdmController::~ArtNetRdmController()+0x30>
    1310: f9400108     	ldr	x8, [x8]
    1314: f9400108     	ldr	x8, [x8]
    1318: eb090108     	subs	x8, x8, x9
    131c: 1a9f17e8     	cset	w8, eq
    1320: 37000068     	tbnz	w8, #0, 0x132c <ArtNetRdmController::~ArtNetRdmController()+0x50>
    1324: 14000001     	b	0x1328 <ArtNetRdmController::~ArtNetRdmController()+0x4c>
    1328: 94000000     	bl	0x1328 <ArtNetRdmController::~ArtNetRdmController()+0x4c>
    132c: f94007e0     	ldr	x0, [sp, #8]
    1330: a9427bfd     	ldp	x29, x30, [sp, #32]
    1334: 9100c3ff     	add	sp, sp, #48
    1338: d65f03c0     	ret

000000000000133c <ArtNetRdmController::~ArtNetRdmController()>:
    133c: d100c3ff     	sub	sp, sp, #48
    1340: a9027bfd     	stp	x29, x30, [sp, #32]
    1344: 910083fd     	add	x29, sp, #32
    1348: 90000008     	adrp	x8, 0x1000 <ArtNetRdmController::~ArtNetRdmController()+0xc>
    134c: f9400108     	ldr	x8, [x8]
    1350: f9400108     	ldr	x8, [x8]
    1354: f81f83a8     	stur	x8, [x29, #-8]
    1358: f9000be0     	str	x0, [sp, #16]
    135c: f9400be0     	ldr	x0, [sp, #16]
    1360: f90007e0     	str	x0, [sp, #8]
    1364: 94000000     	bl	0x1364 <ArtNetRdmController::~ArtNetRdmController()+0x28>
    1368: f94007e0     	ldr	x0, [sp, #8]
    136c: 94000000     	bl	0x136c <ArtNetRdmController::~ArtNetRdmController()+0x30>
    1370: f85f83a9     	ldur	x9, [x29, #-8]
    1374: 90000008     	adrp	x8, 0x1000 <ArtNetRdmController::~ArtNetRdmController()+0x38>
    1378: f9400108     	ldr	x8, [x8]
    137c: f9400108     	ldr	x8, [x8]
    1380: eb090108     	subs	x8, x8, x9
    1384: 1a9f17e8     	cset	w8, eq
    1388: 37000068     	tbnz	w8, #0, 0x1394 <ArtNetRdmController::~ArtNetRdmController()+0x58>
    138c: 14000001     	b	0x1390 <ArtNetRdmController::~ArtNetRdmController()+0x54>
    1390: 94000000     	bl	0x1390 <ArtNetRdmController::~ArtNetRdmController()+0x54>
    1394: a9427bfd     	ldp	x29, x30, [sp, #32]
    1398: 9100c3ff     	add	sp, sp, #48
    139c: d65f03c0     	ret

00000000000013a0 <ArtNetRdmController::Full(unsigned int)>:
    13a0: d10143ff     	sub	sp, sp, #80
    13a4: a9047bfd     	stp	x29, x30, [sp, #64]
    13a8: 910103fd     	add	x29, sp, #64
    13ac: 90000008     	adrp	x8, 0x1000 <ArtNetRdmController::Full(unsigned int)+0xc>
    13b0: f9400108     	ldr	x8, [x8]
    13b4: f9400108     	ldr	x8, [x8]
    13b8: f81f83a8     	stur	x8, [x29, #-8]
    13bc: f81f03a0     	stur	x0, [x29, #-16]
    13c0: b81ec3a1     	stur	w1, [x29, #-20]
    13c4: f85f03a8     	ldur	x8, [x29, #-16]
    13c8: f90013e8     	str	x8, [sp, #32]
    13cc: 910003e9     	mov	x9, sp
    13d0: 90000008     	adrp	x8, 0x1000 <ArtNetRdmController::Full(unsigned int)+0x30>
    13d4: 91000108     	add	x8, x8, #0
    13d8: f9000128     	str	x8, [x9]
    13dc: 90000008     	adrp	x8, 0x1000 <ArtNetRdmController::Full(unsigned int)+0x3c>
    13e0: 91000108     	add	x8, x8, #0
    13e4: f9000528     	str	x8, [x9, #8]
    13e8: d2800768     	mov	x8, #59
    13ec: f9000928     	str	x8, [x9, #16]
    13f0: 90000000     	adrp	x0, 0x1000 <ArtNetRdmController::Full(unsigned int)+0x50>
    13f4: 91000000     	add	x0, x0, #0
    13f8: 94000000     	bl	0x13f8 <ArtNetRdmController::Full(unsigned int)+0x58>
    13fc: b85ec3a8     	ldur	w8, [x29, #-20]
    1400: 71001108     	subs	w8, w8, #4
    1404: 1a9f27e8     	cset	w8, lo
    1408: 37000148     	tbnz	w8, #0, 0x1430 <ArtNetRdmController::Full(unsigned int)+0x90>
    140c: 14000001     	b	0x1410 <ArtNetRdmController::Full(unsigned int)+0x70>
    1410: 90000000     	adrp	x0, 0x1000 <ArtNetRdmController::Full(unsigned int)+0x70>
    1414: 91000000     	add	x0, x0, #0
    1418: 90000001     	adrp	x1, 0x1000 <ArtNetRdmController::Full(unsigned int)+0x78>
    141c: 91000021     	add	x1, x1, #0
    1420: 52800782     	mov	w2, #60
    1424: 90000003     	adrp	x3, 0x1000 <ArtNetRdmController::Full(unsigned int)+0x84>
    1428: 91000063     	add	x3, x3, #0
    142c: 94000000     	bl	0x142c <ArtNetRdmController::Full(unsigned int)+0x8c>
    1430: 14000001     	b	0x1434 <ArtNetRdmController::Full(unsigned int)+0x94>
    1434: f94013e8     	ldr	x8, [sp, #32]
    1438: 9101a100     	add	x0, x8, #104
    143c: b85ec3a1     	ldur	w1, [x29, #-20]
    1440: b85ec3a8     	ldur	w8, [x29, #-20]
    1444: d2809a89     	mov	x9, #1236
    1448: 9b097d09     	mul	x9, x8, x9
    144c: 90000008     	adrp	x8, 0x1000 <ArtNetRdmController::Full(unsigned int)+0xac>
    1450: 91000108     	add	x8, x8, #0
    1454: 8b090102     	add	x2, x8, x9
    1458: 94000000     	bl	0x1458 <ArtNetRdmController::Full(unsigned int)+0xb8>
    145c: 910003e9     	mov	x9, sp
    1460: 90000008     	adrp	x8, 0x1000 <ArtNetRdmController::Full(unsigned int)+0xc0>
    1464: 91000108     	add	x8, x8, #0
    1468: f9000128     	str	x8, [x9]
    146c: 90000008     	adrp	x8, 0x1000 <ArtNetRdmController::Full(unsigned int)+0xcc>
    1470: 91000108     	add	x8, x8, #0
    1474: f9000528     	str	x8, [x9, #8]
    1478: d28007c8     	mov	x8, #62
    147c: f9000928     	str	x8, [x9, #16]
    1480: 90000000     	adrp	x0, 0x1000 <ArtNetRdmController::Full(unsigned int)+0xe0>
    1484: 91000000     	add	x0, x0, #0
    1488: 94000000     	bl	0x1488 <ArtNetRdmController::Full(unsigned int)+0xe8>
    148c: f85f83a9     	ldur	x9, [x29, #-8]
    1490: 90000008     	adrp	x8, 0x1000 <ArtNetRdmController::Full(unsigned int)+0xf0>
    1494: f9400108     	ldr	x8, [x8]
    1498: f9400108     	ldr	x8, [x8]
    149c: eb090108     	subs	x8, x8, x9
    14a0: 1a9f17e8     	cset	w8, eq
    14a4: 37000068     	tbnz	w8, #0, 0x14b0 <ArtNetRdmController::Full(unsigned int)+0x110>
    14a8: 14000001     	b	0x14ac <ArtNetRdmController::Full(unsigned int)+0x10c>
    14ac: 94000000     	bl	0x14ac <ArtNetRdmController::Full(unsigned int)+0x10c>
    14b0: a9447bfd     	ldp	x29, x30, [sp, #64]
    14b4: 910143ff     	add	sp, sp, #80
    14b8: d65f03c0     	ret

00000000000014bc <ArtNetRdmController::GetUidCount(unsigned int)>:
    14bc: d100c3ff     	sub	sp, sp, #48
    14c0: a9027bfd     	stp	x29, x30, [sp, #32]
    14c4: 910083fd     	add	x29, sp, #32
    14c8: 90000008     	adrp	x8, 0x1000 <ArtNetRdmController::GetUidCount(unsigned int)+0xc>
    14cc: f9400108     	ldr	x8, [x8]
    14d0: f9400108     	ldr	x8, [x8]
    14d4: f81f83a8     	stur	x8, [x29, #-8]
    14d8: f9000be0     	str	x0, [sp, #16]
    14dc: b9000fe1     	str	w1, [sp, #12]
    14e0: b9400fe8     	ldr	w8, [sp, #12]
    14e4: 71001108     	subs	w8, w8, #4
    14e8: 1a9f27e8     	cset	w8, lo
    14ec: 37000148     	tbnz	w8, #0, 0x1514 <ArtNetRdmController::GetUidCount(unsigned int)+0x58>
    14f0: 14000001     	b	0x14f4 <ArtNetRdmController::GetUidCount(unsigned int)+0x38>
    14f4: 90000000     	adrp	x0, 0x1000 <ArtNetRdmController::GetUidCount(unsigned int)+0x38>
    14f8: 91000000     	add	x0, x0, #0
    14fc: 90000001     	adrp	x1, 0x1000 <ArtNetRdmController::GetUidCount(unsigned int)+0x40>
    1500: 91000021     	add	x1, x1, #0
    1504: 52800842     	mov	w2, #66
    1508: 90000003     	adrp	x3, 0x1000 <ArtNetRdmController::GetUidCount(unsigned int)+0x4c>
    150c: 91000063     	add	x3, x3, #0
    1510: 94000000     	bl	0x1510 <ArtNetRdmController::GetUidCount(unsigned int)+0x54>
    1514: 14000001     	b	0x1518 <ArtNetRdmController::GetUidCount(unsigned int)+0x5c>
    1518: b9400fe8     	ldr	w8, [sp, #12]
    151c: d2809a89     	mov	x9, #1236
    1520: 9b097d09     	mul	x9, x8, x9
    1524: 90000008     	adrp	x8, 0x1000 <ArtNetRdmController::GetUidCount(unsigned int)+0x68>
    1528: 91000108     	add	x8, x8, #0
    152c: 8b090100     	add	x0, x8, x9
    1530: 94000000     	bl	0x1530 <ArtNetRdmController::GetUidCount(unsigned int)+0x74>
    1534: b9000be0     	str	w0, [sp, #8]
    1538: f85f83a9     	ldur	x9, [x29, #-8]
    153c: 90000008     	adrp	x8, 0x1000 <ArtNetRdmController::GetUidCount(unsigned int)+0x80>
    1540: f9400108     	ldr	x8, [x8]
    1544: f9400108     	ldr	x8, [x8]
    1548: eb090108     	subs	x8, x8, x9
    154c: 1a9f17e8     	cset	w8, eq
    1550: 37000068     	tbnz	w8, #0, 0x155c <ArtNetRdmController::GetUidCount(unsigned int)+0xa0>
    1554: 14000001     	b	0x1558 <ArtNetRdmController::GetUidCount(unsigned int)+0x9c>
    1558: 94000000     	bl	0x1558 <ArtNetRdmController::GetUidCount(unsigned int)+0x9c>
    155c: b9400be0     	ldr	w0, [sp, #8]
    1560: a9427bfd     	ldp	x29, x30, [sp, #32]
    1564: 9100c3ff     	add	sp, sp, #48
    1568: d65f03c0     	ret

000000000000156c <ArtNetRdmController::TodCopy(unsigned int, unsigned char*)>:
    156c: d10143ff     	sub	sp, sp, #80
    1570: a9047bfd     	stp	x29, x30, [sp, #64]
    1574: 910103fd     	add	x29, sp, #64
    1578: 90000008     	adrp	x8, 0x1000 <ArtNetRdmController::TodCopy(unsigned int, unsigned char*)+0xc>
    157c: f9400108     	ldr	x8, [x8]
    1580: f9400108     	ldr	x8, [x8]
    1584: f81f83a8     	stur	x8, [x29, #-8]
    1588: f81f03a0     	stur	x0, [x29, #-16]
    158c: b81ec3a1     	stur	w1, [x29, #-20]
    1590: f90013e2     	str	x2, [sp, #32]
    1594: 910003e9     	mov	x9, sp
    1598: 90000008     	adrp	x8, 0x1000 <ArtNetRdmController::TodCopy(unsigned int, unsigned char*)+0x2c>
    159c: 91000108     	add	x8, x8, #0
    15a0: f9000128     	str	x8, [x9]
    15a4: 90000008     	adrp	x8, 0x1000 <ArtNetRdmController::TodCopy(unsigned int, unsigned char*)+0x38>
    15a8: 91000108     	add	x8, x8, #0
    15ac: f9000528     	str	x8, [x9, #8]
    15b0: d28008e8     	mov	x8, #71
    15b4: f9000928     	str	x8, [x9, #16]
    15b8: 90000000     	adrp	x0, 0x1000 <ArtNetRdmController::TodCopy(unsigned int, unsigned char*)+0x4c>
    15bc: 91000000     	add	x0, x0, #0
    15c0: 94000000     	bl	0x15c0 <ArtNetRdmController::TodCopy(unsigned int, unsigned char*)+0x54>
    15c4: b85ec3a8     	ldur	w8, [x29, #-20]
    15c8: 71001108     	subs	w8, w8, #4
    15cc: 1a9f27e8     	cset	w8, lo
    15d0: 37000148     	tbnz	w8, #0, 0x15f8 <ArtNetRdmController::TodCopy(unsigned int, unsigned char*)+0x8c>
    15d4: 14000001     	b	0x15d8 <ArtNetRdmController::TodCopy(unsigned int, unsigned char*)+0x6c>
    15d8: 90000000     	adrp	x0, 0x1000 <ArtNetRdmController::TodCopy(unsigned int, unsigned char*)+0x6c>
    15dc: 91000000     	add	x0, x0, #0
    15e0: 90000001     	adrp	x1, 0x1000 <ArtNetRdmController::TodCopy(unsigned int, unsigned char*)+0x74>
    15e4: 91000021     	add	x1, x1, #0
    15e8: 52800902     	mov	w2, #72
    15ec: 90000003     	adrp	x3, 0x1000 <ArtNetRdmController::TodCopy(unsigned int, unsigned char*)+0x80>
    15f0: 91000063     	add	x3, x3, #0
    15f4: 94000000     	bl	0x15f4 <ArtNetRdmController::TodCopy(unsigned int, unsigned char*)+0x88>
    15f8: 14000001     	b	0x15fc <ArtNetRdmController::TodCopy(unsigned int, unsigned char*)+0x90>
    15fc: b85ec3a8     	ldur	w8, [x29, #-20]
    1600: d2809a89     	mov	x9, #1236
    1604: 9b097d09     	mul	x9, x8, x9
    1608: 90000008     	adrp	x8, 0x1000 <ArtNetRdmController::TodCopy(unsigned int, unsigned char*)+0x9c>
    160c: 91000108     	add	x8, x8, #0
    1610: 8b090100     	add	x0, x8, x9
    1614: f94013e1     	ldr	x1, [sp, #32]
    1618: 94000000     	bl	0x1618 <ArtNetRdmController::TodCopy(unsigned int, unsigned char*)+0xac>
    161c: 910003e9     	mov	x9, sp
    1620: 90000008     	adrp	x8, 0x1000 <ArtNetRdmController::TodCopy(unsigned int, unsigned char*)+0xb4>
    1624: 91000108     	add	x8, x8, #0
    1628: f9000128     	str	x8, [x9]
    162c: 90000008     	adrp	x8, 0x1000 <ArtNetRdmController::TodCopy(unsigned int, unsigned char*)+0xc0>
    1630: 91000108     	add	x8, x8, #0
    1634: f9000528     	str	x8, [x9, #8]
    1638: d2800948     	mov	x8, #74
    163c: f9000928     	str	x8, [x9, #16]
    1640: 90000000     	adrp	x0, 0x1000 <ArtNetRdmController::TodCopy(unsigned int, unsigned char*)+0xd4>
    1644: 91000000     	add	x0, x0, #0
    1648: 94000000     	bl	0x1648 <ArtNetRdmController::TodCopy(unsigned int, unsigned char*)+0xdc>
    164c: f85f83a9     	ldur	x9, [x29, #-8]
    1650: 90000008     	adrp	x8, 0x1000 <ArtNetRdmController::TodCopy(unsigned int, unsigned char*)+0xe4>
    1654: f9400108     	ldr	x8, [x8]
    1658: f9400108     	ldr	x8, [x8]
    165c: eb090108     	subs	x8, x8, x9
    1660: 1a9f17e8     	cset	w8, eq
    1664: 37000068     	tbnz	w8, #0, 0x1670 <ArtNetRdmController::TodCopy(unsigned int, unsigned char*)+0x104>
    1668: 14000001     	b	0x166c <ArtNetRdmController::TodCopy(unsigned int, unsigned char*)+0x100>
    166c: 94000000     	bl	0x166c <ArtNetRdmController::TodCopy(unsigned int, unsigned char*)+0x100>
    1670: a9447bfd     	ldp	x29, x30, [sp, #64]
    1674: 910143ff     	add	sp, sp, #80
    1678: d65f03c0     	ret

000000000000167c <ArtNetRdmController::TodReset(unsigned int)>:
    167c: d100c3ff     	sub	sp, sp, #48
    1680: a9027bfd     	stp	x29, x30, [sp, #32]
    1684: 910083fd     	add	x29, sp, #32
    1688: 90000008     	adrp	x8, 0x1000 <ArtNetRdmController::TodReset(unsigned int)+0xc>
    168c: f9400108     	ldr	x8, [x8]
    1690: f9400108     	ldr	x8, [x8]
    1694: f81f83a8     	stur	x8, [x29, #-8]
    1698: f9000be0     	str	x0, [sp, #16]
    169c: b9000fe1     	str	w1, [sp, #12]
    16a0: b9400fe8     	ldr	w8, [sp, #12]
    16a4: 71001108     	subs	w8, w8, #4
    16a8: 1a9f27e8     	cset	w8, lo
    16ac: 37000148     	tbnz	w8, #0, 0x16d4 <ArtNetRdmController::TodReset(unsigned int)+0x58>
    16b0: 14000001     	b	0x16b4 <ArtNetRdmController::TodReset(unsigned int)+0x38>
    16b4: 90000000     	adrp	x0, 0x1000 <ArtNetRdmController::TodReset(unsigned int)+0x38>
    16b8: 91000000     	add	x0, x0, #0
    16bc: 90000001     	adrp	x1, 0x1000 <ArtNetRdmController::TodReset(unsigned int)+0x40>
    16c0: 91000021     	add	x1, x1, #0
    16c4: 52800a42     	mov	w2, #82
    16c8: 90000003     	adrp	x3, 0x1000 <ArtNetRdmController::TodReset(unsigned int)+0x4c>
    16cc: 91000063     	add	x3, x3, #0
    16d0: 94000000     	bl	0x16d0 <ArtNetRdmController::TodReset(unsigned int)+0x54>
    16d4: 14000001     	b	0x16d8 <ArtNetRdmController::TodReset(unsigned int)+0x5c>
    16d8: b9400fe8     	ldr	w8, [sp, #12]
    16dc: d2809a89     	mov	x9, #1236
    16e0: 9b097d09     	mul	x9, x8, x9
    16e4: 90000008     	adrp	x8, 0x1000 <ArtNetRdmController::TodReset(unsigned int)+0x68>
    16e8: 91000108     	add	x8, x8, #0
    16ec: 8b090100     	add	x0, x8, x9
    16f0: 94000000     	bl	0x16f0 <ArtNetRdmController::TodReset(unsigned int)+0x74>
    16f4: f85f83a9     	ldur	x9, [x29, #-8]
    16f8: 90000008     	adrp	x8, 0x1000 <ArtNetRdmController::TodReset(unsigned int)+0x7c>
    16fc: f9400108     	ldr	x8, [x8]
    1700: f9400108     	ldr	x8, [x8]
    1704: eb090108     	subs	x8, x8, x9
    1708: 1a9f17e8     	cset	w8, eq
    170c: 37000068     	tbnz	w8, #0, 0x1718 <ArtNetRdmController::TodReset(unsigned int)+0x9c>
    1710: 14000001     	b	0x1714 <ArtNetRdmController::TodReset(unsigned int)+0x98>
    1714: 94000000     	bl	0x1714 <ArtNetRdmController::TodReset(unsigned int)+0x98>
    1718: a9427bfd     	ldp	x29, x30, [sp, #32]
    171c: 9100c3ff     	add	sp, sp, #48
    1720: d65f03c0     	ret

0000000000001724 <ArtNetRdmController::TodAddUid(unsigned int, unsigned char const*)>:
    1724: d10103ff     	sub	sp, sp, #64
    1728: a9037bfd     	stp	x29, x30, [sp, #48]
    172c: 9100c3fd     	add	x29, sp, #48
    1730: 90000008     	adrp	x8, 0x1000 <ArtNetRdmController::TodAddUid(unsigned int, unsigned char const*)+0xc>
    1734: f9400108     	ldr	x8, [x8]
    1738: f9400108     	ldr	x8, [x8]
    173c: f81f83a8     	stur	x8, [x29, #-8]
    1740: f81f03a0     	stur	x0, [x29, #-16]
    1744: b81ec3a1     	stur	w1, [x29, #-20]
    1748: f9000be2     	str	x2, [sp, #16]
    174c: b85ec3a8     	ldur	w8, [x29, #-20]
    1750: d2809a89     	mov	x9, #1236
    1754: 9b097d09     	mul	x9, x8, x9
    1758: f9400be1     	ldr	x1, [sp, #16]
    175c: 90000008     	adrp	x8, 0x1000 <ArtNetRdmController::TodAddUid(unsigned int, unsigned char const*)+0x38>
    1760: 91000108     	add	x8, x8, #0
    1764: 8b090100     	add	x0, x8, x9
    1768: 94000000     	bl	0x1768 <ArtNetRdmController::TodAddUid(unsigned int, unsigned char const*)+0x44>
    176c: b9000fe0     	str	w0, [sp, #12]
    1770: f85f83a9     	ldur	x9, [x29, #-8]
    1774: 90000008     	adrp	x8, 0x1000 <ArtNetRdmController::TodAddUid(unsigned int, unsigned char const*)+0x50>
    1778: f9400108     	ldr	x8, [x8]
    177c: f9400108     	ldr	x8, [x8]
    1780: eb090108     	subs	x8, x8, x9
    1784: 1a9f17e8     	cset	w8, eq
    1788: 37000068     	tbnz	w8, #0, 0x1794 <ArtNetRdmController::TodAddUid(unsigned int, unsigned char const*)+0x70>
    178c: 14000001     	b	0x1790 <ArtNetRdmController::TodAddUid(unsigned int, unsigned char const*)+0x6c>
    1790: 94000000     	bl	0x1790 <ArtNetRdmController::TodAddUid(unsigned int, unsigned char const*)+0x6c>
    1794: b9400fe8     	ldr	w8, [sp, #12]
    1798: 12000100     	and	w0, w8, #0x1
    179c: a9437bfd     	ldp	x29, x30, [sp, #48]
    17a0: 910103ff     	add	sp, sp, #64
    17a4: d65f03c0     	ret

00000000000017a8 <RDMTod::RDMTod()>:
    17a8: d10103ff     	sub	sp, sp, #64
    17ac: a9037bfd     	stp	x29, x30, [sp, #48]
    17b0: 9100c3fd     	add	x29, sp, #48
    17b4: 90000008     	adrp	x8, 0x1000 <RDMTod::RDMTod()+0xc>
    17b8: f9400108     	ldr	x8, [x8]
    17bc: f9400108     	ldr	x8, [x8]
    17c0: f81f83a8     	stur	x8, [x29, #-8]
    17c4: f9000fe0     	str	x0, [sp, #24]
    17c8: f9400fe9     	ldr	x9, [sp, #24]
    17cc: f90007e9     	str	x9, [sp, #8]
    17d0: aa0903e8     	mov	x8, x9
    17d4: f81f03a8     	stur	x8, [x29, #-16]
    17d8: b900013f     	str	wzr, [x9]
    17dc: 12800008     	mov	w8, #-1
    17e0: b9000528     	str	w8, [x9, #4]
    17e4: b90017ff     	str	wzr, [sp, #20]
    17e8: 14000001     	b	0x17ec <RDMTod::RDMTod()+0x44>
    17ec: b94017e8     	ldr	w8, [sp, #20]
    17f0: 71032108     	subs	w8, w8, #200
    17f4: 1a9f37e8     	cset	w8, hs
    17f8: 37000288     	tbnz	w8, #0, 0x1848 <RDMTod::RDMTod()+0xa0>
    17fc: 14000001     	b	0x1800 <RDMTod::RDMTod()+0x58>
    1800: f94007e8     	ldr	x8, [sp, #8]
    1804: 91009108     	add	x8, x8, #36
    1808: b94017e9     	ldr	w9, [sp, #20]
    180c: d28000ca     	mov	x10, #6
    1810: 9b0a7d29     	mul	x9, x9, x10
    1814: 8b090109     	add	x9, x8, x9
    1818: 9000000a     	adrp	x10, 0x1000 <RDMTod::RDMTod()+0x70>
    181c: 90000008     	adrp	x8, 0x1000 <RDMTod::RDMTod()+0x74>
    1820: 91000108     	add	x8, x8, #0
    1824: b940014a     	ldr	w10, [x10]
    1828: b900012a     	str	w10, [x9]
    182c: 79400908     	ldrh	w8, [x8, #4]
    1830: 79000928     	strh	w8, [x9, #4]
    1834: 14000001     	b	0x1838 <RDMTod::RDMTod()+0x90>
    1838: b94017e8     	ldr	w8, [sp, #20]
    183c: 11000508     	add	w8, w8, #1
    1840: b90017e8     	str	w8, [sp, #20]
    1844: 17ffffea     	b	0x17ec <RDMTod::RDMTod()+0x44>
    1848: b90013ff     	str	wzr, [sp, #16]
    184c: 14000001     	b	0x1850 <RDMTod::RDMTod()+0xa8>
    1850: b94013e8     	ldr	w8, [sp, #16]
    1854: 71001d08     	subs	w8, w8, #7
    1858: 1a9f37e8     	cset	w8, hs
    185c: 370001a8     	tbnz	w8, #0, 0x1890 <RDMTod::RDMTod()+0xe8>
    1860: 14000001     	b	0x1864 <RDMTod::RDMTod()+0xbc>
    1864: f94007e8     	ldr	x8, [sp, #8]
    1868: 91002109     	add	x9, x8, #8
    186c: b94013e8     	ldr	w8, [sp, #16]
    1870: aa0803ea     	mov	x10, x8
    1874: 52800008     	mov	w8, #0
    1878: b82a7928     	str	w8, [x9, x10, lsl  #2]
    187c: 14000001     	b	0x1880 <RDMTod::RDMTod()+0xd8>
    1880: b94013e8     	ldr	w8, [sp, #16]
    1884: 11000508     	add	w8, w8, #1
    1888: b90013e8     	str	w8, [sp, #16]
    188c: 17fffff1     	b	0x1850 <RDMTod::RDMTod()+0xa8>
    1890: f85f03a8     	ldur	x8, [x29, #-16]
    1894: f90003e8     	str	x8, [sp]
    1898: f85f83a9     	ldur	x9, [x29, #-8]
    189c: 90000008     	adrp	x8, 0x1000 <RDMTod::RDMTod()+0xf4>
    18a0: f9400108     	ldr	x8, [x8]
    18a4: f9400108     	ldr	x8, [x8]
    18a8: eb090108     	subs	x8, x8, x9
    18ac: 1a9f17e8     	cset	w8, eq
    18b0: 37000068     	tbnz	w8, #0, 0x18bc <RDMTod::RDMTod()+0x114>
    18b4: 14000001     	b	0x18b8 <RDMTod::RDMTod()+0x110>
    18b8: 94000000     	bl	0x18b8 <RDMTod::RDMTod()+0x110>
    18bc: f94003e0     	ldr	x0, [sp]
    18c0: a9437bfd     	ldp	x29, x30, [sp, #48]
    18c4: 910103ff     	add	sp, sp, #64
    18c8: d65f03c0     	ret

00000000000018cc <RDMTod::~RDMTod()>:
    18cc: d100c3ff     	sub	sp, sp, #48
    18d0: a9027bfd     	stp	x29, x30, [sp, #32]
    18d4: 910083fd     	add	x29, sp, #32
    18d8: 90000008     	adrp	x8, 0x1000 <RDMTod::~RDMTod()+0xc>
    18dc: f9400108     	ldr	x8, [x8]
    18e0: f9400108     	ldr	x8, [x8]
    18e4: f81f83a8     	stur	x8, [x29, #-8]
    18e8: f9000be0     	str	x0, [sp, #16]
    18ec: f9400be8     	ldr	x8, [sp, #16]
    18f0: f90007e8     	str	x8, [sp, #8]
    18f4: f85f83a9     	ldur	x9, [x29, #-8]
    18f8: 90000008     	adrp	x8, 0x1000 <RDMTod::~RDMTod()+0x2c>
    18fc: f9400108     	ldr	x8, [x8]
    1900: f9400108     	ldr	x8, [x8]
    1904: eb090108     	subs	x8, x8, x9
    1908: 1a9f17e8     	cset	w8, eq
    190c: 37000068     	tbnz	w8, #0, 0x1918 <RDMTod::~RDMTod()+0x4c>
    1910: 14000001     	b	0x1914 <RDMTod::~RDMTod()+0x48>
    1914: 94000000     	bl	0x1914 <RDMTod::~RDMTod()+0x48>
    1918: f94007e0     	ldr	x0, [sp, #8]
    191c: a9427bfd     	ldp	x29, x30, [sp, #32]
    1920: 9100c3ff     	add	sp, sp, #48
    1924: d65f03c0     	ret

0000000000001928 <ArtNetRdm::~ArtNetRdm()>:
    1928: d10043ff     	sub	sp, sp, #16
    192c: f90003e0     	str	x0, [sp]
    1930: f94003e8     	ldr	x8, [sp]
    1934: f90007e8     	str	x8, [sp, #8]
    1938: d4200020     	brk	#0x1

000000000000193c <ArtNetRdm::~ArtNetRdm()>:
    193c: d10043ff     	sub	sp, sp, #16
    1940: f90007e0     	str	x0, [sp, #8]
    1944: d4200020     	brk	#0x1

0000000000001948 <ArtNetRdmController::~ArtNetRdmController()>:
    1948: d10143ff     	sub	sp, sp, #80
    194c: a9047bfd     	stp	x29, x30, [sp, #64]
    1950: 910103fd     	add	x29, sp, #64
    1954: 90000008     	adrp	x8, 0x1000 <ArtNetRdmController::~ArtNetRdmController()+0xc>
    1958: f9400108     	ldr	x8, [x8]
    195c: f9400108     	ldr	x8, [x8]
    1960: f81f83a8     	stur	x8, [x29, #-8]
    1964: f81f03a0     	stur	x0, [x29, #-16]
    1968: f85f03a8     	ldur	x8, [x29, #-16]
    196c: f81e83a8     	stur	x8, [x29, #-24]
    1970: 910003e9     	mov	x9, sp
    1974: 90000008     	adrp	x8, 0x1000 <ArtNetRdmController::~ArtNetRdmController()+0x2c>
    1978: 91000108     	add	x8, x8, #0
    197c: f9000fe8     	str	x8, [sp, #24]
    1980: f9000128     	str	x8, [x9]
    1984: 90000008     	adrp	x8, 0x1000 <ArtNetRdmController::~ArtNetRdmController()+0x3c>
    1988: 91000108     	add	x8, x8, #0
    198c: f90013e8     	str	x8, [sp, #32]
    1990: f9000528     	str	x8, [x9, #8]
    1994: d28005c8     	mov	x8, #46
    1998: f9000928     	str	x8, [x9, #16]
    199c: 90000000     	adrp	x0, 0x1000 <ArtNetRdmController::~ArtNetRdmController()+0x54>
    19a0: 91000000     	add	x0, x0, #0
    19a4: 94000000     	bl	0x19a4 <ArtNetRdmController::~ArtNetRdmController()+0x5c>
    19a8: f9400fea     	ldr	x10, [sp, #24]
    19ac: f94013e8     	ldr	x8, [sp, #32]
    19b0: 910003e9     	mov	x9, sp
    19b4: f900012a     	str	x10, [x9]
    19b8: f9000528     	str	x8, [x9, #8]
    19bc: d28005e8     	mov	x8, #47
    19c0: f9000928     	str	x8, [x9, #16]
    19c4: 90000000     	adrp	x0, 0x1000 <ArtNetRdmController::~ArtNetRdmController()+0x7c>
    19c8: 91000000     	add	x0, x0, #0
    19cc: 94000000     	bl	0x19cc <ArtNetRdmController::~ArtNetRdmController()+0x84>
    19d0: f85e83a0     	ldur	x0, [x29, #-24]
    19d4: 94000000     	bl	0x19d4 <ArtNetRdmController::~ArtNetRdmController()+0x8c>
    19d8: f85e83a8     	ldur	x8, [x29, #-24]
    19dc: 91002100     	add	x0, x8, #8
    19e0: 94000000     	bl	0x19e0 <ArtNetRdmController::~ArtNetRdmController()+0x98>
    19e4: f85f83a9     	ldur	x9, [x29, #-8]
    19e8: 90000008     	adrp	x8, 0x1000 <ArtNetRdmController::~ArtNetRdmController()+0xa0>
    19ec: f9400108     	ldr	x8, [x8]
    19f0: f9400108     	ldr	x8, [x8]
    19f4: eb090108     	subs	x8, x8, x9
    19f8: 1a9f17e8     	cset	w8, eq
    19fc: 37000068     	tbnz	w8, #0, 0x1a08 <ArtNetRdmController::~ArtNetRdmController()+0xc0>
    1a00: 14000001     	b	0x1a04 <ArtNetRdmController::~ArtNetRdmController()+0xbc>
    1a04: 94000000     	bl	0x1a04 <ArtNetRdmController::~ArtNetRdmController()+0xbc>
    1a08: f85e83a0     	ldur	x0, [x29, #-24]
    1a0c: a9447bfd     	ldp	x29, x30, [sp, #64]
    1a10: 910143ff     	add	sp, sp, #80
    1a14: d65f03c0     	ret

0000000000001a18 <ArtNetRdm::~ArtNetRdm()>:
    1a18: d100c3ff     	sub	sp, sp, #48
    1a1c: a9027bfd     	stp	x29, x30, [sp, #32]
    1a20: 910083fd     	add	x29, sp, #32
    1a24: 90000008     	adrp	x8, 0x1000 <ArtNetRdm::~ArtNetRdm()+0xc>
    1a28: f9400108     	ldr	x8, [x8]
    1a2c: f9400108     	ldr	x8, [x8]
    1a30: f81f83a8     	stur	x8, [x29, #-8]
    1a34: f9000be0     	str	x0, [sp, #16]
    1a38: f9400be8     	ldr	x8, [sp, #16]
    1a3c: f90007e8     	str	x8, [sp, #8]
    1a40: f85f83a9     	ldur	x9, [x29, #-8]
    1a44: 90000008     	adrp	x8, 0x1000 <ArtNetRdm::~ArtNetRdm()+0x2c>
    1a48: f9400108     	ldr	x8, [x8]
    1a4c: f9400108     	ldr	x8, [x8]
    1a50: eb090108     	subs	x8, x8, x9
    1a54: 1a9f17e8     	cset	w8, eq
    1a58: 37000068     	tbnz	w8, #0, 0x1a64 <ArtNetRdm::~ArtNetRdm()+0x4c>
    1a5c: 14000001     	b	0x1a60 <ArtNetRdm::~ArtNetRdm()+0x48>
    1a60: 94000000     	bl	0x1a60 <ArtNetRdm::~ArtNetRdm()+0x48>
    1a64: f94007e0     	ldr	x0, [sp, #8]
    1a68: a9427bfd     	ldp	x29, x30, [sp, #32]
    1a6c: 9100c3ff     	add	sp, sp, #48
    1a70: d65f03c0     	ret

0000000000001a74 <RDMDeviceController::~RDMDeviceController()>:
    1a74: d10143ff     	sub	sp, sp, #80
    1a78: a9047bfd     	stp	x29, x30, [sp, #64]
    1a7c: 910103fd     	add	x29, sp, #64
    1a80: 90000008     	adrp	x8, 0x1000 <RDMDeviceController::~RDMDeviceController()+0xc>
    1a84: f9400108     	ldr	x8, [x8]
    1a88: f9400108     	ldr	x8, [x8]
    1a8c: f81f83a8     	stur	x8, [x29, #-8]
    1a90: f81f03a0     	stur	x0, [x29, #-16]
    1a94: f85f03a8     	ldur	x8, [x29, #-16]
    1a98: f9000fe8     	str	x8, [sp, #24]
    1a9c: 910003e9     	mov	x9, sp
    1aa0: 90000008     	adrp	x8, 0x1000 <RDMDeviceController::~RDMDeviceController()+0x2c>
    1aa4: 91000108     	add	x8, x8, #0
    1aa8: f90013e8     	str	x8, [sp, #32]
    1aac: f9000128     	str	x8, [x9]
    1ab0: 90000008     	adrp	x8, 0x1000 <RDMDeviceController::~RDMDeviceController()+0x3c>
    1ab4: 91000108     	add	x8, x8, #0
    1ab8: f81e83a8     	stur	x8, [x29, #-24]
    1abc: f9000528     	str	x8, [x9, #8]
    1ac0: d2800528     	mov	x8, #41
    1ac4: f9000928     	str	x8, [x9, #16]
    1ac8: 90000000     	adrp	x0, 0x1000 <RDMDeviceController::~RDMDeviceController()+0x54>
    1acc: 91000000     	add	x0, x0, #0
    1ad0: 94000000     	bl	0x1ad0 <RDMDeviceController::~RDMDeviceController()+0x5c>
    1ad4: f94013ea     	ldr	x10, [sp, #32]
    1ad8: f85e83a8     	ldur	x8, [x29, #-24]
    1adc: 910003e9     	mov	x9, sp
    1ae0: f900012a     	str	x10, [x9]
    1ae4: f9000528     	str	x8, [x9, #8]
    1ae8: d2800548     	mov	x8, #42
    1aec: f9000928     	str	x8, [x9, #16]
    1af0: 90000000     	adrp	x0, 0x1000 <RDMDeviceController::~RDMDeviceController()+0x7c>
    1af4: 91000000     	add	x0, x0, #0
    1af8: 94000000     	bl	0x1af8 <RDMDeviceController::~RDMDeviceController()+0x84>
    1afc: f85f83a9     	ldur	x9, [x29, #-8]
    1b00: 90000008     	adrp	x8, 0x1000 <RDMDeviceController::~RDMDeviceController()+0x8c>
    1b04: f9400108     	ldr	x8, [x8]
    1b08: f9400108     	ldr	x8, [x8]
    1b0c: eb090108     	subs	x8, x8, x9
    1b10: 1a9f17e8     	cset	w8, eq
    1b14: 37000068     	tbnz	w8, #0, 0x1b20 <RDMDeviceController::~RDMDeviceController()+0xac>
    1b18: 14000001     	b	0x1b1c <RDMDeviceController::~RDMDeviceController()+0xa8>
    1b1c: 94000000     	bl	0x1b1c <RDMDeviceController::~RDMDeviceController()+0xa8>
    1b20: f9400fe0     	ldr	x0, [sp, #24]
    1b24: a9447bfd     	ldp	x29, x30, [sp, #64]
    1b28: 910143ff     	add	sp, sp, #80
    1b2c: d65f03c0     	ret

0000000000001b30 <RDMTod::GetUidCount() const>:
    1b30: d100c3ff     	sub	sp, sp, #48
    1b34: a9027bfd     	stp	x29, x30, [sp, #32]
    1b38: 910083fd     	add	x29, sp, #32
    1b3c: 90000008     	adrp	x8, 0x1000 <RDMTod::GetUidCount() const+0xc>
    1b40: f9400108     	ldr	x8, [x8]
    1b44: f9400108     	ldr	x8, [x8]
    1b48: f81f83a8     	stur	x8, [x29, #-8]
    1b4c: f9000be0     	str	x0, [sp, #16]
    1b50: f9400be8     	ldr	x8, [sp, #16]
    1b54: b9400108     	ldr	w8, [x8]
    1b58: b9000fe8     	str	w8, [sp, #12]
    1b5c: f85f83a9     	ldur	x9, [x29, #-8]
    1b60: 90000008     	adrp	x8, 0x1000 <RDMTod::GetUidCount() const+0x30>
    1b64: f9400108     	ldr	x8, [x8]
    1b68: f9400108     	ldr	x8, [x8]
    1b6c: eb090108     	subs	x8, x8, x9
    1b70: 1a9f17e8     	cset	w8, eq
    1b74: 37000068     	tbnz	w8, #0, 0x1b80 <RDMTod::GetUidCount() const+0x50>
    1b78: 14000001     	b	0x1b7c <RDMTod::GetUidCount() const+0x4c>
    1b7c: 94000000     	bl	0x1b7c <RDMTod::GetUidCount() const+0x4c>
    1b80: b9400fe0     	ldr	w0, [sp, #12]
    1b84: a9427bfd     	ldp	x29, x30, [sp, #32]
    1b88: 9100c3ff     	add	sp, sp, #48
    1b8c: d65f03c0     	ret

0000000000001b90 <RDMTod::Copy(unsigned char*)>:
    1b90: d10203ff     	sub	sp, sp, #128
    1b94: a9077bfd     	stp	x29, x30, [sp, #112]
    1b98: 9101c3fd     	add	x29, sp, #112
    1b9c: 90000008     	adrp	x8, 0x1000 <RDMTod::Copy(unsigned char*)+0xc>
    1ba0: f9400108     	ldr	x8, [x8]
    1ba4: f9400108     	ldr	x8, [x8]
    1ba8: f81f83a8     	stur	x8, [x29, #-8]
    1bac: f81f03a0     	stur	x0, [x29, #-16]
    1bb0: f81e83a1     	stur	x1, [x29, #-24]
    1bb4: f85f03a8     	ldur	x8, [x29, #-16]
    1bb8: f90017e8     	str	x8, [sp, #40]
    1bbc: 910003e9     	mov	x9, sp
    1bc0: 90000008     	adrp	x8, 0x1000 <RDMTod::Copy(unsigned char*)+0x30>
    1bc4: 91000108     	add	x8, x8, #0
    1bc8: f9001fe8     	str	x8, [sp, #56]
    1bcc: f9000128     	str	x8, [x9]
    1bd0: 90000008     	adrp	x8, 0x1000 <RDMTod::Copy(unsigned char*)+0x40>
    1bd4: 91000108     	add	x8, x8, #0
    1bd8: f9001be8     	str	x8, [sp, #48]
    1bdc: f9000528     	str	x8, [x9, #8]
    1be0: d2800d68     	mov	x8, #107
    1be4: f9000928     	str	x8, [x9, #16]
    1be8: 90000000     	adrp	x0, 0x1000 <RDMTod::Copy(unsigned char*)+0x58>
    1bec: 91000000     	add	x0, x0, #0
    1bf0: 94000000     	bl	0x1bf0 <RDMTod::Copy(unsigned char*)+0x60>
    1bf4: f94017e8     	ldr	x8, [sp, #40]
    1bf8: f9401beb     	ldr	x11, [sp, #48]
    1bfc: f9401fea     	ldr	x10, [sp, #56]
    1c00: b9400109     	ldr	w9, [x8]
    1c04: aa0903e8     	mov	x8, x9
    1c08: 910003e9     	mov	x9, sp
    1c0c: f900012b     	str	x11, [x9]
    1c10: f900052a     	str	x10, [x9, #8]
    1c14: d2800d8a     	mov	x10, #108
    1c18: f900092a     	str	x10, [x9, #16]
    1c1c: f9000d28     	str	x8, [x9, #24]
    1c20: 90000000     	adrp	x0, 0x1000 <RDMTod::Copy(unsigned char*)+0x90>
    1c24: 91000000     	add	x0, x0, #0
    1c28: 94000000     	bl	0x1c28 <RDMTod::Copy(unsigned char*)+0x98>
    1c2c: f85e83a8     	ldur	x8, [x29, #-24]
    1c30: f1000108     	subs	x8, x8, #0
    1c34: 1a9f07e8     	cset	w8, ne
    1c38: 37000148     	tbnz	w8, #0, 0x1c60 <RDMTod::Copy(unsigned char*)+0xd0>
    1c3c: 14000001     	b	0x1c40 <RDMTod::Copy(unsigned char*)+0xb0>
    1c40: 90000000     	adrp	x0, 0x1000 <RDMTod::Copy(unsigned char*)+0xb0>
    1c44: 91000000     	add	x0, x0, #0
    1c48: 90000001     	adrp	x1, 0x1000 <RDMTod::Copy(unsigned char*)+0xb8>
    1c4c: 91000021     	add	x1, x1, #0
    1c50: 52800da2     	mov	w2, #109
    1c54: 90000003     	adrp	x3, 0x1000 <RDMTod::Copy(unsigned char*)+0xc4>
    1c58: 91000063     	add	x3, x3, #0
    1c5c: 94000000     	bl	0x1c5c <RDMTod::Copy(unsigned char*)+0xcc>
    1c60: 14000001     	b	0x1c64 <RDMTod::Copy(unsigned char*)+0xd4>
    1c64: f94017e8     	ldr	x8, [sp, #40]
    1c68: 91009108     	add	x8, x8, #36
    1c6c: f81e03a8     	stur	x8, [x29, #-32]
    1c70: f85e83a8     	ldur	x8, [x29, #-24]
    1c74: f81d83a8     	stur	x8, [x29, #-40]
    1c78: b81d43bf     	stur	wzr, [x29, #-44]
    1c7c: 14000001     	b	0x1c80 <RDMTod::Copy(unsigned char*)+0xf0>
    1c80: f94017e9     	ldr	x9, [sp, #40]
    1c84: b85d43a8     	ldur	w8, [x29, #-44]
    1c88: b9400129     	ldr	w9, [x9]
    1c8c: 528000ca     	mov	w10, #6
    1c90: 1b0a7d29     	mul	w9, w9, w10
    1c94: 6b090108     	subs	w8, w8, w9
    1c98: 1a9f37e8     	cset	w8, hs
    1c9c: 370001e8     	tbnz	w8, #0, 0x1cd8 <RDMTod::Copy(unsigned char*)+0x148>
    1ca0: 14000001     	b	0x1ca4 <RDMTod::Copy(unsigned char*)+0x114>
    1ca4: f85e03a8     	ldur	x8, [x29, #-32]
    1ca8: 91000509     	add	x9, x8, #1
    1cac: f81e03a9     	stur	x9, [x29, #-32]
    1cb0: 39400108     	ldrb	w8, [x8]
    1cb4: f85d83a9     	ldur	x9, [x29, #-40]
    1cb8: 9100052a     	add	x10, x9, #1
    1cbc: f81d83aa     	stur	x10, [x29, #-40]
    1cc0: 39000128     	strb	w8, [x9]
    1cc4: 14000001     	b	0x1cc8 <RDMTod::Copy(unsigned char*)+0x138>
    1cc8: b85d43a8     	ldur	w8, [x29, #-44]
    1ccc: 11000508     	add	w8, w8, #1
    1cd0: b81d43a8     	stur	w8, [x29, #-44]
    1cd4: 17ffffeb     	b	0x1c80 <RDMTod::Copy(unsigned char*)+0xf0>
    1cd8: 910003e9     	mov	x9, sp
    1cdc: 90000008     	adrp	x8, 0x1000 <RDMTod::Copy(unsigned char*)+0x14c>
    1ce0: 91000108     	add	x8, x8, #0
    1ce4: f9000128     	str	x8, [x9]
    1ce8: 90000008     	adrp	x8, 0x1000 <RDMTod::Copy(unsigned char*)+0x158>
    1cec: 91000108     	add	x8, x8, #0
    1cf0: f9000528     	str	x8, [x9, #8]
    1cf4: d2800ec8     	mov	x8, #118
    1cf8: f9000928     	str	x8, [x9, #16]
    1cfc: 90000000     	adrp	x0, 0x1000 <RDMTod::Copy(unsigned char*)+0x16c>
    1d00: 91000000     	add	x0, x0, #0
    1d04: 94000000     	bl	0x1d04 <RDMTod::Copy(unsigned char*)+0x174>
    1d08: f85f83a9     	ldur	x9, [x29, #-8]
    1d0c: 90000008     	adrp	x8, 0x1000 <RDMTod::Copy(unsigned char*)+0x17c>
    1d10: f9400108     	ldr	x8, [x8]
    1d14: f9400108     	ldr	x8, [x8]
    1d18: eb090108     	subs	x8, x8, x9
    1d1c: 1a9f17e8     	cset	w8, eq
    1d20: 37000068     	tbnz	w8, #0, 0x1d2c <RDMTod::Copy(unsigned char*)+0x19c>
    1d24: 14000001     	b	0x1d28 <RDMTod::Copy(unsigned char*)+0x198>
    1d28: 94000000     	bl	0x1d28 <RDMTod::Copy(unsigned char*)+0x198>
    1d2c: a9477bfd     	ldp	x29, x30, [sp, #112]
    1d30: 910203ff     	add	sp, sp, #128
    1d34: d65f03c0     	ret

0000000000001d38 <RDMTod::Reset()>:
    1d38: d100c3ff     	sub	sp, sp, #48
    1d3c: a9027bfd     	stp	x29, x30, [sp, #32]
    1d40: 910083fd     	add	x29, sp, #32
    1d44: 90000008     	adrp	x8, 0x1000 <RDMTod::Reset()+0xc>
    1d48: f9400108     	ldr	x8, [x8]
    1d4c: f9400108     	ldr	x8, [x8]
    1d50: f81f83a8     	stur	x8, [x29, #-8]
    1d54: f9000be0     	str	x0, [sp, #16]
    1d58: f9400be8     	ldr	x8, [sp, #16]
    1d5c: f90003e8     	str	x8, [sp]
    1d60: b9000fff     	str	wzr, [sp, #12]
    1d64: 14000001     	b	0x1d68 <RDMTod::Reset()+0x30>
    1d68: f94003e9     	ldr	x9, [sp]
    1d6c: b9400fe8     	ldr	w8, [sp, #12]
    1d70: b9400129     	ldr	w9, [x9]
    1d74: 6b090108     	subs	w8, w8, w9
    1d78: 1a9f37e8     	cset	w8, hs
    1d7c: 37000288     	tbnz	w8, #0, 0x1dcc <RDMTod::Reset()+0x94>
    1d80: 14000001     	b	0x1d84 <RDMTod::Reset()+0x4c>
    1d84: f94003e8     	ldr	x8, [sp]
    1d88: 91009108     	add	x8, x8, #36
    1d8c: b9400fe9     	ldr	w9, [sp, #12]
    1d90: d28000ca     	mov	x10, #6
    1d94: 9b0a7d29     	mul	x9, x9, x10
    1d98: 8b090109     	add	x9, x8, x9
    1d9c: 9000000a     	adrp	x10, 0x1000 <RDMTod::Reset()+0x64>
    1da0: 90000008     	adrp	x8, 0x1000 <RDMTod::Reset()+0x68>
    1da4: 91000108     	add	x8, x8, #0
    1da8: b940014a     	ldr	w10, [x10]
    1dac: b900012a     	str	w10, [x9]
    1db0: 79400908     	ldrh	w8, [x8, #4]
    1db4: 79000928     	strh	w8, [x9, #4]
    1db8: 14000001     	b	0x1dbc <RDMTod::Reset()+0x84>
    1dbc: b9400fe8     	ldr	w8, [sp, #12]
    1dc0: 11000508     	add	w8, w8, #1
    1dc4: b9000fe8     	str	w8, [sp, #12]
    1dc8: 17ffffe8     	b	0x1d68 <RDMTod::Reset()+0x30>
    1dcc: f94003e8     	ldr	x8, [sp]
    1dd0: b900011f     	str	wzr, [x8]
    1dd4: b9000bff     	str	wzr, [sp, #8]
    1dd8: 14000001     	b	0x1ddc <RDMTod::Reset()+0xa4>
    1ddc: b9400be8     	ldr	w8, [sp, #8]
    1de0: 71001d08     	subs	w8, w8, #7
    1de4: 1a9f37e8     	cset	w8, hs
    1de8: 370001a8     	tbnz	w8, #0, 0x1e1c <RDMTod::Reset()+0xe4>
    1dec: 14000001     	b	0x1df0 <RDMTod::Reset()+0xb8>
    1df0: f94003e8     	ldr	x8, [sp]
    1df4: 91002109     	add	x9, x8, #8
    1df8: b9400be8     	ldr	w8, [sp, #8]
    1dfc: aa0803ea     	mov	x10, x8
    1e00: 52800008     	mov	w8, #0
    1e04: b82a7928     	str	w8, [x9, x10, lsl  #2]
    1e08: 14000001     	b	0x1e0c <RDMTod::Reset()+0xd4>
    1e0c: b9400be8     	ldr	w8, [sp, #8]
    1e10: 11000508     	add	w8, w8, #1
    1e14: b9000be8     	str	w8, [sp, #8]
    1e18: 17fffff1     	b	0x1ddc <RDMTod::Reset()+0xa4>
    1e1c: f85f83a9     	ldur	x9, [x29, #-8]
    1e20: 90000008     	adrp	x8, 0x1000 <RDMTod::Reset()+0xe8>
    1e24: f9400108     	ldr	x8, [x8]
    1e28: f9400108     	ldr	x8, [x8]
    1e2c: eb090108     	subs	x8, x8, x9
    1e30: 1a9f17e8     	cset	w8, eq
    1e34: 37000068     	tbnz	w8, #0, 0x1e40 <RDMTod::Reset()+0x108>
    1e38: 14000001     	b	0x1e3c <RDMTod::Reset()+0x104>
    1e3c: 94000000     	bl	0x1e3c <RDMTod::Reset()+0x104>
    1e40: a9427bfd     	ldp	x29, x30, [sp, #32]
    1e44: 9100c3ff     	add	sp, sp, #48
    1e48: d65f03c0     	ret

0000000000001e4c <RDMTod::AddUid(unsigned char const*)>:
    1e4c: d10103ff     	sub	sp, sp, #64
    1e50: a9037bfd     	stp	x29, x30, [sp, #48]
    1e54: 9100c3fd     	add	x29, sp, #48
    1e58: 90000008     	adrp	x8, 0x1000 <RDMTod::AddUid(unsigned char const*)+0xc>
    1e5c: f9400108     	ldr	x8, [x8]
    1e60: f9400108     	ldr	x8, [x8]
    1e64: f81f83a8     	stur	x8, [x29, #-8]
    1e68: f9000fe0     	str	x0, [sp, #24]
    1e6c: f9000be1     	str	x1, [sp, #16]
    1e70: f9400fe8     	ldr	x8, [sp, #24]
    1e74: f90007e8     	str	x8, [sp, #8]
    1e78: b9400108     	ldr	w8, [x8]
    1e7c: 71032108     	subs	w8, w8, #200
    1e80: 1a9f07e8     	cset	w8, ne
    1e84: 370000e8     	tbnz	w8, #0, 0x1ea0 <RDMTod::AddUid(unsigned char const*)+0x54>
    1e88: 14000001     	b	0x1e8c <RDMTod::AddUid(unsigned char const*)+0x40>
    1e8c: 52800008     	mov	w8, #0
    1e90: 12000108     	and	w8, w8, #0x1
    1e94: 12000108     	and	w8, w8, #0x1
    1e98: 381f73a8     	sturb	w8, [x29, #-9]
    1e9c: 1400001e     	b	0x1f14 <RDMTod::AddUid(unsigned char const*)+0xc8>
    1ea0: f94007e0     	ldr	x0, [sp, #8]
    1ea4: f9400be1     	ldr	x1, [sp, #16]
    1ea8: 94000000     	bl	0x1ea8 <RDMTod::AddUid(unsigned char const*)+0x5c>
    1eac: 360000e0     	tbz	w0, #0, 0x1ec8 <RDMTod::AddUid(unsigned char const*)+0x7c>
    1eb0: 14000001     	b	0x1eb4 <RDMTod::AddUid(unsigned char const*)+0x68>
    1eb4: 52800008     	mov	w8, #0
    1eb8: 12000108     	and	w8, w8, #0x1
    1ebc: 12000108     	and	w8, w8, #0x1
    1ec0: 381f73a8     	sturb	w8, [x29, #-9]
    1ec4: 14000014     	b	0x1f14 <RDMTod::AddUid(unsigned char const*)+0xc8>
    1ec8: f94007eb     	ldr	x11, [sp, #8]
    1ecc: 91009168     	add	x8, x11, #36
    1ed0: b9400169     	ldr	w9, [x11]
    1ed4: aa0903ea     	mov	x10, x9
    1ed8: 1100054a     	add	w10, w10, #1
    1edc: b900016a     	str	w10, [x11]
    1ee0: d28000ca     	mov	x10, #6
    1ee4: 9b0a7d29     	mul	x9, x9, x10
    1ee8: 8b090109     	add	x9, x8, x9
    1eec: f9400be8     	ldr	x8, [sp, #16]
    1ef0: b940010a     	ldr	w10, [x8]
    1ef4: b900012a     	str	w10, [x9]
    1ef8: 79400908     	ldrh	w8, [x8, #4]
    1efc: 79000928     	strh	w8, [x9, #4]
    1f00: 52800028     	mov	w8, #1
    1f04: 12000108     	and	w8, w8, #0x1
    1f08: 12000108     	and	w8, w8, #0x1
    1f0c: 381f73a8     	sturb	w8, [x29, #-9]
    1f10: 14000001     	b	0x1f14 <RDMTod::AddUid(unsigned char const*)+0xc8>
    1f14: 385f73a8     	ldurb	w8, [x29, #-9]
    1f18: b90007e8     	str	w8, [sp, #4]
    1f1c: f85f83a9     	ldur	x9, [x29, #-8]
    1f20: 90000008     	adrp	x8, 0x1000 <RDMTod::AddUid(unsigned char const*)+0xd4>
    1f24: f9400108     	ldr	x8, [x8]
    1f28: f9400108     	ldr	x8, [x8]
    1f2c: eb090108     	subs	x8, x8, x9
    1f30: 1a9f17e8     	cset	w8, eq
    1f34: 37000068     	tbnz	w8, #0, 0x1f40 <RDMTod::AddUid(unsigned char const*)+0xf4>
    1f38: 14000001     	b	0x1f3c <RDMTod::AddUid(unsigned char const*)+0xf0>
    1f3c: 94000000     	bl	0x1f3c <RDMTod::AddUid(unsigned char const*)+0xf0>
    1f40: b94007e8     	ldr	w8, [sp, #4]
    1f44: 12000100     	and	w0, w8, #0x1
    1f48: a9437bfd     	ldp	x29, x30, [sp, #48]
    1f4c: 910103ff     	add	sp, sp, #64
    1f50: d65f03c0     	ret

Disassembly of section __TEXT,__StaticInit:

0000000000001f54 <ltmp1>:
    1f54: d100c3ff     	sub	sp, sp, #48
    1f58: a9027bfd     	stp	x29, x30, [sp, #32]
    1f5c: 910083fd     	add	x29, sp, #32
    1f60: 52826a08     	mov	w8, #4944
    1f64: aa0803ea     	mov	x10, x8
    1f68: 90000008     	adrp	x8, 0x1000 <ltmp1+0x14>
    1f6c: 91000108     	add	x8, x8, #0
    1f70: aa0803e9     	mov	x9, x8
    1f74: 8b0a0129     	add	x9, x9, x10
    1f78: f90007e9     	str	x9, [sp, #8]
    1f7c: 90000009     	adrp	x9, 0x1000 <ltmp1+0x28>
    1f80: f9400129     	ldr	x9, [x9]
    1f84: f9400129     	ldr	x9, [x9]
    1f88: f81f83a9     	stur	x9, [x29, #-8]
    1f8c: f9000be8     	str	x8, [sp, #16]
    1f90: 14000001     	b	0x1f94 <ltmp1+0x40>
    1f94: f9400be0     	ldr	x0, [sp, #16]
    1f98: f90003e0     	str	x0, [sp]
    1f9c: 94000000     	bl	0x1f9c <ltmp1+0x48>
    1fa0: f94003e9     	ldr	x9, [sp]
    1fa4: f94007e8     	ldr	x8, [sp, #8]
    1fa8: 91135129     	add	x9, x9, #1236
    1fac: eb080128     	subs	x8, x9, x8
    1fb0: 1a9f07e8     	cset	w8, ne
    1fb4: f9000be9     	str	x9, [sp, #16]
    1fb8: 3707fee8     	tbnz	w8, #0, 0x1f94 <ltmp1+0x40>
    1fbc: 14000001     	b	0x1fc0 <ltmp1+0x6c>
    1fc0: 90000000     	adrp	x0, 0x1000 <ltmp1+0x6c>
    1fc4: 91000000     	add	x0, x0, #0
    1fc8: d2800001     	mov	x1, #0
    1fcc: 90000002     	adrp	x2, 0x1000 <ltmp1+0x78>
    1fd0: 91000042     	add	x2, x2, #0
    1fd4: 94000000     	bl	0x1fd4 <ltmp1+0x80>
    1fd8: f85f83a9     	ldur	x9, [x29, #-8]
    1fdc: 90000008     	adrp	x8, 0x1000 <ltmp1+0x88>
    1fe0: f9400108     	ldr	x8, [x8]
    1fe4: f9400108     	ldr	x8, [x8]
    1fe8: eb090108     	subs	x8, x8, x9
    1fec: 1a9f17e8     	cset	w8, eq
    1ff0: 37000068     	tbnz	w8, #0, 0x1ffc <ltmp1+0xa8>
    1ff4: 14000001     	b	0x1ff8 <ltmp1+0xa4>
    1ff8: 94000000     	bl	0x1ff8 <ltmp1+0xa4>
    1ffc: a9427bfd     	ldp	x29, x30, [sp, #32]
    2000: 9100c3ff     	add	sp, sp, #48
    2004: d65f03c0     	ret

0000000000002008 <___cxx_global_array_dtor>:
    2008: d100c3ff     	sub	sp, sp, #48
    200c: a9027bfd     	stp	x29, x30, [sp, #32]
    2010: 910083fd     	add	x29, sp, #32
    2014: 52826a08     	mov	w8, #4944
    2018: aa0803e9     	mov	x9, x8
    201c: 90000008     	adrp	x8, 0x2000 <___cxx_global_array_dtor+0x14>
    2020: 91000108     	add	x8, x8, #0
    2024: 8b090108     	add	x8, x8, x9
    2028: 90000009     	adrp	x9, 0x2000 <___cxx_global_array_dtor+0x20>
    202c: f9400129     	ldr	x9, [x9]
    2030: f9400129     	ldr	x9, [x9]
    2034: f81f83a9     	stur	x9, [x29, #-8]
    2038: f9000be0     	str	x0, [sp, #16]
    203c: f90007e8     	str	x8, [sp, #8]
    2040: 14000001     	b	0x2044 <___cxx_global_array_dtor+0x3c>
    2044: f94007e8     	ldr	x8, [sp, #8]
    2048: f1135100     	subs	x0, x8, #1236
    204c: f90003e0     	str	x0, [sp]
    2050: 94000000     	bl	0x2050 <___cxx_global_array_dtor+0x48>
    2054: f94003e9     	ldr	x9, [sp]
    2058: 90000008     	adrp	x8, 0x2000 <___cxx_global_array_dtor+0x50>
    205c: 91000108     	add	x8, x8, #0
    2060: eb080128     	subs	x8, x9, x8
    2064: 1a9f07e8     	cset	w8, ne
    2068: f90007e9     	str	x9, [sp, #8]
    206c: 3707fec8     	tbnz	w8, #0, 0x2044 <___cxx_global_array_dtor+0x3c>
    2070: 14000001     	b	0x2074 <___cxx_global_array_dtor+0x6c>
    2074: f85f83a9     	ldur	x9, [x29, #-8]
    2078: 90000008     	adrp	x8, 0x2000 <___cxx_global_array_dtor+0x70>
    207c: f9400108     	ldr	x8, [x8]
    2080: f9400108     	ldr	x8, [x8]
    2084: eb090108     	subs	x8, x8, x9
    2088: 1a9f17e8     	cset	w8, eq
    208c: 37000068     	tbnz	w8, #0, 0x2098 <___cxx_global_array_dtor+0x90>
    2090: 14000001     	b	0x2094 <___cxx_global_array_dtor+0x8c>
    2094: 94000000     	bl	0x2094 <___cxx_global_array_dtor+0x8c>
    2098: a9427bfd     	ldp	x29, x30, [sp, #32]
    209c: 9100c3ff     	add	sp, sp, #48
    20a0: d65f03c0     	ret

00000000000020a4 <__GLOBAL__sub_I_artnetrdmcontroller.cpp>:
    20a4: d10083ff     	sub	sp, sp, #32
    20a8: a9017bfd     	stp	x29, x30, [sp, #16]
    20ac: 910043fd     	add	x29, sp, #16
    20b0: 90000008     	adrp	x8, 0x2000 <__GLOBAL__sub_I_artnetrdmcontroller.cpp+0xc>
    20b4: f9400108     	ldr	x8, [x8]
    20b8: f9400108     	ldr	x8, [x8]
    20bc: f90007e8     	str	x8, [sp, #8]
    20c0: 94000000     	bl	0x20c0 <__GLOBAL__sub_I_artnetrdmcontroller.cpp+0x1c>
    20c4: f94007e9     	ldr	x9, [sp, #8]
    20c8: 90000008     	adrp	x8, 0x2000 <__GLOBAL__sub_I_artnetrdmcontroller.cpp+0x24>
    20cc: f9400108     	ldr	x8, [x8]
    20d0: f9400108     	ldr	x8, [x8]
    20d4: eb090108     	subs	x8, x8, x9
    20d8: 1a9f17e8     	cset	w8, eq
    20dc: 37000068     	tbnz	w8, #0, 0x20e8 <__GLOBAL__sub_I_artnetrdmcontroller.cpp+0x44>
    20e0: 14000001     	b	0x20e4 <__GLOBAL__sub_I_artnetrdmcontroller.cpp+0x40>
    20e4: 94000000     	bl	0x20e4 <__GLOBAL__sub_I_artnetrdmcontroller.cpp+0x40>
    20e8: a9417bfd     	ldp	x29, x30, [sp, #16]
    20ec: 910083ff     	add	sp, sp, #32
    20f0: d65f03c0     	ret

lib_linux/librdmdiscovery.a(rdm_send.o):	file format mach-o arm64

Disassembly of section __TEXT,__text:

0000000000000000 <ltmp0>:
       0: d10583ff     	sub	sp, sp, #352
       4: a9146ffc     	stp	x28, x27, [sp, #320]
       8: a9157bfd     	stp	x29, x30, [sp, #336]
       c: 910543fd     	add	x29, sp, #336
      10: 90000008     	adrp	x8, 0x0 <ltmp0+0x10>
      14: f9400108     	ldr	x8, [x8]
      18: f9400108     	ldr	x8, [x8]
      1c: f81e83a8     	stur	x8, [x29, #-24]
      20: b90033e0     	str	w0, [sp, #48]
      24: f90017e1     	str	x1, [sp, #40]
      28: f94017e8     	ldr	x8, [sp, #40]
      2c: f1000108     	subs	x8, x8, #0
      30: 1a9f07e8     	cset	w8, ne
      34: 37000148     	tbnz	w8, #0, 0x5c <ltmp0+0x5c>
      38: 14000001     	b	0x3c <ltmp0+0x3c>
      3c: 90000000     	adrp	x0, 0x0 <ltmp0+0x3c>
      40: 91000000     	add	x0, x0, #0
      44: 90000001     	adrp	x1, 0x0 <ltmp0+0x44>
      48: 91000021     	add	x1, x1, #0
      4c: 52800522     	mov	w2, #41
      50: 90000003     	adrp	x3, 0x0 <ltmp0+0x50>
      54: 91000063     	add	x3, x3, #0
      58: 94000000     	bl	0x58 <ltmp0+0x58>
      5c: 14000001     	b	0x60 <ltmp0+0x60>
      60: f94017e8     	ldr	x8, [sp, #40]
      64: f90013e8     	str	x8, [sp, #32]
      68: f94013e8     	ldr	x8, [sp, #32]
      6c: 39404d08     	ldrb	w8, [x8, #19]
      70: 71008508     	subs	w8, w8, #33
      74: 1a9f17e8     	cset	w8, eq
      78: 37000108     	tbnz	w8, #0, 0x98 <ltmp0+0x98>
      7c: 14000001     	b	0x80 <ltmp0+0x80>
      80: f94013e8     	ldr	x8, [sp, #32]
      84: 39404d08     	ldrb	w8, [x8, #19]
      88: 7100c508     	subs	w8, w8, #49
      8c: 1a9f07e8     	cset	w8, ne
      90: 370006e8     	tbnz	w8, #0, 0x16c <ltmp0+0x16c>
      94: 14000001     	b	0x98 <ltmp0+0x98>
      98: 9100dfe8     	add	x8, sp, #55
      9c: 52801989     	mov	w9, #204
      a0: 3900dfe9     	strb	w9, [sp, #55]
      a4: f9000fe8     	str	x8, [sp, #24]
      a8: f9400fe8     	ldr	x8, [sp, #24]
      ac: 91000500     	add	x0, x8, #1
      b0: f94017e1     	ldr	x1, [sp, #40]
      b4: f94013e8     	ldr	x8, [sp, #32]
      b8: 39400508     	ldrb	w8, [x8, #1]
      bc: 71000508     	subs	w8, w8, #1
      c0: aa0803e2     	mov	x2, x8
      c4: 94000000     	bl	0xc4 <ltmp0+0xc4>
      c8: 790027ff     	strh	wzr, [sp, #18]
      cc: b90017ff     	str	wzr, [sp, #20]
      d0: 14000001     	b	0xd4 <ltmp0+0xd4>
      d4: b94017e8     	ldr	w8, [sp, #20]
      d8: 3940e7e9     	ldrb	w9, [sp, #57]
      dc: 6b090108     	subs	w8, w8, w9
      e0: 1a9f37e8     	cset	w8, hs
      e4: 370001a8     	tbnz	w8, #0, 0x118 <ltmp0+0x118>
      e8: 14000001     	b	0xec <ltmp0+0xec>
      ec: 794027e8     	ldrh	w8, [sp, #18]
      f0: f9400fe9     	ldr	x9, [sp, #24]
      f4: b94017ea     	ldr	w10, [sp, #20]
      f8: 386a6929     	ldrb	w9, [x9, x10]
      fc: 0b090108     	add	w8, w8, w9
     100: 790027e8     	strh	w8, [sp, #18]
     104: 14000001     	b	0x108 <ltmp0+0x108>
     108: b94017e8     	ldr	w8, [sp, #20]
     10c: 11000508     	add	w8, w8, #1
     110: b90017e8     	str	w8, [sp, #20]
     114: 17fffff0     	b	0xd4 <ltmp0+0xd4>
     118: 794027e8     	ldrh	w8, [sp, #18]
     11c: 13087d08     	asr	w8, w8, #8
     120: f9400fe9     	ldr	x9, [sp, #24]
     124: b94017ea     	ldr	w10, [sp, #20]
     128: aa0a03eb     	mov	x11, x10
     12c: 1100056b     	add	w11, w11, #1
     130: b90017eb     	str	w11, [sp, #20]
     134: 382a6928     	strb	w8, [x9, x10]
     138: 39404be8     	ldrb	w8, [sp, #18]
     13c: f9400fe9     	ldr	x9, [sp, #24]
     140: b94017ea     	ldr	w10, [sp, #20]
     144: 382a6928     	strb	w8, [x9, x10]
     148: b94033e0     	ldr	w0, [sp, #48]
     14c: 9100dfe1     	add	x1, sp, #55
     150: f90007e1     	str	x1, [sp, #8]
     154: 3940e7e8     	ldrb	w8, [sp, #57]
     158: 11000902     	add	w2, w8, #2
     15c: 94000000     	bl	0x15c <ltmp0+0x15c>
     160: f94007e0     	ldr	x0, [sp, #8]
     164: 94000000     	bl	0x164 <ltmp0+0x164>
     168: 14000001     	b	0x16c <ltmp0+0x16c>
     16c: f85e83a9     	ldur	x9, [x29, #-24]
     170: 90000008     	adrp	x8, 0x0 <ltmp0+0x170>
     174: f9400108     	ldr	x8, [x8]
     178: f9400108     	ldr	x8, [x8]
     17c: eb090108     	subs	x8, x8, x9
     180: 1a9f17e8     	cset	w8, eq
     184: 37000068     	tbnz	w8, #0, 0x190 <ltmp0+0x190>
     188: 14000001     	b	0x18c <ltmp0+0x18c>
     18c: 94000000     	bl	0x18c <ltmp0+0x18c>
     190: a9557bfd     	ldp	x29, x30, [sp, #336]
     194: a9546ffc     	ldp	x28, x27, [sp, #320]
     198: 910583ff     	add	sp, sp, #352
     19c: d65f03c0     	ret

lib_linux/librdmdiscovery.a(rdmdiscovery.o):	file format mach-o arm64

Disassembly of section __TEXT,__text:

0000000000000000 <ltmp0>:
       0: d100c3ff     	sub	sp, sp, #48
       4: a9027bfd     	stp	x29, x30, [sp, #32]
       8: 910083fd     	add	x29, sp, #32
       c: 90000008     	adrp	x8, 0x0 <ltmp0+0xc>
      10: f9400108     	ldr	x8, [x8]
      14: f9400108     	ldr	x8, [x8]
      18: f81f83a8     	stur	x8, [x29, #-8]
      1c: f9000be0     	str	x0, [sp, #16]
      20: f90007e1     	str	x1, [sp, #8]
      24: f9400be0     	ldr	x0, [sp, #16]
      28: f90003e0     	str	x0, [sp]
      2c: 94000000     	bl	0x2c <ltmp0+0x2c>
      30: f94003e0     	ldr	x0, [sp]
      34: f94007e8     	ldr	x8, [sp, #8]
      38: b9400109     	ldr	w9, [x8]
      3c: b9011009     	str	w9, [x0, #272]
      40: 79400908     	ldrh	w8, [x8, #4]
      44: 79022808     	strh	w8, [x0, #276]
      48: f94007e1     	ldr	x1, [sp, #8]
      4c: 94000000     	bl	0x4c <ltmp0+0x4c>
      50: 90000000     	adrp	x0, 0x0 <ltmp0+0x50>
      54: 91000000     	add	x0, x0, #0
      58: 94000000     	bl	0x58 <ltmp0+0x58>
      5c: f94003e8     	ldr	x8, [sp]
      60: aa0803e0     	mov	x0, x8
      64: 91044101     	add	x1, x8, #272
      68: 94000000     	bl	0x68 <ltmp0+0x68>
      6c: 90000000     	adrp	x0, 0x0 <ltmp0+0x6c>
      70: 91000000     	add	x0, x0, #0
      74: 94000000     	bl	0x74 <ltmp0+0x74>
      78: f85f83a9     	ldur	x9, [x29, #-8]
      7c: 90000008     	adrp	x8, 0x0 <ltmp0+0x7c>
      80: f9400108     	ldr	x8, [x8]
      84: f9400108     	ldr	x8, [x8]
      88: eb090108     	subs	x8, x8, x9
      8c: 1a9f17e8     	cset	w8, eq
      90: 37000068     	tbnz	w8, #0, 0x9c <ltmp0+0x9c>
      94: 14000001     	b	0x98 <ltmp0+0x98>
      98: 94000000     	bl	0x98 <ltmp0+0x98>
      9c: f94003e0     	ldr	x0, [sp]
      a0: a9427bfd     	ldp	x29, x30, [sp, #32]
      a4: 9100c3ff     	add	sp, sp, #48
      a8: d65f03c0     	ret

00000000000000ac <RDMMessage::RDMMessage()>:
      ac: d100c3ff     	sub	sp, sp, #48
      b0: a9027bfd     	stp	x29, x30, [sp, #32]
      b4: 910083fd     	add	x29, sp, #32
      b8: 90000008     	adrp	x8, 0x0 <RDMMessage::RDMMessage()+0xc>
      bc: f9400108     	ldr	x8, [x8]
      c0: f9400108     	ldr	x8, [x8]
      c4: f81f83a8     	stur	x8, [x29, #-8]
      c8: f9000be0     	str	x0, [sp, #16]
      cc: f9400be0     	ldr	x0, [sp, #16]
      d0: f90007e0     	str	x0, [sp, #8]
      d4: 94000000     	bl	0xd4 <RDMMessage::RDMMessage()+0x28>
      d8: f85f83a9     	ldur	x9, [x29, #-8]
      dc: 90000008     	adrp	x8, 0x0 <RDMMessage::RDMMessage()+0x30>
      e0: f9400108     	ldr	x8, [x8]
      e4: f9400108     	ldr	x8, [x8]
      e8: eb090108     	subs	x8, x8, x9
      ec: 1a9f17e8     	cset	w8, eq
      f0: 37000068     	tbnz	w8, #0, 0xfc <RDMMessage::RDMMessage()+0x50>
      f4: 14000001     	b	0xf8 <RDMMessage::RDMMessage()+0x4c>
      f8: 94000000     	bl	0xf8 <RDMMessage::RDMMessage()+0x4c>
      fc: f94007e0     	ldr	x0, [sp, #8]
     100: a9427bfd     	ldp	x29, x30, [sp, #32]
     104: 9100c3ff     	add	sp, sp, #48
     108: d65f03c0     	ret

000000000000010c <RDMMessage::SetSrcUid(unsigned char const*)>:
     10c: d100c3ff     	sub	sp, sp, #48
     110: a9027bfd     	stp	x29, x30, [sp, #32]
     114: 910083fd     	add	x29, sp, #32
     118: 90000008     	adrp	x8, 0x0 <RDMMessage::SetSrcUid(unsigned char const*)+0xc>
     11c: f9400108     	ldr	x8, [x8]
     120: f9400108     	ldr	x8, [x8]
     124: f81f83a8     	stur	x8, [x29, #-8]
     128: f9000be0     	str	x0, [sp, #16]
     12c: f90007e1     	str	x1, [sp, #8]
     130: f9400be9     	ldr	x9, [sp, #16]
     134: f94007e8     	ldr	x8, [sp, #8]
     138: b940010a     	ldr	w10, [x8]
     13c: b800912a     	stur	w10, [x9, #9]
     140: 79400908     	ldrh	w8, [x8, #4]
     144: 91003529     	add	x9, x9, #13
     148: 79000128     	strh	w8, [x9]
     14c: f85f83a9     	ldur	x9, [x29, #-8]
     150: 90000008     	adrp	x8, 0x0 <RDMMessage::SetSrcUid(unsigned char const*)+0x44>
     154: f9400108     	ldr	x8, [x8]
     158: f9400108     	ldr	x8, [x8]
     15c: eb090108     	subs	x8, x8, x9
     160: 1a9f17e8     	cset	w8, eq
     164: 37000068     	tbnz	w8, #0, 0x170 <RDMMessage::SetSrcUid(unsigned char const*)+0x64>
     168: 14000001     	b	0x16c <RDMMessage::SetSrcUid(unsigned char const*)+0x60>
     16c: 94000000     	bl	0x16c <RDMMessage::SetSrcUid(unsigned char const*)+0x60>
     170: a9427bfd     	ldp	x29, x30, [sp, #32]
     174: 9100c3ff     	add	sp, sp, #48
     178: d65f03c0     	ret

000000000000017c <RDMDiscovery::PrintUid(unsigned char const*)>:
     17c: d10183ff     	sub	sp, sp, #96
     180: a9057bfd     	stp	x29, x30, [sp, #80]
     184: 910143fd     	add	x29, sp, #80
     188: 90000008     	adrp	x8, 0x0 <RDMDiscovery::PrintUid(unsigned char const*)+0xc>
     18c: f9400108     	ldr	x8, [x8]
     190: f9400108     	ldr	x8, [x8]
     194: f81f83a8     	stur	x8, [x29, #-8]
     198: f81f03a0     	stur	x0, [x29, #-16]
     19c: f81e83a1     	stur	x1, [x29, #-24]
     1a0: f85e83a8     	ldur	x8, [x29, #-24]
     1a4: 3940010f     	ldrb	w15, [x8]
     1a8: f85e83a8     	ldur	x8, [x29, #-24]
     1ac: 3940050e     	ldrb	w14, [x8, #1]
     1b0: f85e83a8     	ldur	x8, [x29, #-24]
     1b4: 3940090d     	ldrb	w13, [x8, #2]
     1b8: f85e83a8     	ldur	x8, [x29, #-24]
     1bc: 39400d0c     	ldrb	w12, [x8, #3]
     1c0: f85e83a8     	ldur	x8, [x29, #-24]
     1c4: 3940110b     	ldrb	w11, [x8, #4]
     1c8: f85e83a8     	ldur	x8, [x29, #-24]
     1cc: 3940150a     	ldrb	w10, [x8, #5]
     1d0: 910003e9     	mov	x9, sp
     1d4: aa0f03e8     	mov	x8, x15
     1d8: f9000128     	str	x8, [x9]
     1dc: aa0e03e8     	mov	x8, x14
     1e0: f9000528     	str	x8, [x9, #8]
     1e4: aa0d03e8     	mov	x8, x13
     1e8: f9000928     	str	x8, [x9, #16]
     1ec: aa0c03e8     	mov	x8, x12
     1f0: f9000d28     	str	x8, [x9, #24]
     1f4: aa0b03e8     	mov	x8, x11
     1f8: f9001128     	str	x8, [x9, #32]
     1fc: aa0a03e8     	mov	x8, x10
     200: f9001528     	str	x8, [x9, #40]
     204: 90000000     	adrp	x0, 0x0 <RDMDiscovery::PrintUid(unsigned char const*)+0x88>
     208: 91000000     	add	x0, x0, #0
     20c: 94000000     	bl	0x20c <RDMDiscovery::PrintUid(unsigned char const*)+0x90>
     210: f85f83a9     	ldur	x9, [x29, #-8]
     214: 90000008     	adrp	x8, 0x0 <RDMDiscovery::PrintUid(unsigned char const*)+0x98>
     218: f9400108     	ldr	x8, [x8]
     21c: f9400108     	ldr	x8, [x8]
     220: eb090108     	subs	x8, x8, x9
     224: 1a9f17e8     	cset	w8, eq
     228: 37000068     	tbnz	w8, #0, 0x234 <RDMDiscovery::PrintUid(unsigned char const*)+0xb8>
     22c: 14000001     	b	0x230 <RDMDiscovery::PrintUid(unsigned char const*)+0xb4>
     230: 94000000     	bl	0x230 <RDMDiscovery::PrintUid(unsigned char const*)+0xb4>
     234: a9457bfd     	ldp	x29, x30, [sp, #80]
     238: 910183ff     	add	sp, sp, #96
     23c: d65f03c0     	ret

0000000000000240 <RDMDiscovery::RDMDiscovery(unsigned char const*)>:
     240: d100c3ff     	sub	sp, sp, #48
     244: a9027bfd     	stp	x29, x30, [sp, #32]
     248: 910083fd     	add	x29, sp, #32
     24c: 90000008     	adrp	x8, 0x0 <RDMDiscovery::RDMDiscovery(unsigned char const*)+0xc>
     250: f9400108     	ldr	x8, [x8]
     254: f9400108     	ldr	x8, [x8]
     258: f81f83a8     	stur	x8, [x29, #-8]
     25c: f9000be0     	str	x0, [sp, #16]
     260: f90007e1     	str	x1, [sp, #8]
     264: f9400be0     	ldr	x0, [sp, #16]
     268: f90003e0     	str	x0, [sp]
     26c: f94007e1     	ldr	x1, [sp, #8]
     270: 94000000     	bl	0x270 <RDMDiscovery::RDMDiscovery(unsigned char const*)+0x30>
     274: f85f83a9     	ldur	x9, [x29, #-8]
     278: 90000008     	adrp	x8, 0x0 <RDMDiscovery::RDMDiscovery(unsigned char const*)+0x38>
     27c: f9400108     	ldr	x8, [x8]
     280: f9400108     	ldr	x8, [x8]
     284: eb090108     	subs	x8, x8, x9
     288: 1a9f17e8     	cset	w8, eq
     28c: 37000068     	tbnz	w8, #0, 0x298 <RDMDiscovery::RDMDiscovery(unsigned char const*)+0x58>
     290: 14000001     	b	0x294 <RDMDiscovery::RDMDiscovery(unsigned char const*)+0x54>
     294: 94000000     	bl	0x294 <RDMDiscovery::RDMDiscovery(unsigned char const*)+0x54>
     298: f94003e0     	ldr	x0, [sp]
     29c: a9427bfd     	ldp	x29, x30, [sp, #32]
     2a0: 9100c3ff     	add	sp, sp, #48
     2a4: d65f03c0     	ret

00000000000002a8 <RDMDiscovery::Full(unsigned int, RDMTod*)>:
     2a8: d101c3ff     	sub	sp, sp, #112
     2ac: a9067bfd     	stp	x29, x30, [sp, #96]
     2b0: 910183fd     	add	x29, sp, #96
     2b4: 90000008     	adrp	x8, 0x0 <RDMDiscovery::Full(unsigned int, RDMTod*)+0xc>
     2b8: f9400108     	ldr	x8, [x8]
     2bc: f9400108     	ldr	x8, [x8]
     2c0: f81f83a8     	stur	x8, [x29, #-8]
     2c4: f81f03a0     	stur	x0, [x29, #-16]
     2c8: b81ec3a1     	stur	w1, [x29, #-20]
     2cc: f81e03a2     	stur	x2, [x29, #-32]
     2d0: f85f03a8     	ldur	x8, [x29, #-16]
     2d4: f90017e8     	str	x8, [sp, #40]
     2d8: 910003e9     	mov	x9, sp
     2dc: 90000008     	adrp	x8, 0x0 <RDMDiscovery::Full(unsigned int, RDMTod*)+0x34>
     2e0: 91000108     	add	x8, x8, #0
     2e4: f9001be8     	str	x8, [sp, #48]
     2e8: f9000128     	str	x8, [x9]
     2ec: 90000008     	adrp	x8, 0x0 <RDMDiscovery::Full(unsigned int, RDMTod*)+0x44>
     2f0: 91000108     	add	x8, x8, #0
     2f4: f81d83a8     	stur	x8, [x29, #-40]
     2f8: f9000528     	str	x8, [x9, #8]
     2fc: d2800768     	mov	x8, #59
     300: f9000928     	str	x8, [x9, #16]
     304: 90000000     	adrp	x0, 0x0 <RDMDiscovery::Full(unsigned int, RDMTod*)+0x5c>
     308: 91000000     	add	x0, x0, #0
     30c: 94000000     	bl	0x30c <RDMDiscovery::Full(unsigned int, RDMTod*)+0x64>
     310: f94017e8     	ldr	x8, [sp, #40]
     314: b85ec3a9     	ldur	w9, [x29, #-20]
     318: b9010509     	str	w9, [x8, #260]
     31c: f85e03a9     	ldur	x9, [x29, #-32]
     320: f9008509     	str	x9, [x8, #264]
     324: f9408500     	ldr	x0, [x8, #264]
     328: 94000000     	bl	0x328 <RDMDiscovery::Full(unsigned int, RDMTod*)+0x80>
     32c: 94000000     	bl	0x32c <RDMDiscovery::Full(unsigned int, RDMTod*)+0x84>
     330: 94000000     	bl	0x330 <RDMDiscovery::Full(unsigned int, RDMTod*)+0x88>
     334: f94017e0     	ldr	x0, [sp, #40]
     338: b85ec3a8     	ldur	w8, [x29, #-20]
     33c: 11000508     	add	w8, w8, #1
     340: 12001d01     	and	w1, w8, #0xff
     344: 94000000     	bl	0x344 <RDMDiscovery::Full(unsigned int, RDMTod*)+0x9c>
     348: f94017e0     	ldr	x0, [sp, #40]
     34c: 90000001     	adrp	x1, 0x0 <RDMDiscovery::Full(unsigned int, RDMTod*)+0xa4>
     350: 91000021     	add	x1, x1, #0
     354: 94000000     	bl	0x354 <RDMDiscovery::Full(unsigned int, RDMTod*)+0xac>
     358: f94017e0     	ldr	x0, [sp, #40]
     35c: 52800201     	mov	w1, #16
     360: 94000000     	bl	0x360 <RDMDiscovery::Full(unsigned int, RDMTod*)+0xb8>
     364: f94017e0     	ldr	x0, [sp, #40]
     368: 52800061     	mov	w1, #3
     36c: 94000000     	bl	0x36c <RDMDiscovery::Full(unsigned int, RDMTod*)+0xc4>
     370: f94017e0     	ldr	x0, [sp, #40]
     374: d2800001     	mov	x1, #0
     378: 52800002     	mov	w2, #0
     37c: b90023e2     	str	w2, [sp, #32]
     380: 94000000     	bl	0x380 <RDMDiscovery::Full(unsigned int, RDMTod*)+0xd8>
     384: b94023e2     	ldr	w2, [sp, #32]
     388: f94017e0     	ldr	x0, [sp, #40]
     38c: b9410401     	ldr	w1, [x0, #260]
     390: 94000000     	bl	0x390 <RDMDiscovery::Full(unsigned int, RDMTod*)+0xe8>
     394: f94017e8     	ldr	x8, [sp, #40]
     398: b9410500     	ldr	w0, [x8, #260]
     39c: 52815e01     	mov	w1, #2800
     3a0: b90027e1     	str	w1, [sp, #36]
     3a4: 94000000     	bl	0x3a4 <RDMDiscovery::Full(unsigned int, RDMTod*)+0xfc>
     3a8: 94000000     	bl	0x3a8 <RDMDiscovery::Full(unsigned int, RDMTod*)+0x100>
     3ac: 94000000     	bl	0x3ac <RDMDiscovery::Full(unsigned int, RDMTod*)+0x104>
     3b0: b94027e0     	ldr	w0, [sp, #36]
     3b4: 94000000     	bl	0x3b4 <RDMDiscovery::Full(unsigned int, RDMTod*)+0x10c>
     3b8: 94000000     	bl	0x3b8 <RDMDiscovery::Full(unsigned int, RDMTod*)+0x110>
     3bc: 94000000     	bl	0x3bc <RDMDiscovery::Full(unsigned int, RDMTod*)+0x114>
     3c0: b94023e2     	ldr	w2, [sp, #32]
     3c4: f94017e0     	ldr	x0, [sp, #40]
     3c8: b9410401     	ldr	w1, [x0, #260]
     3cc: 94000000     	bl	0x3cc <RDMDiscovery::Full(unsigned int, RDMTod*)+0x124>
     3d0: b94027e1     	ldr	w1, [sp, #36]
     3d4: f94017e8     	ldr	x8, [sp, #40]
     3d8: b9410500     	ldr	w0, [x8, #260]
     3dc: 94000000     	bl	0x3dc <RDMDiscovery::Full(unsigned int, RDMTod*)+0x134>
     3e0: 94000000     	bl	0x3e0 <RDMDiscovery::Full(unsigned int, RDMTod*)+0x138>
     3e4: 94000000     	bl	0x3e4 <RDMDiscovery::Full(unsigned int, RDMTod*)+0x13c>
     3e8: b94027e0     	ldr	w0, [sp, #36]
     3ec: 94000000     	bl	0x3ec <RDMDiscovery::Full(unsigned int, RDMTod*)+0x144>
     3f0: 94000000     	bl	0x3f0 <RDMDiscovery::Full(unsigned int, RDMTod*)+0x148>
     3f4: 94000000     	bl	0x3f4 <RDMDiscovery::Full(unsigned int, RDMTod*)+0x14c>
     3f8: f94017e0     	ldr	x0, [sp, #40]
     3fc: d2800001     	mov	x1, #0
     400: b27fbbe2     	mov	x2, #281474976710654
     404: 94000000     	bl	0x404 <RDMDiscovery::Full(unsigned int, RDMTod*)+0x15c>
     408: f94017e8     	ldr	x8, [sp, #40]
     40c: f9408500     	ldr	x0, [x8, #264]
     410: 94000000     	bl	0x410 <RDMDiscovery::Full(unsigned int, RDMTod*)+0x168>
     414: f9401bea     	ldr	x10, [sp, #48]
     418: f85d83a8     	ldur	x8, [x29, #-40]
     41c: 910003e9     	mov	x9, sp
     420: f900012a     	str	x10, [x9]
     424: f9000528     	str	x8, [x9, #8]
     428: d2800b48     	mov	x8, #90
     42c: f9000928     	str	x8, [x9, #16]
     430: 90000000     	adrp	x0, 0x0 <RDMDiscovery::Full(unsigned int, RDMTod*)+0x188>
     434: 91000000     	add	x0, x0, #0
     438: 94000000     	bl	0x438 <RDMDiscovery::Full(unsigned int, RDMTod*)+0x190>
     43c: f85f83a9     	ldur	x9, [x29, #-8]
     440: 90000008     	adrp	x8, 0x0 <RDMDiscovery::Full(unsigned int, RDMTod*)+0x198>
     444: f9400108     	ldr	x8, [x8]
     448: f9400108     	ldr	x8, [x8]
     44c: eb090108     	subs	x8, x8, x9
     450: 1a9f17e8     	cset	w8, eq
     454: 37000068     	tbnz	w8, #0, 0x460 <RDMDiscovery::Full(unsigned int, RDMTod*)+0x1b8>
     458: 14000001     	b	0x45c <RDMDiscovery::Full(unsigned int, RDMTod*)+0x1b4>
     45c: 94000000     	bl	0x45c <RDMDiscovery::Full(unsigned int, RDMTod*)+0x1b4>
     460: a9467bfd     	ldp	x29, x30, [sp, #96]
     464: 9101c3ff     	add	sp, sp, #112
     468: d65f03c0     	ret

000000000000046c <RDMTod::Reset()>:
     46c: d100c3ff     	sub	sp, sp, #48
     470: a9027bfd     	stp	x29, x30, [sp, #32]
     474: 910083fd     	add	x29, sp, #32
     478: 90000008     	adrp	x8, 0x0 <RDMTod::Reset()+0xc>
     47c: f9400108     	ldr	x8, [x8]
     480: f9400108     	ldr	x8, [x8]
     484: f81f83a8     	stur	x8, [x29, #-8]
     488: f9000be0     	str	x0, [sp, #16]
     48c: f9400be8     	ldr	x8, [sp, #16]
     490: f90003e8     	str	x8, [sp]
     494: b9000fff     	str	wzr, [sp, #12]
     498: 14000001     	b	0x49c <RDMTod::Reset()+0x30>
     49c: f94003e9     	ldr	x9, [sp]
     4a0: b9400fe8     	ldr	w8, [sp, #12]
     4a4: b9400129     	ldr	w9, [x9]
     4a8: 6b090108     	subs	w8, w8, w9
     4ac: 1a9f37e8     	cset	w8, hs
     4b0: 37000288     	tbnz	w8, #0, 0x500 <RDMTod::Reset()+0x94>
     4b4: 14000001     	b	0x4b8 <RDMTod::Reset()+0x4c>
     4b8: f94003e8     	ldr	x8, [sp]
     4bc: 91009108     	add	x8, x8, #36
     4c0: b9400fe9     	ldr	w9, [sp, #12]
     4c4: d28000ca     	mov	x10, #6
     4c8: 9b0a7d29     	mul	x9, x9, x10
     4cc: 8b090109     	add	x9, x8, x9
     4d0: 9000000a     	adrp	x10, 0x0 <RDMTod::Reset()+0x64>
     4d4: 90000008     	adrp	x8, 0x0 <RDMTod::Reset()+0x68>
     4d8: 91000108     	add	x8, x8, #0
     4dc: b940014a     	ldr	w10, [x10]
     4e0: b900012a     	str	w10, [x9]
     4e4: 79400908     	ldrh	w8, [x8, #4]
     4e8: 79000928     	strh	w8, [x9, #4]
     4ec: 14000001     	b	0x4f0 <RDMTod::Reset()+0x84>
     4f0: b9400fe8     	ldr	w8, [sp, #12]
     4f4: 11000508     	add	w8, w8, #1
     4f8: b9000fe8     	str	w8, [sp, #12]
     4fc: 17ffffe8     	b	0x49c <RDMTod::Reset()+0x30>
     500: f94003e8     	ldr	x8, [sp]
     504: b900011f     	str	wzr, [x8]
     508: b9000bff     	str	wzr, [sp, #8]
     50c: 14000001     	b	0x510 <RDMTod::Reset()+0xa4>
     510: b9400be8     	ldr	w8, [sp, #8]
     514: 71001d08     	subs	w8, w8, #7
     518: 1a9f37e8     	cset	w8, hs
     51c: 370001a8     	tbnz	w8, #0, 0x550 <RDMTod::Reset()+0xe4>
     520: 14000001     	b	0x524 <RDMTod::Reset()+0xb8>
     524: f94003e8     	ldr	x8, [sp]
     528: 91002109     	add	x9, x8, #8
     52c: b9400be8     	ldr	w8, [sp, #8]
     530: aa0803ea     	mov	x10, x8
     534: 52800008     	mov	w8, #0
     538: b82a7928     	str	w8, [x9, x10, lsl  #2]
     53c: 14000001     	b	0x540 <RDMTod::Reset()+0xd4>
     540: b9400be8     	ldr	w8, [sp, #8]
     544: 11000508     	add	w8, w8, #1
     548: b9000be8     	str	w8, [sp, #8]
     54c: 17fffff1     	b	0x510 <RDMTod::Reset()+0xa4>
     550: f85f83a9     	ldur	x9, [x29, #-8]
     554: 90000008     	adrp	x8, 0x0 <RDMTod::Reset()+0xe8>
     558: f9400108     	ldr	x8, [x8]
     55c: f9400108     	ldr	x8, [x8]
     560: eb090108     	subs	x8, x8, x9
     564: 1a9f17e8     	cset	w8, eq
     568: 37000068     	tbnz	w8, #0, 0x574 <RDMTod::Reset()+0x108>
     56c: 14000001     	b	0x570 <RDMTod::Reset()+0x104>
     570: 94000000     	bl	0x570 <RDMTod::Reset()+0x104>
     574: a9427bfd     	ldp	x29, x30, [sp, #32]
     578: 9100c3ff     	add	sp, sp, #48
     57c: d65f03c0     	ret

0000000000000580 <Hardware::Get()>:
     580: d10083ff     	sub	sp, sp, #32
     584: a9017bfd     	stp	x29, x30, [sp, #16]
     588: 910043fd     	add	x29, sp, #16
     58c: 90000008     	adrp	x8, 0x0 <Hardware::Get()+0xc>
     590: f9400108     	ldr	x8, [x8]
     594: f9400108     	ldr	x8, [x8]
     598: f90007e8     	str	x8, [sp, #8]
     59c: 90000008     	adrp	x8, 0x0 <Hardware::Get()+0x1c>
     5a0: f9400108     	ldr	x8, [x8]
     5a4: f9400108     	ldr	x8, [x8]
     5a8: f90003e8     	str	x8, [sp]
     5ac: f94007e9     	ldr	x9, [sp, #8]
     5b0: 90000008     	adrp	x8, 0x0 <Hardware::Get()+0x30>
     5b4: f9400108     	ldr	x8, [x8]
     5b8: f9400108     	ldr	x8, [x8]
     5bc: eb090108     	subs	x8, x8, x9
     5c0: 1a9f17e8     	cset	w8, eq
     5c4: 37000068     	tbnz	w8, #0, 0x5d0 <Hardware::Get()+0x50>
     5c8: 14000001     	b	0x5cc <Hardware::Get()+0x4c>
     5cc: 94000000     	bl	0x5cc <Hardware::Get()+0x4c>
     5d0: f94003e0     	ldr	x0, [sp]
     5d4: a9417bfd     	ldp	x29, x30, [sp, #16]
     5d8: 910083ff     	add	sp, sp, #32
     5dc: d65f03c0     	ret

00000000000005e0 <Hardware::WatchdogFeed()>:
     5e0: d10083ff     	sub	sp, sp, #32
     5e4: a9017bfd     	stp	x29, x30, [sp, #16]
     5e8: 910043fd     	add	x29, sp, #16
     5ec: 90000008     	adrp	x8, 0x0 <Hardware::WatchdogFeed()+0xc>
     5f0: f9400108     	ldr	x8, [x8]
     5f4: f9400108     	ldr	x8, [x8]
     5f8: f90007e8     	str	x8, [sp, #8]
     5fc: f90003e0     	str	x0, [sp]
     600: f94007e9     	ldr	x9, [sp, #8]
     604: 90000008     	adrp	x8, 0x0 <Hardware::WatchdogFeed()+0x24>
     608: f9400108     	ldr	x8, [x8]
     60c: f9400108     	ldr	x8, [x8]
     610: eb090108     	subs	x8, x8, x9
     614: 1a9f17e8     	cset	w8, eq
     618: 37000068     	tbnz	w8, #0, 0x624 <Hardware::WatchdogFeed()+0x44>
     61c: 14000001     	b	0x620 <Hardware::WatchdogFeed()+0x40>
     620: 94000000     	bl	0x620 <Hardware::WatchdogFeed()+0x40>
     624: a9417bfd     	ldp	x29, x30, [sp, #16]
     628: 910083ff     	add	sp, sp, #32
     62c: d65f03c0     	ret

0000000000000630 <RDMMessage::SetPortID(unsigned char)>:
     630: d100c3ff     	sub	sp, sp, #48
     634: a9027bfd     	stp	x29, x30, [sp, #32]
     638: 910083fd     	add	x29, sp, #32
     63c: 90000008     	adrp	x8, 0x0 <RDMMessage::SetPortID(unsigned char)+0xc>
     640: f9400108     	ldr	x8, [x8]
     644: f9400108     	ldr	x8, [x8]
     648: f81f83a8     	stur	x8, [x29, #-8]
     64c: f9000be0     	str	x0, [sp, #16]
     650: 39003fe1     	strb	w1, [sp, #15]
     654: f9400be8     	ldr	x8, [sp, #16]
     658: f90003e8     	str	x8, [sp]
     65c: 39403fe8     	ldrb	w8, [sp, #15]
     660: 71000108     	subs	w8, w8, #0
     664: 1a9fd7e8     	cset	w8, gt
     668: 37000148     	tbnz	w8, #0, 0x690 <RDMMessage::SetPortID(unsigned char)+0x60>
     66c: 14000001     	b	0x670 <RDMMessage::SetPortID(unsigned char)+0x40>
     670: 90000000     	adrp	x0, 0x0 <RDMMessage::SetPortID(unsigned char)+0x40>
     674: 91000000     	add	x0, x0, #0
     678: 90000001     	adrp	x1, 0x0 <RDMMessage::SetPortID(unsigned char)+0x48>
     67c: 91000021     	add	x1, x1, #0
     680: 52800682     	mov	w2, #52
     684: 90000003     	adrp	x3, 0x0 <RDMMessage::SetPortID(unsigned char)+0x54>
     688: 91000063     	add	x3, x3, #0
     68c: 94000000     	bl	0x68c <RDMMessage::SetPortID(unsigned char)+0x5c>
     690: 14000001     	b	0x694 <RDMMessage::SetPortID(unsigned char)+0x64>
     694: f94003e9     	ldr	x9, [sp]
     698: 39403fe8     	ldrb	w8, [sp, #15]
     69c: 39004128     	strb	w8, [x9, #16]
     6a0: f85f83a9     	ldur	x9, [x29, #-8]
     6a4: 90000008     	adrp	x8, 0x0 <RDMMessage::SetPortID(unsigned char)+0x74>
     6a8: f9400108     	ldr	x8, [x8]
     6ac: f9400108     	ldr	x8, [x8]
     6b0: eb090108     	subs	x8, x8, x9
     6b4: 1a9f17e8     	cset	w8, eq
     6b8: 37000068     	tbnz	w8, #0, 0x6c4 <RDMMessage::SetPortID(unsigned char)+0x94>
     6bc: 14000001     	b	0x6c0 <RDMMessage::SetPortID(unsigned char)+0x90>
     6c0: 94000000     	bl	0x6c0 <RDMMessage::SetPortID(unsigned char)+0x90>
     6c4: a9427bfd     	ldp	x29, x30, [sp, #32]
     6c8: 9100c3ff     	add	sp, sp, #48
     6cc: d65f03c0     	ret

00000000000006d0 <RDMMessage::SetDstUid(unsigned char const*)>:
     6d0: d100c3ff     	sub	sp, sp, #48
     6d4: a9027bfd     	stp	x29, x30, [sp, #32]
     6d8: 910083fd     	add	x29, sp, #32
     6dc: 90000008     	adrp	x8, 0x0 <RDMMessage::SetDstUid(unsigned char const*)+0xc>
     6e0: f9400108     	ldr	x8, [x8]
     6e4: f9400108     	ldr	x8, [x8]
     6e8: f81f83a8     	stur	x8, [x29, #-8]
     6ec: f9000be0     	str	x0, [sp, #16]
     6f0: f90007e1     	str	x1, [sp, #8]
     6f4: f9400be9     	ldr	x9, [sp, #16]
     6f8: f94007e8     	ldr	x8, [sp, #8]
     6fc: b940010a     	ldr	w10, [x8]
     700: b800312a     	stur	w10, [x9, #3]
     704: 79400908     	ldrh	w8, [x8, #4]
     708: 91001d29     	add	x9, x9, #7
     70c: 79000128     	strh	w8, [x9]
     710: f85f83a9     	ldur	x9, [x29, #-8]
     714: 90000008     	adrp	x8, 0x0 <RDMMessage::SetDstUid(unsigned char const*)+0x44>
     718: f9400108     	ldr	x8, [x8]
     71c: f9400108     	ldr	x8, [x8]
     720: eb090108     	subs	x8, x8, x9
     724: 1a9f17e8     	cset	w8, eq
     728: 37000068     	tbnz	w8, #0, 0x734 <RDMMessage::SetDstUid(unsigned char const*)+0x64>
     72c: 14000001     	b	0x730 <RDMMessage::SetDstUid(unsigned char const*)+0x60>
     730: 94000000     	bl	0x730 <RDMMessage::SetDstUid(unsigned char const*)+0x60>
     734: a9427bfd     	ldp	x29, x30, [sp, #32]
     738: 9100c3ff     	add	sp, sp, #48
     73c: d65f03c0     	ret

0000000000000740 <RDMMessage::SetCc(unsigned char)>:
     740: d100c3ff     	sub	sp, sp, #48
     744: a9027bfd     	stp	x29, x30, [sp, #32]
     748: 910083fd     	add	x29, sp, #32
     74c: 90000008     	adrp	x8, 0x0 <RDMMessage::SetCc(unsigned char)+0xc>
     750: f9400108     	ldr	x8, [x8]
     754: f9400108     	ldr	x8, [x8]
     758: f81f83a8     	stur	x8, [x29, #-8]
     75c: f9000be0     	str	x0, [sp, #16]
     760: 39003fe1     	strb	w1, [sp, #15]
     764: f9400be9     	ldr	x9, [sp, #16]
     768: 39403fe8     	ldrb	w8, [sp, #15]
     76c: 39005128     	strb	w8, [x9, #20]
     770: f85f83a9     	ldur	x9, [x29, #-8]
     774: 90000008     	adrp	x8, 0x0 <RDMMessage::SetCc(unsigned char)+0x34>
     778: f9400108     	ldr	x8, [x8]
     77c: f9400108     	ldr	x8, [x8]
     780: eb090108     	subs	x8, x8, x9
     784: 1a9f17e8     	cset	w8, eq
     788: 37000068     	tbnz	w8, #0, 0x794 <RDMMessage::SetCc(unsigned char)+0x54>
     78c: 14000001     	b	0x790 <RDMMessage::SetCc(unsigned char)+0x50>
     790: 94000000     	bl	0x790 <RDMMessage::SetCc(unsigned char)+0x50>
     794: a9427bfd     	ldp	x29, x30, [sp, #32]
     798: 9100c3ff     	add	sp, sp, #48
     79c: d65f03c0     	ret

00000000000007a0 <RDMMessage::SetPid(unsigned short)>:
     7a0: d100c3ff     	sub	sp, sp, #48
     7a4: a9027bfd     	stp	x29, x30, [sp, #32]
     7a8: 910083fd     	add	x29, sp, #32
     7ac: 90000008     	adrp	x8, 0x0 <RDMMessage::SetPid(unsigned short)+0xc>
     7b0: f9400108     	ldr	x8, [x8]
     7b4: f9400108     	ldr	x8, [x8]
     7b8: f81f83a8     	stur	x8, [x29, #-8]
     7bc: f9000be0     	str	x0, [sp, #16]
     7c0: 79001fe1     	strh	w1, [sp, #14]
     7c4: f9400be9     	ldr	x9, [sp, #16]
     7c8: 79401fe8     	ldrh	w8, [sp, #14]
     7cc: 13087d08     	asr	w8, w8, #8
     7d0: 39005528     	strb	w8, [x9, #21]
     7d4: 79401fe8     	ldrh	w8, [sp, #14]
     7d8: 39005928     	strb	w8, [x9, #22]
     7dc: f85f83a9     	ldur	x9, [x29, #-8]
     7e0: 90000008     	adrp	x8, 0x0 <RDMMessage::SetPid(unsigned short)+0x40>
     7e4: f9400108     	ldr	x8, [x8]
     7e8: f9400108     	ldr	x8, [x8]
     7ec: eb090108     	subs	x8, x8, x9
     7f0: 1a9f17e8     	cset	w8, eq
     7f4: 37000068     	tbnz	w8, #0, 0x800 <RDMMessage::SetPid(unsigned short)+0x60>
     7f8: 14000001     	b	0x7fc <RDMMessage::SetPid(unsigned short)+0x5c>
     7fc: 94000000     	bl	0x7fc <RDMMessage::SetPid(unsigned short)+0x5c>
     800: a9427bfd     	ldp	x29, x30, [sp, #32]
     804: 9100c3ff     	add	sp, sp, #48
     808: d65f03c0     	ret

000000000000080c <RDMMessage::SetPd(unsigned char const*, unsigned char)>:
     80c: d10103ff     	sub	sp, sp, #64
     810: a9037bfd     	stp	x29, x30, [sp, #48]
     814: 9100c3fd     	add	x29, sp, #48
     818: 90000008     	adrp	x8, 0x0 <RDMMessage::SetPd(unsigned char const*, unsigned char)+0xc>
     81c: f9400108     	ldr	x8, [x8]
     820: f9400108     	ldr	x8, [x8]
     824: f81f83a8     	stur	x8, [x29, #-8]
     828: f81f03a0     	stur	x0, [x29, #-16]
     82c: f9000fe1     	str	x1, [sp, #24]
     830: 39005fe2     	strb	w2, [sp, #23]
     834: f85f03a9     	ldur	x9, [x29, #-16]
     838: f90007e9     	str	x9, [sp, #8]
     83c: 39400928     	ldrb	w8, [x9, #2]
     840: 39405d2a     	ldrb	w10, [x9, #23]
     844: 6b0a0108     	subs	w8, w8, w10
     848: 39000928     	strb	w8, [x9, #2]
     84c: 39405fe8     	ldrb	w8, [sp, #23]
     850: 39005d28     	strb	w8, [x9, #23]
     854: f9400fe8     	ldr	x8, [sp, #24]
     858: f1000108     	subs	x8, x8, #0
     85c: 1a9f17e8     	cset	w8, eq
     860: 370001c8     	tbnz	w8, #0, 0x898 <RDMMessage::SetPd(unsigned char const*, unsigned char)+0x8c>
     864: 14000001     	b	0x868 <RDMMessage::SetPd(unsigned char const*, unsigned char)+0x5c>
     868: 39405fe8     	ldrb	w8, [sp, #23]
     86c: 71000108     	subs	w8, w8, #0
     870: 1a9f17e8     	cset	w8, eq
     874: 37000128     	tbnz	w8, #0, 0x898 <RDMMessage::SetPd(unsigned char const*, unsigned char)+0x8c>
     878: 14000001     	b	0x87c <RDMMessage::SetPd(unsigned char const*, unsigned char)+0x70>
     87c: f94007e8     	ldr	x8, [sp, #8]
     880: 91006100     	add	x0, x8, #24
     884: f9400fe1     	ldr	x1, [sp, #24]
     888: 39405fe8     	ldrb	w8, [sp, #23]
     88c: aa0803e2     	mov	x2, x8
     890: 94000000     	bl	0x890 <RDMMessage::SetPd(unsigned char const*, unsigned char)+0x84>
     894: 14000001     	b	0x898 <RDMMessage::SetPd(unsigned char const*, unsigned char)+0x8c>
     898: f94007e9     	ldr	x9, [sp, #8]
     89c: 39400928     	ldrb	w8, [x9, #2]
     8a0: 39405fea     	ldrb	w10, [sp, #23]
     8a4: 0b0a0108     	add	w8, w8, w10
     8a8: 39000928     	strb	w8, [x9, #2]
     8ac: f85f83a9     	ldur	x9, [x29, #-8]
     8b0: 90000008     	adrp	x8, 0x0 <RDMMessage::SetPd(unsigned char const*, unsigned char)+0xa4>
     8b4: f9400108     	ldr	x8, [x8]
     8b8: f9400108     	ldr	x8, [x8]
     8bc: eb090108     	subs	x8, x8, x9
     8c0: 1a9f17e8     	cset	w8, eq
     8c4: 37000068     	tbnz	w8, #0, 0x8d0 <RDMMessage::SetPd(unsigned char const*, unsigned char)+0xc4>
     8c8: 14000001     	b	0x8cc <RDMMessage::SetPd(unsigned char const*, unsigned char)+0xc0>
     8cc: 94000000     	bl	0x8cc <RDMMessage::SetPd(unsigned char const*, unsigned char)+0xc0>
     8d0: a9437bfd     	ldp	x29, x30, [sp, #48]
     8d4: 910103ff     	add	sp, sp, #64
     8d8: d65f03c0     	ret

00000000000008dc <RDMMessage::Send(unsigned int, unsigned int)>:
     8dc: d100c3ff     	sub	sp, sp, #48
     8e0: a9027bfd     	stp	x29, x30, [sp, #32]
     8e4: 910083fd     	add	x29, sp, #32
     8e8: 90000008     	adrp	x8, 0x0 <RDMMessage::Send(unsigned int, unsigned int)+0xc>
     8ec: f9400108     	ldr	x8, [x8]
     8f0: f9400108     	ldr	x8, [x8]
     8f4: f81f83a8     	stur	x8, [x29, #-8]
     8f8: f9000be0     	str	x0, [sp, #16]
     8fc: b9000fe1     	str	w1, [sp, #12]
     900: b9000be2     	str	w2, [sp, #8]
     904: f9400be0     	ldr	x0, [sp, #16]
     908: f90003e0     	str	x0, [sp]
     90c: 94000000     	bl	0x90c <RDMMessage::Send(unsigned int, unsigned int)+0x30>
     910: f94003e1     	ldr	x1, [sp]
     914: b9400fe0     	ldr	w0, [sp, #12]
     918: b9400be2     	ldr	w2, [sp, #8]
     91c: 94000000     	bl	0x91c <RDMMessage::Send(unsigned int, unsigned int)+0x40>
     920: f85f83a9     	ldur	x9, [x29, #-8]
     924: 90000008     	adrp	x8, 0x0 <RDMMessage::Send(unsigned int, unsigned int)+0x48>
     928: f9400108     	ldr	x8, [x8]
     92c: f9400108     	ldr	x8, [x8]
     930: eb090108     	subs	x8, x8, x9
     934: 1a9f17e8     	cset	w8, eq
     938: 37000068     	tbnz	w8, #0, 0x944 <RDMMessage::Send(unsigned int, unsigned int)+0x68>
     93c: 14000001     	b	0x940 <RDMMessage::Send(unsigned int, unsigned int)+0x64>
     940: 94000000     	bl	0x940 <RDMMessage::Send(unsigned int, unsigned int)+0x64>
     944: a9427bfd     	ldp	x29, x30, [sp, #32]
     948: 9100c3ff     	add	sp, sp, #48
     94c: d65f03c0     	ret

0000000000000950 <_udelay>:
     950: d10083ff     	sub	sp, sp, #32
     954: a9017bfd     	stp	x29, x30, [sp, #16]
     958: 910043fd     	add	x29, sp, #16
     95c: 90000008     	adrp	x8, 0x0 <_udelay+0xc>
     960: f9400108     	ldr	x8, [x8]
     964: f9400108     	ldr	x8, [x8]
     968: f90007e8     	str	x8, [sp, #8]
     96c: b90007e0     	str	w0, [sp, #4]
     970: f94007e9     	ldr	x9, [sp, #8]
     974: 90000008     	adrp	x8, 0x0 <_udelay+0x24>
     978: f9400108     	ldr	x8, [x8]
     97c: f9400108     	ldr	x8, [x8]
     980: eb090108     	subs	x8, x8, x9
     984: 1a9f17e8     	cset	w8, eq
     988: 37000068     	tbnz	w8, #0, 0x994 <_udelay+0x44>
     98c: 14000001     	b	0x990 <_udelay+0x40>
     990: 94000000     	bl	0x990 <_udelay+0x40>
     994: a9417bfd     	ldp	x29, x30, [sp, #16]
     998: 910083ff     	add	sp, sp, #32
     99c: d65f03c0     	ret

00000000000009a0 <RDMDiscovery::FindDevices(unsigned long long, unsigned long long)>:
     9a0: d10243ff     	sub	sp, sp, #144
     9a4: a9087bfd     	stp	x29, x30, [sp, #128]
     9a8: 910203fd     	add	x29, sp, #128
     9ac: 90000008     	adrp	x8, 0x0 <RDMDiscovery::FindDevices(unsigned long long, unsigned long long)+0xc>
     9b0: f9400108     	ldr	x8, [x8]
     9b4: f9400108     	ldr	x8, [x8]
     9b8: f81f83a8     	stur	x8, [x29, #-8]
     9bc: f81e03a0     	stur	x0, [x29, #-32]
     9c0: f81d83a1     	stur	x1, [x29, #-40]
     9c4: f81d03a2     	stur	x2, [x29, #-48]
     9c8: f85e03a8     	ldur	x8, [x29, #-32]
     9cc: f90013e8     	str	x8, [sp, #32]
     9d0: 94000000     	bl	0x9d0 <RDMDiscovery::FindDevices(unsigned long long, unsigned long long)+0x30>
     9d4: 94000000     	bl	0x9d4 <RDMDiscovery::FindDevices(unsigned long long, unsigned long long)+0x34>
     9d8: f94013e8     	ldr	x8, [sp, #32]
     9dc: b9410500     	ldr	w0, [x8, #260]
     9e0: 94000000     	bl	0x9e0 <RDMDiscovery::FindDevices(unsigned long long, unsigned long long)+0x40>
     9e4: f81c83a0     	stur	x0, [x29, #-56]
     9e8: f85c83a8     	ldur	x8, [x29, #-56]
     9ec: f1000108     	subs	x8, x8, #0
     9f0: 1a9f17e8     	cset	w8, eq
     9f4: 37000168     	tbnz	w8, #0, 0xa20 <RDMDiscovery::FindDevices(unsigned long long, unsigned long long)+0x80>
     9f8: 14000001     	b	0x9fc <RDMDiscovery::FindDevices(unsigned long long, unsigned long long)+0x5c>
     9fc: 910003e9     	mov	x9, sp
     a00: d2800c68     	mov	x8, #99
     a04: f9000128     	str	x8, [x9]
     a08: 90000000     	adrp	x0, 0x0 <RDMDiscovery::FindDevices(unsigned long long, unsigned long long)+0x68>
     a0c: 91000000     	add	x0, x0, #0
     a10: 94000000     	bl	0xa10 <RDMDiscovery::FindDevices(unsigned long long, unsigned long long)+0x70>
     a14: f85c83a0     	ldur	x0, [x29, #-56]
     a18: 94000000     	bl	0xa18 <RDMDiscovery::FindDevices(unsigned long long, unsigned long long)+0x78>
     a1c: 14000001     	b	0xa20 <RDMDiscovery::FindDevices(unsigned long long, unsigned long long)+0x80>
     a20: 90000000     	adrp	x0, 0x0 <RDMDiscovery::FindDevices(unsigned long long, unsigned long long)+0x80>
     a24: 91000000     	add	x0, x0, #0
     a28: 94000000     	bl	0xa28 <RDMDiscovery::FindDevices(unsigned long long, unsigned long long)+0x88>
     a2c: f94013e0     	ldr	x0, [sp, #32]
     a30: f85d83a1     	ldur	x1, [x29, #-40]
     a34: 94000000     	bl	0xa34 <RDMDiscovery::FindDevices(unsigned long long, unsigned long long)+0x94>
     a38: 90000000     	adrp	x0, 0x0 <RDMDiscovery::FindDevices(unsigned long long, unsigned long long)+0x98>
     a3c: 91000000     	add	x0, x0, #0
     a40: 94000000     	bl	0xa40 <RDMDiscovery::FindDevices(unsigned long long, unsigned long long)+0xa0>
     a44: f94013e0     	ldr	x0, [sp, #32]
     a48: f85d03a1     	ldur	x1, [x29, #-48]
     a4c: 94000000     	bl	0xa4c <RDMDiscovery::FindDevices(unsigned long long, unsigned long long)+0xac>
     a50: 90000000     	adrp	x0, 0x0 <RDMDiscovery::FindDevices(unsigned long long, unsigned long long)+0xb0>
     a54: 91000000     	add	x0, x0, #0
     a58: 94000000     	bl	0xa58 <RDMDiscovery::FindDevices(unsigned long long, unsigned long long)+0xb8>
     a5c: f85d83a8     	ldur	x8, [x29, #-40]
     a60: f85d03a9     	ldur	x9, [x29, #-48]
     a64: eb090108     	subs	x8, x8, x9
     a68: 1a9f07e8     	cset	w8, ne
     a6c: 37000f48     	tbnz	w8, #0, 0xc54 <RDMDiscovery::FindDevices(unsigned long long, unsigned long long)+0x2b4>
     a70: 14000001     	b	0xa74 <RDMDiscovery::FindDevices(unsigned long long, unsigned long long)+0xd4>
     a74: f94013e0     	ldr	x0, [sp, #32]
     a78: f85d83a1     	ldur	x1, [x29, #-40]
     a7c: 94000000     	bl	0xa7c <RDMDiscovery::FindDevices(unsigned long long, unsigned long long)+0xdc>
     a80: aa0003e8     	mov	x8, x0
     a84: f94013e0     	ldr	x0, [sp, #32]
     a88: b9400109     	ldr	w9, [x8]
     a8c: d10043aa     	sub	x10, x29, #16
     a90: f9000fea     	str	x10, [sp, #24]
     a94: b81f03a9     	stur	w9, [x29, #-16]
     a98: 79400908     	ldrh	w8, [x8, #4]
     a9c: 781f43a8     	sturh	w8, [x29, #-12]
     aa0: 52800201     	mov	w1, #16
     aa4: 94000000     	bl	0xaa4 <RDMDiscovery::FindDevices(unsigned long long, unsigned long long)+0x104>
     aa8: f94013e0     	ldr	x0, [sp, #32]
     aac: 52800041     	mov	w1, #2
     ab0: 94000000     	bl	0xab0 <RDMDiscovery::FindDevices(unsigned long long, unsigned long long)+0x110>
     ab4: f9400fe1     	ldr	x1, [sp, #24]
     ab8: f94013e0     	ldr	x0, [sp, #32]
     abc: 94000000     	bl	0xabc <RDMDiscovery::FindDevices(unsigned long long, unsigned long long)+0x11c>
     ac0: f94013e0     	ldr	x0, [sp, #32]
     ac4: d2800001     	mov	x1, #0
     ac8: 52800002     	mov	w2, #0
     acc: 94000000     	bl	0xacc <RDMDiscovery::FindDevices(unsigned long long, unsigned long long)+0x12c>
     ad0: b9003fff     	str	wzr, [sp, #60]
     ad4: 14000001     	b	0xad8 <RDMDiscovery::FindDevices(unsigned long long, unsigned long long)+0x138>
     ad8: b9403fe8     	ldr	w8, [sp, #60]
     adc: 11000508     	add	w8, w8, #1
     ae0: b9003fe8     	str	w8, [sp, #60]
     ae4: 71002908     	subs	w8, w8, #10
     ae8: 1a9f07e8     	cset	w8, ne
     aec: 37000068     	tbnz	w8, #0, 0xaf8 <RDMDiscovery::FindDevices(unsigned long long, unsigned long long)+0x158>
     af0: 14000001     	b	0xaf4 <RDMDiscovery::FindDevices(unsigned long long, unsigned long long)+0x154>
     af4: 14000029     	b	0xb98 <RDMDiscovery::FindDevices(unsigned long long, unsigned long long)+0x1f8>
     af8: 94000000     	bl	0xaf8 <RDMDiscovery::FindDevices(unsigned long long, unsigned long long)+0x158>
     afc: 94000000     	bl	0xafc <RDMDiscovery::FindDevices(unsigned long long, unsigned long long)+0x15c>
     b00: f94013e0     	ldr	x0, [sp, #32]
     b04: b9410401     	ldr	w1, [x0, #260]
     b08: 5282d502     	mov	w2, #5800
     b0c: 94000000     	bl	0xb0c <RDMDiscovery::FindDevices(unsigned long long, unsigned long long)+0x16c>
     b10: f94013e8     	ldr	x8, [sp, #32]
     b14: b9410500     	ldr	w0, [x8, #260]
     b18: 52815e01     	mov	w1, #2800
     b1c: 94000000     	bl	0xb1c <RDMDiscovery::FindDevices(unsigned long long, unsigned long long)+0x17c>
     b20: f90023e0     	str	x0, [sp, #64]
     b24: f94023e8     	ldr	x8, [sp, #64]
     b28: f1000108     	subs	x8, x8, #0
     b2c: 1a9f17e8     	cset	w8, eq
     b30: 37000288     	tbnz	w8, #0, 0xb80 <RDMDiscovery::FindDevices(unsigned long long, unsigned long long)+0x1e0>
     b34: 14000001     	b	0xb38 <RDMDiscovery::FindDevices(unsigned long long, unsigned long long)+0x198>
     b38: f94023e8     	ldr	x8, [sp, #64]
     b3c: 39405108     	ldrb	w8, [x8, #20]
     b40: 71004508     	subs	w8, w8, #17
     b44: 1a9f07e8     	cset	w8, ne
     b48: 37000188     	tbnz	w8, #0, 0xb78 <RDMDiscovery::FindDevices(unsigned long long, unsigned long long)+0x1d8>
     b4c: 14000001     	b	0xb50 <RDMDiscovery::FindDevices(unsigned long long, unsigned long long)+0x1b0>
     b50: f94023e8     	ldr	x8, [sp, #64]
     b54: 39405509     	ldrb	w9, [x8, #21]
     b58: f94023e8     	ldr	x8, [sp, #64]
     b5c: 39405908     	ldrb	w8, [x8, #22]
     b60: 0b092108     	add	w8, w8, w9, lsl #8
     b64: 12003d08     	and	w8, w8, #0xffff
     b68: 71000908     	subs	w8, w8, #2
     b6c: 1a9f17e8     	cset	w8, eq
     b70: 37000068     	tbnz	w8, #0, 0xb7c <RDMDiscovery::FindDevices(unsigned long long, unsigned long long)+0x1dc>
     b74: 14000001     	b	0xb78 <RDMDiscovery::FindDevices(unsigned long long, unsigned long long)+0x1d8>
     b78: 14000003     	b	0xb84 <RDMDiscovery::FindDevices(unsigned long long, unsigned long long)+0x1e4>
     b7c: 14000001     	b	0xb80 <RDMDiscovery::FindDevices(unsigned long long, unsigned long long)+0x1e0>
     b80: 14000001     	b	0xb84 <RDMDiscovery::FindDevices(unsigned long long, unsigned long long)+0x1e4>
     b84: f94023e8     	ldr	x8, [sp, #64]
     b88: f1000108     	subs	x8, x8, #0
     b8c: 1a9f17e8     	cset	w8, eq
     b90: 3707fa48     	tbnz	w8, #0, 0xad8 <RDMDiscovery::FindDevices(unsigned long long, unsigned long long)+0x138>
     b94: 14000001     	b	0xb98 <RDMDiscovery::FindDevices(unsigned long long, unsigned long long)+0x1f8>
     b98: f94023e8     	ldr	x8, [sp, #64]
     b9c: f1000108     	subs	x8, x8, #0
     ba0: 1a9f17e8     	cset	w8, eq
     ba4: 370004c8     	tbnz	w8, #0, 0xc3c <RDMDiscovery::FindDevices(unsigned long long, unsigned long long)+0x29c>
     ba8: 14000001     	b	0xbac <RDMDiscovery::FindDevices(unsigned long long, unsigned long long)+0x20c>
     bac: f94023e0     	ldr	x0, [sp, #64]
     bb0: 94000000     	bl	0xbb0 <RDMDiscovery::FindDevices(unsigned long long, unsigned long long)+0x210>
     bb4: f94023e8     	ldr	x8, [sp, #64]
     bb8: 39405108     	ldrb	w8, [x8, #20]
     bbc: 71004508     	subs	w8, w8, #17
     bc0: 1a9f07e8     	cset	w8, ne
     bc4: 37000208     	tbnz	w8, #0, 0xc04 <RDMDiscovery::FindDevices(unsigned long long, unsigned long long)+0x264>
     bc8: 14000001     	b	0xbcc <RDMDiscovery::FindDevices(unsigned long long, unsigned long long)+0x22c>
     bcc: f94023e8     	ldr	x8, [sp, #64]
     bd0: 91002501     	add	x1, x8, #9
     bd4: d10043a0     	sub	x0, x29, #16
     bd8: d28000c2     	mov	x2, #6
     bdc: 94000000     	bl	0xbdc <RDMDiscovery::FindDevices(unsigned long long, unsigned long long)+0x23c>
     be0: 71000008     	subs	w8, w0, #0
     be4: 1a9f07e8     	cset	w8, ne
     be8: 370000e8     	tbnz	w8, #0, 0xc04 <RDMDiscovery::FindDevices(unsigned long long, unsigned long long)+0x264>
     bec: 14000001     	b	0xbf0 <RDMDiscovery::FindDevices(unsigned long long, unsigned long long)+0x250>
     bf0: f94013e8     	ldr	x8, [sp, #32]
     bf4: f9408500     	ldr	x0, [x8, #264]
     bf8: d10043a1     	sub	x1, x29, #16
     bfc: 94000000     	bl	0xbfc <RDMDiscovery::FindDevices(unsigned long long, unsigned long long)+0x25c>
     c00: 1400000e     	b	0xc38 <RDMDiscovery::FindDevices(unsigned long long, unsigned long long)+0x298>
     c04: 910003e9     	mov	x9, sp
     c08: d28012c8     	mov	x8, #150
     c0c: f9000128     	str	x8, [x9]
     c10: 90000000     	adrp	x0, 0x0 <RDMDiscovery::FindDevices(unsigned long long, unsigned long long)+0x270>
     c14: 91000000     	add	x0, x0, #0
     c18: 94000000     	bl	0xc18 <RDMDiscovery::FindDevices(unsigned long long, unsigned long long)+0x278>
     c1c: f94013e0     	ldr	x0, [sp, #32]
     c20: d10043a1     	sub	x1, x29, #16
     c24: 94000000     	bl	0xc24 <RDMDiscovery::FindDevices(unsigned long long, unsigned long long)+0x284>
     c28: 90000000     	adrp	x0, 0x0 <RDMDiscovery::FindDevices(unsigned long long, unsigned long long)+0x288>
     c2c: 91000000     	add	x0, x0, #0
     c30: 94000000     	bl	0xc30 <RDMDiscovery::FindDevices(unsigned long long, unsigned long long)+0x290>
     c34: 14000001     	b	0xc38 <RDMDiscovery::FindDevices(unsigned long long, unsigned long long)+0x298>
     c38: 14000006     	b	0xc50 <RDMDiscovery::FindDevices(unsigned long long, unsigned long long)+0x2b0>
     c3c: 52800028     	mov	w8, #1
     c40: 12000108     	and	w8, w8, #0x1
     c44: 12000108     	and	w8, w8, #0x1
     c48: 381ef3a8     	sturb	w8, [x29, #-17]
     c4c: 14000094     	b	0xe9c <RDMDiscovery::FindDevices(unsigned long long, unsigned long long)+0x4fc>
     c50: 1400008e     	b	0xe88 <RDMDiscovery::FindDevices(unsigned long long, unsigned long long)+0x4e8>
     c54: f94013e0     	ldr	x0, [sp, #32]
     c58: 91045808     	add	x8, x0, #278
     c5c: f9000be8     	str	x8, [sp, #16]
     c60: f85d83a1     	ldur	x1, [x29, #-40]
     c64: 94000000     	bl	0xc64 <RDMDiscovery::FindDevices(unsigned long long, unsigned long long)+0x2c4>
     c68: f9400bea     	ldr	x10, [sp, #16]
     c6c: aa0003e8     	mov	x8, x0
     c70: f94013e0     	ldr	x0, [sp, #32]
     c74: b9400109     	ldr	w9, [x8]
     c78: b9000149     	str	w9, [x10]
     c7c: 79400908     	ldrh	w8, [x8, #4]
     c80: 79023408     	strh	w8, [x0, #282]
     c84: f85d03a1     	ldur	x1, [x29, #-48]
     c88: 94000000     	bl	0xc88 <RDMDiscovery::FindDevices(unsigned long long, unsigned long long)+0x2e8>
     c8c: aa0003e8     	mov	x8, x0
     c90: f94013e0     	ldr	x0, [sp, #32]
     c94: b9400109     	ldr	w9, [x8]
     c98: b9011c09     	str	w9, [x0, #284]
     c9c: 79400908     	ldrh	w8, [x8, #4]
     ca0: 79024008     	strh	w8, [x0, #288]
     ca4: 90000001     	adrp	x1, 0x0 <RDMDiscovery::FindDevices(unsigned long long, unsigned long long)+0x304>
     ca8: 91000021     	add	x1, x1, #0
     cac: 94000000     	bl	0xcac <RDMDiscovery::FindDevices(unsigned long long, unsigned long long)+0x30c>
     cb0: f94013e0     	ldr	x0, [sp, #32]
     cb4: 52800201     	mov	w1, #16
     cb8: 94000000     	bl	0xcb8 <RDMDiscovery::FindDevices(unsigned long long, unsigned long long)+0x318>
     cbc: f94013e0     	ldr	x0, [sp, #32]
     cc0: 52800021     	mov	w1, #1
     cc4: 94000000     	bl	0xcc4 <RDMDiscovery::FindDevices(unsigned long long, unsigned long long)+0x324>
     cc8: f94013e0     	ldr	x0, [sp, #32]
     ccc: 91045801     	add	x1, x0, #278
     cd0: 52800182     	mov	w2, #12
     cd4: 94000000     	bl	0xcd4 <RDMDiscovery::FindDevices(unsigned long long, unsigned long long)+0x334>
     cd8: b9003bff     	str	wzr, [sp, #56]
     cdc: 14000001     	b	0xce0 <RDMDiscovery::FindDevices(unsigned long long, unsigned long long)+0x340>
     ce0: b9403be8     	ldr	w8, [sp, #56]
     ce4: 11000508     	add	w8, w8, #1
     ce8: b9003be8     	str	w8, [sp, #56]
     cec: 71000d08     	subs	w8, w8, #3
     cf0: 1a9f07e8     	cset	w8, ne
     cf4: 37000068     	tbnz	w8, #0, 0xd00 <RDMDiscovery::FindDevices(unsigned long long, unsigned long long)+0x360>
     cf8: 14000001     	b	0xcfc <RDMDiscovery::FindDevices(unsigned long long, unsigned long long)+0x35c>
     cfc: 14000012     	b	0xd44 <RDMDiscovery::FindDevices(unsigned long long, unsigned long long)+0x3a4>
     d00: 94000000     	bl	0xd00 <RDMDiscovery::FindDevices(unsigned long long, unsigned long long)+0x360>
     d04: 94000000     	bl	0xd04 <RDMDiscovery::FindDevices(unsigned long long, unsigned long long)+0x364>
     d08: f94013e0     	ldr	x0, [sp, #32]
     d0c: b9410401     	ldr	w1, [x0, #260]
     d10: 5282d502     	mov	w2, #5800
     d14: 94000000     	bl	0xd14 <RDMDiscovery::FindDevices(unsigned long long, unsigned long long)+0x374>
     d18: f94013e8     	ldr	x8, [sp, #32]
     d1c: b9410500     	ldr	w0, [x8, #260]
     d20: 52815e01     	mov	w1, #2800
     d24: 94000000     	bl	0xd24 <RDMDiscovery::FindDevices(unsigned long long, unsigned long long)+0x384>
     d28: f90023e0     	str	x0, [sp, #64]
     d2c: 14000001     	b	0xd30 <RDMDiscovery::FindDevices(unsigned long long, unsigned long long)+0x390>
     d30: f94023e8     	ldr	x8, [sp, #64]
     d34: f1000108     	subs	x8, x8, #0
     d38: 1a9f17e8     	cset	w8, eq
     d3c: 3707fd28     	tbnz	w8, #0, 0xce0 <RDMDiscovery::FindDevices(unsigned long long, unsigned long long)+0x340>
     d40: 14000001     	b	0xd44 <RDMDiscovery::FindDevices(unsigned long long, unsigned long long)+0x3a4>
     d44: f94023e8     	ldr	x8, [sp, #64]
     d48: f1000108     	subs	x8, x8, #0
     d4c: 1a9f17e8     	cset	w8, eq
     d50: 370009a8     	tbnz	w8, #0, 0xe84 <RDMDiscovery::FindDevices(unsigned long long, unsigned long long)+0x4e4>
     d54: 14000001     	b	0xd58 <RDMDiscovery::FindDevices(unsigned long long, unsigned long long)+0x3b8>
     d58: f94013e0     	ldr	x0, [sp, #32]
     d5c: 52800028     	mov	w8, #1
     d60: 3900dfe8     	strb	w8, [sp, #55]
     d64: f94023e1     	ldr	x1, [sp, #64]
     d68: d10043a2     	sub	x2, x29, #16
     d6c: 94000000     	bl	0xd6c <RDMDiscovery::FindDevices(unsigned long long, unsigned long long)+0x3cc>
     d70: 36000100     	tbz	w0, #0, 0xd90 <RDMDiscovery::FindDevices(unsigned long long, unsigned long long)+0x3f0>
     d74: 14000001     	b	0xd78 <RDMDiscovery::FindDevices(unsigned long long, unsigned long long)+0x3d8>
     d78: f94013e0     	ldr	x0, [sp, #32]
     d7c: d10043a1     	sub	x1, x29, #16
     d80: 94000000     	bl	0xd80 <RDMDiscovery::FindDevices(unsigned long long, unsigned long long)+0x3e0>
     d84: 12000008     	and	w8, w0, #0x1
     d88: 3900dfe8     	strb	w8, [sp, #55]
     d8c: 14000001     	b	0xd90 <RDMDiscovery::FindDevices(unsigned long long, unsigned long long)+0x3f0>
     d90: 3940dfe8     	ldrb	w8, [sp, #55]
     d94: 36000768     	tbz	w8, #0, 0xe80 <RDMDiscovery::FindDevices(unsigned long long, unsigned long long)+0x4e0>
     d98: 14000001     	b	0xd9c <RDMDiscovery::FindDevices(unsigned long long, unsigned long long)+0x3fc>
     d9c: f94013e0     	ldr	x0, [sp, #32]
     da0: f85d83a8     	ldur	x8, [x29, #-40]
     da4: 9240b908     	and	x8, x8, #0x7fffffffffff
     da8: f85d03a9     	ldur	x9, [x29, #-48]
     dac: 9240b929     	and	x9, x9, #0x7fffffffffff
     db0: 8b090108     	add	x8, x8, x9
     db4: d2800049     	mov	x9, #2
     db8: 9ac90908     	udiv	x8, x8, x9
     dbc: f85d03a9     	ldur	x9, [x29, #-48]
     dc0: d280000a     	mov	x10, #0
     dc4: f2510129     	ands	x9, x9, #0x800000000000
     dc8: 1a9f07e9     	cset	w9, ne
     dcc: 5280002b     	mov	w11, #1
     dd0: b9000feb     	str	w11, [sp, #12]
     dd4: 1200012b     	and	w11, w9, #0x1
     dd8: d2c80009     	mov	x9, #70368744177664
     ddc: 7200016b     	ands	w11, w11, #0x1
     de0: 9a8a112b     	csel	x11, x9, x10, ne
     de4: 8b0b0108     	add	x8, x8, x11
     de8: f85d83ab     	ldur	x11, [x29, #-40]
     dec: f251016b     	ands	x11, x11, #0x800000000000
     df0: 1a9f07eb     	cset	w11, ne
     df4: 1200016b     	and	w11, w11, #0x1
     df8: 7200016b     	ands	w11, w11, #0x1
     dfc: 9a8a1129     	csel	x9, x9, x10, ne
     e00: 8b090108     	add	x8, x8, x9
     e04: f90017e8     	str	x8, [sp, #40]
     e08: f85d83a1     	ldur	x1, [x29, #-40]
     e0c: f94017e2     	ldr	x2, [sp, #40]
     e10: 97fffee4     	bl	0x9a0 <RDMDiscovery::FindDevices(unsigned long long, unsigned long long)>
     e14: b9400fe9     	ldr	w9, [sp, #12]
     e18: aa0003e8     	mov	x8, x0
     e1c: f94013e0     	ldr	x0, [sp, #32]
     e20: 0a090108     	and	w8, w8, w9
     e24: 3900dfe8     	strb	w8, [sp, #55]
     e28: f94017e8     	ldr	x8, [sp, #40]
     e2c: 91000501     	add	x1, x8, #1
     e30: f85d03a2     	ldur	x2, [x29, #-48]
     e34: 97fffedb     	bl	0x9a0 <RDMDiscovery::FindDevices(unsigned long long, unsigned long long)>
     e38: b9400fe9     	ldr	w9, [sp, #12]
     e3c: 1200000a     	and	w10, w0, #0x1
     e40: 3940dfe8     	ldrb	w8, [sp, #55]
     e44: 12000108     	and	w8, w8, #0x1
     e48: 2a0a0108     	orr	w8, w8, w10
     e4c: 71000108     	subs	w8, w8, #0
     e50: 1a9f07e8     	cset	w8, ne
     e54: 0a090108     	and	w8, w8, w9
     e58: 3900dfe8     	strb	w8, [sp, #55]
     e5c: 3940dfe8     	ldrb	w8, [sp, #55]
     e60: 360000e8     	tbz	w8, #0, 0xe7c <RDMDiscovery::FindDevices(unsigned long long, unsigned long long)+0x4dc>
     e64: 14000001     	b	0xe68 <RDMDiscovery::FindDevices(unsigned long long, unsigned long long)+0x4c8>
     e68: 52800028     	mov	w8, #1
     e6c: 12000108     	and	w8, w8, #0x1
     e70: 12000108     	and	w8, w8, #0x1
     e74: 381ef3a8     	sturb	w8, [x29, #-17]
     e78: 14000009     	b	0xe9c <RDMDiscovery::FindDevices(unsigned long long, unsigned long long)+0x4fc>
     e7c: 14000001     	b	0xe80 <RDMDiscovery::FindDevices(unsigned long long, unsigned long long)+0x4e0>
     e80: 14000001     	b	0xe84 <RDMDiscovery::FindDevices(unsigned long long, unsigned long long)+0x4e4>
     e84: 14000001     	b	0xe88 <RDMDiscovery::FindDevices(unsigned long long, unsigned long long)+0x4e8>
     e88: 52800008     	mov	w8, #0
     e8c: 12000108     	and	w8, w8, #0x1
     e90: 12000108     	and	w8, w8, #0x1
     e94: 381ef3a8     	sturb	w8, [x29, #-17]
     e98: 14000001     	b	0xe9c <RDMDiscovery::FindDevices(unsigned long long, unsigned long long)+0x4fc>
     e9c: 385ef3a8     	ldurb	w8, [x29, #-17]
     ea0: b9000be8     	str	w8, [sp, #8]
     ea4: f85f83a9     	ldur	x9, [x29, #-8]
     ea8: 90000008     	adrp	x8, 0x0 <RDMDiscovery::FindDevices(unsigned long long, unsigned long long)+0x508>
     eac: f9400108     	ldr	x8, [x8]
     eb0: f9400108     	ldr	x8, [x8]
     eb4: eb090108     	subs	x8, x8, x9
     eb8: 1a9f17e8     	cset	w8, eq
     ebc: 37000068     	tbnz	w8, #0, 0xec8 <RDMDiscovery::FindDevices(unsigned long long, unsigned long long)+0x528>
     ec0: 14000001     	b	0xec4 <RDMDiscovery::FindDevices(unsigned long long, unsigned long long)+0x524>
     ec4: 94000000     	bl	0xec4 <RDMDiscovery::FindDevices(unsigned long long, unsigned long long)+0x524>
     ec8: b9400be8     	ldr	w8, [sp, #8]
     ecc: 12000100     	and	w0, w8, #0x1
     ed0: a9487bfd     	ldp	x29, x30, [sp, #128]
     ed4: 910243ff     	add	sp, sp, #144
     ed8: d65f03c0     	ret

0000000000000edc <RDMTod::Dump()>:
     edc: d10083ff     	sub	sp, sp, #32
     ee0: a9017bfd     	stp	x29, x30, [sp, #16]
     ee4: 910043fd     	add	x29, sp, #16
     ee8: 90000008     	adrp	x8, 0x0 <RDMTod::Dump()+0xc>
     eec: f9400108     	ldr	x8, [x8]
     ef0: f9400108     	ldr	x8, [x8]
     ef4: f90007e8     	str	x8, [sp, #8]
     ef8: f90003e0     	str	x0, [sp]
     efc: f94003e0     	ldr	x0, [sp]
     f00: b9400001     	ldr	w1, [x0]
     f04: 94000000     	bl	0xf04 <RDMTod::Dump()+0x28>
     f08: f94007e9     	ldr	x9, [sp, #8]
     f0c: 90000008     	adrp	x8, 0x0 <RDMTod::Dump()+0x30>
     f10: f9400108     	ldr	x8, [x8]
     f14: f9400108     	ldr	x8, [x8]
     f18: eb090108     	subs	x8, x8, x9
     f1c: 1a9f17e8     	cset	w8, eq
     f20: 37000068     	tbnz	w8, #0, 0xf2c <RDMTod::Dump()+0x50>
     f24: 14000001     	b	0xf28 <RDMTod::Dump()+0x4c>
     f28: 94000000     	bl	0xf28 <RDMTod::Dump()+0x4c>
     f2c: a9417bfd     	ldp	x29, x30, [sp, #16]
     f30: 910083ff     	add	sp, sp, #32
     f34: d65f03c0     	ret

0000000000000f38 <RDMDiscovery::PrintUid(unsigned long long)>:
     f38: d100c3ff     	sub	sp, sp, #48
     f3c: a9027bfd     	stp	x29, x30, [sp, #32]
     f40: 910083fd     	add	x29, sp, #32
     f44: 90000008     	adrp	x8, 0x0 <RDMDiscovery::PrintUid(unsigned long long)+0xc>
     f48: f9400108     	ldr	x8, [x8]
     f4c: f9400108     	ldr	x8, [x8]
     f50: f81f83a8     	stur	x8, [x29, #-8]
     f54: f9000be0     	str	x0, [sp, #16]
     f58: f90007e1     	str	x1, [sp, #8]
     f5c: f9400be0     	ldr	x0, [sp, #16]
     f60: f90003e0     	str	x0, [sp]
     f64: f94007e1     	ldr	x1, [sp, #8]
     f68: 94000000     	bl	0xf68 <RDMDiscovery::PrintUid(unsigned long long)+0x30>
     f6c: aa0003e1     	mov	x1, x0
     f70: f94003e0     	ldr	x0, [sp]
     f74: 94000000     	bl	0xf74 <RDMDiscovery::PrintUid(unsigned long long)+0x3c>
     f78: f85f83a9     	ldur	x9, [x29, #-8]
     f7c: 90000008     	adrp	x8, 0x0 <RDMDiscovery::PrintUid(unsigned long long)+0x44>
     f80: f9400108     	ldr	x8, [x8]
     f84: f9400108     	ldr	x8, [x8]
     f88: eb090108     	subs	x8, x8, x9
     f8c: 1a9f17e8     	cset	w8, eq
     f90: 37000068     	tbnz	w8, #0, 0xf9c <RDMDiscovery::PrintUid(unsigned long long)+0x64>
     f94: 14000001     	b	0xf98 <RDMDiscovery::PrintUid(unsigned long long)+0x60>
     f98: 94000000     	bl	0xf98 <RDMDiscovery::PrintUid(unsigned long long)+0x60>
     f9c: a9427bfd     	ldp	x29, x30, [sp, #32]
     fa0: 9100c3ff     	add	sp, sp, #48
     fa4: d65f03c0     	ret

0000000000000fa8 <RDMDiscovery::ConvertUid(unsigned long long)>:
     fa8: d100c3ff     	sub	sp, sp, #48
     fac: a9027bfd     	stp	x29, x30, [sp, #32]
     fb0: 910083fd     	add	x29, sp, #32
     fb4: 90000008     	adrp	x8, 0x0 <RDMDiscovery::ConvertUid(unsigned long long)+0xc>
     fb8: f9400108     	ldr	x8, [x8]
     fbc: f9400108     	ldr	x8, [x8]
     fc0: f81f83a8     	stur	x8, [x29, #-8]
     fc4: f9000be0     	str	x0, [sp, #16]
     fc8: f90007e1     	str	x1, [sp, #8]
     fcc: f94007e8     	ldr	x8, [sp, #8]
     fd0: d370bd08     	lsl	x8, x8, #16
     fd4: dac00d08     	rev	x8, x8
     fd8: 90000009     	adrp	x9, 0x0 <RDMDiscovery::ConvertUid(unsigned long long)+0x30>
     fdc: f9000128     	str	x8, [x9]
     fe0: f85f83a9     	ldur	x9, [x29, #-8]
     fe4: 90000008     	adrp	x8, 0x0 <RDMDiscovery::ConvertUid(unsigned long long)+0x3c>
     fe8: f9400108     	ldr	x8, [x8]
     fec: f9400108     	ldr	x8, [x8]
     ff0: eb090108     	subs	x8, x8, x9
     ff4: 1a9f17e8     	cset	w8, eq
     ff8: 37000068     	tbnz	w8, #0, 0x1004 <RDMDiscovery::ConvertUid(unsigned long long)+0x5c>
     ffc: 14000001     	b	0x1000 <RDMDiscovery::ConvertUid(unsigned long long)+0x58>
    1000: 94000000     	bl	0x1000 <RDMDiscovery::ConvertUid(unsigned long long)+0x58>
    1004: 90000000     	adrp	x0, 0x1000 <RDMDiscovery::ConvertUid(unsigned long long)+0x5c>
    1008: 91000000     	add	x0, x0, #0
    100c: a9427bfd     	ldp	x29, x30, [sp, #32]
    1010: 9100c3ff     	add	sp, sp, #48
    1014: d65f03c0     	ret

0000000000001018 <RDMTod::AddUid(unsigned char const*)>:
    1018: d10103ff     	sub	sp, sp, #64
    101c: a9037bfd     	stp	x29, x30, [sp, #48]
    1020: 9100c3fd     	add	x29, sp, #48
    1024: 90000008     	adrp	x8, 0x1000 <RDMTod::AddUid(unsigned char const*)+0xc>
    1028: f9400108     	ldr	x8, [x8]
    102c: f9400108     	ldr	x8, [x8]
    1030: f81f83a8     	stur	x8, [x29, #-8]
    1034: f9000fe0     	str	x0, [sp, #24]
    1038: f9000be1     	str	x1, [sp, #16]
    103c: f9400fe8     	ldr	x8, [sp, #24]
    1040: f90007e8     	str	x8, [sp, #8]
    1044: b9400108     	ldr	w8, [x8]
    1048: 71032108     	subs	w8, w8, #200
    104c: 1a9f07e8     	cset	w8, ne
    1050: 370000e8     	tbnz	w8, #0, 0x106c <RDMTod::AddUid(unsigned char const*)+0x54>
    1054: 14000001     	b	0x1058 <RDMTod::AddUid(unsigned char const*)+0x40>
    1058: 52800008     	mov	w8, #0
    105c: 12000108     	and	w8, w8, #0x1
    1060: 12000108     	and	w8, w8, #0x1
    1064: 381f73a8     	sturb	w8, [x29, #-9]
    1068: 1400001e     	b	0x10e0 <RDMTod::AddUid(unsigned char const*)+0xc8>
    106c: f94007e0     	ldr	x0, [sp, #8]
    1070: f9400be1     	ldr	x1, [sp, #16]
    1074: 94000000     	bl	0x1074 <RDMTod::AddUid(unsigned char const*)+0x5c>
    1078: 360000e0     	tbz	w0, #0, 0x1094 <RDMTod::AddUid(unsigned char const*)+0x7c>
    107c: 14000001     	b	0x1080 <RDMTod::AddUid(unsigned char const*)+0x68>
    1080: 52800008     	mov	w8, #0
    1084: 12000108     	and	w8, w8, #0x1
    1088: 12000108     	and	w8, w8, #0x1
    108c: 381f73a8     	sturb	w8, [x29, #-9]
    1090: 14000014     	b	0x10e0 <RDMTod::AddUid(unsigned char const*)+0xc8>
    1094: f94007eb     	ldr	x11, [sp, #8]
    1098: 91009168     	add	x8, x11, #36
    109c: b9400169     	ldr	w9, [x11]
    10a0: aa0903ea     	mov	x10, x9
    10a4: 1100054a     	add	w10, w10, #1
    10a8: b900016a     	str	w10, [x11]
    10ac: d28000ca     	mov	x10, #6
    10b0: 9b0a7d29     	mul	x9, x9, x10
    10b4: 8b090109     	add	x9, x8, x9
    10b8: f9400be8     	ldr	x8, [sp, #16]
    10bc: b940010a     	ldr	w10, [x8]
    10c0: b900012a     	str	w10, [x9]
    10c4: 79400908     	ldrh	w8, [x8, #4]
    10c8: 79000928     	strh	w8, [x9, #4]
    10cc: 52800028     	mov	w8, #1
    10d0: 12000108     	and	w8, w8, #0x1
    10d4: 12000108     	and	w8, w8, #0x1
    10d8: 381f73a8     	sturb	w8, [x29, #-9]
    10dc: 14000001     	b	0x10e0 <RDMTod::AddUid(unsigned char const*)+0xc8>
    10e0: 385f73a8     	ldurb	w8, [x29, #-9]
    10e4: b90007e8     	str	w8, [sp, #4]
    10e8: f85f83a9     	ldur	x9, [x29, #-8]
    10ec: 90000008     	adrp	x8, 0x1000 <RDMTod::AddUid(unsigned char const*)+0xd4>
    10f0: f9400108     	ldr	x8, [x8]
    10f4: f9400108     	ldr	x8, [x8]
    10f8: eb090108     	subs	x8, x8, x9
    10fc: 1a9f17e8     	cset	w8, eq
    1100: 37000068     	tbnz	w8, #0, 0x110c <RDMTod::AddUid(unsigned char const*)+0xf4>
    1104: 14000001     	b	0x1108 <RDMTod::AddUid(unsigned char const*)+0xf0>
    1108: 94000000     	bl	0x1108 <RDMTod::AddUid(unsigned char const*)+0xf0>
    110c: b94007e8     	ldr	w8, [sp, #4]
    1110: 12000100     	and	w0, w8, #0x1
    1114: a9437bfd     	ldp	x29, x30, [sp, #48]
    1118: 910103ff     	add	sp, sp, #64
    111c: d65f03c0     	ret

0000000000001120 <RDMDiscovery::IsValidDiscoveryResponse(unsigned char const*, unsigned char*)>:
    1120: d101c3ff     	sub	sp, sp, #112
    1124: a9067bfd     	stp	x29, x30, [sp, #96]
    1128: 910183fd     	add	x29, sp, #96
    112c: 90000008     	adrp	x8, 0x1000 <RDMDiscovery::IsValidDiscoveryResponse(unsigned char const*, unsigned char*)+0xc>
    1130: f9400108     	ldr	x8, [x8]
    1134: f9400108     	ldr	x8, [x8]
    1138: f81f83a8     	stur	x8, [x29, #-8]
    113c: f81e83a0     	stur	x0, [x29, #-24]
    1140: f81e03a1     	stur	x1, [x29, #-32]
    1144: f81d83a2     	stur	x2, [x29, #-40]
    1148: f85e83a8     	ldur	x8, [x29, #-24]
    114c: f90017e8     	str	x8, [sp, #40]
    1150: 5280bf48     	mov	w8, #1530
    1154: 781d63a8     	sturh	w8, [x29, #-42]
    1158: 381d53bf     	sturb	wzr, [x29, #-43]
    115c: f85e03a8     	ldur	x8, [x29, #-32]
    1160: 39400108     	ldrb	w8, [x8]
    1164: 7103f908     	subs	w8, w8, #254
    1168: 1a9f07e8     	cset	w8, ne
    116c: 37000e68     	tbnz	w8, #0, 0x1338 <RDMDiscovery::IsValidDiscoveryResponse(unsigned char const*, unsigned char*)+0x218>
    1170: 14000001     	b	0x1174 <RDMDiscovery::IsValidDiscoveryResponse(unsigned char const*, unsigned char*)+0x54>
    1174: f85e03a8     	ldur	x8, [x29, #-32]
    1178: 39402108     	ldrb	w8, [x8, #8]
    117c: f85e03a9     	ldur	x9, [x29, #-32]
    1180: 39402529     	ldrb	w9, [x9, #9]
    1184: 0a090108     	and	w8, w8, w9
    1188: f85d83a9     	ldur	x9, [x29, #-40]
    118c: 39000128     	strb	w8, [x9]
    1190: f85e03a8     	ldur	x8, [x29, #-32]
    1194: 39402908     	ldrb	w8, [x8, #10]
    1198: f85e03a9     	ldur	x9, [x29, #-32]
    119c: 39402d29     	ldrb	w9, [x9, #11]
    11a0: 0a090108     	and	w8, w8, w9
    11a4: f85d83a9     	ldur	x9, [x29, #-40]
    11a8: 39000528     	strb	w8, [x9, #1]
    11ac: f85e03a8     	ldur	x8, [x29, #-32]
    11b0: 39403108     	ldrb	w8, [x8, #12]
    11b4: f85e03a9     	ldur	x9, [x29, #-32]
    11b8: 39403529     	ldrb	w9, [x9, #13]
    11bc: 0a090108     	and	w8, w8, w9
    11c0: f85d83a9     	ldur	x9, [x29, #-40]
    11c4: 39000928     	strb	w8, [x9, #2]
    11c8: f85e03a8     	ldur	x8, [x29, #-32]
    11cc: 39403908     	ldrb	w8, [x8, #14]
    11d0: f85e03a9     	ldur	x9, [x29, #-32]
    11d4: 39403d29     	ldrb	w9, [x9, #15]
    11d8: 0a090108     	and	w8, w8, w9
    11dc: f85d83a9     	ldur	x9, [x29, #-40]
    11e0: 39000d28     	strb	w8, [x9, #3]
    11e4: f85e03a8     	ldur	x8, [x29, #-32]
    11e8: 39404108     	ldrb	w8, [x8, #16]
    11ec: f85e03a9     	ldur	x9, [x29, #-32]
    11f0: 39404529     	ldrb	w9, [x9, #17]
    11f4: 0a090108     	and	w8, w8, w9
    11f8: f85d83a9     	ldur	x9, [x29, #-40]
    11fc: 39001128     	strb	w8, [x9, #4]
    1200: f85e03a8     	ldur	x8, [x29, #-32]
    1204: 39404908     	ldrb	w8, [x8, #18]
    1208: f85e03a9     	ldur	x9, [x29, #-32]
    120c: 39404d29     	ldrb	w9, [x9, #19]
    1210: 0a090108     	and	w8, w8, w9
    1214: f85d83a9     	ldur	x9, [x29, #-40]
    1218: 39001528     	strb	w8, [x9, #5]
    121c: f85e03a8     	ldur	x8, [x29, #-32]
    1220: 39405908     	ldrb	w8, [x8, #22]
    1224: f85e03a9     	ldur	x9, [x29, #-32]
    1228: 39405d29     	ldrb	w9, [x9, #23]
    122c: 0a090108     	and	w8, w8, w9
    1230: 381f63a8     	sturb	w8, [x29, #-10]
    1234: f85e03a8     	ldur	x8, [x29, #-32]
    1238: 39405108     	ldrb	w8, [x8, #20]
    123c: f85e03a9     	ldur	x9, [x29, #-32]
    1240: 39405529     	ldrb	w9, [x9, #21]
    1244: 0a090108     	and	w8, w8, w9
    1248: 381f73a8     	sturb	w8, [x29, #-9]
    124c: b90033ff     	str	wzr, [sp, #48]
    1250: 14000001     	b	0x1254 <RDMDiscovery::IsValidDiscoveryResponse(unsigned char const*, unsigned char*)+0x134>
    1254: b94033e8     	ldr	w8, [sp, #48]
    1258: 71001908     	subs	w8, w8, #6
    125c: 1a9f37e8     	cset	w8, hs
    1260: 370001a8     	tbnz	w8, #0, 0x1294 <RDMDiscovery::IsValidDiscoveryResponse(unsigned char const*, unsigned char*)+0x174>
    1264: 14000001     	b	0x1268 <RDMDiscovery::IsValidDiscoveryResponse(unsigned char const*, unsigned char*)+0x148>
    1268: 785d63a8     	ldurh	w8, [x29, #-42]
    126c: f85d83a9     	ldur	x9, [x29, #-40]
    1270: b94033ea     	ldr	w10, [sp, #48]
    1274: 386a6929     	ldrb	w9, [x9, x10]
    1278: 0b090108     	add	w8, w8, w9
    127c: 781d63a8     	sturh	w8, [x29, #-42]
    1280: 14000001     	b	0x1284 <RDMDiscovery::IsValidDiscoveryResponse(unsigned char const*, unsigned char*)+0x164>
    1284: b94033e8     	ldr	w8, [sp, #48]
    1288: 11000508     	add	w8, w8, #1
    128c: b90033e8     	str	w8, [sp, #48]
    1290: 17fffff1     	b	0x1254 <RDMDiscovery::IsValidDiscoveryResponse(unsigned char const*, unsigned char*)+0x134>
    1294: 785d63a9     	ldurh	w9, [x29, #-42]
    1298: 385f73a8     	ldurb	w8, [x29, #-9]
    129c: 6b892108     	subs	w8, w8, w9, asr #8
    12a0: 1a9f07e8     	cset	w8, ne
    12a4: 37000168     	tbnz	w8, #0, 0x12d0 <RDMDiscovery::IsValidDiscoveryResponse(unsigned char const*, unsigned char*)+0x1b0>
    12a8: 14000001     	b	0x12ac <RDMDiscovery::IsValidDiscoveryResponse(unsigned char const*, unsigned char*)+0x18c>
    12ac: 385d63a8     	ldurb	w8, [x29, #-42]
    12b0: 385f63a9     	ldurb	w9, [x29, #-10]
    12b4: 6b090108     	subs	w8, w8, w9
    12b8: 1a9f07e8     	cset	w8, ne
    12bc: 370000a8     	tbnz	w8, #0, 0x12d0 <RDMDiscovery::IsValidDiscoveryResponse(unsigned char const*, unsigned char*)+0x1b0>
    12c0: 14000001     	b	0x12c4 <RDMDiscovery::IsValidDiscoveryResponse(unsigned char const*, unsigned char*)+0x1a4>
    12c4: 52800028     	mov	w8, #1
    12c8: 381d53a8     	sturb	w8, [x29, #-43]
    12cc: 14000001     	b	0x12d0 <RDMDiscovery::IsValidDiscoveryResponse(unsigned char const*, unsigned char*)+0x1b0>
    12d0: f94017e0     	ldr	x0, [sp, #40]
    12d4: f85d83a1     	ldur	x1, [x29, #-40]
    12d8: 94000000     	bl	0x12d8 <RDMDiscovery::IsValidDiscoveryResponse(unsigned char const*, unsigned char*)+0x1b8>
    12dc: 385f73ad     	ldurb	w13, [x29, #-9]
    12e0: 385f63ac     	ldurb	w12, [x29, #-10]
    12e4: 785d63ab     	ldurh	w11, [x29, #-42]
    12e8: 385d53aa     	ldurb	w10, [x29, #-43]
    12ec: 52800b28     	mov	w8, #89
    12f0: 528009c9     	mov	w9, #78
    12f4: 1200014a     	and	w10, w10, #0x1
    12f8: 7200014a     	ands	w10, w10, #0x1
    12fc: 1a89110a     	csel	w10, w8, w9, ne
    1300: 910003e9     	mov	x9, sp
    1304: aa0d03e8     	mov	x8, x13
    1308: f9000128     	str	x8, [x9]
    130c: aa0c03e8     	mov	x8, x12
    1310: f9000528     	str	x8, [x9, #8]
    1314: aa0b03e8     	mov	x8, x11
    1318: f9000928     	str	x8, [x9, #16]
    131c: aa0a03e8     	mov	x8, x10
    1320: 93401d08     	sxtb	x8, w8
    1324: f9000d28     	str	x8, [x9, #24]
    1328: 90000000     	adrp	x0, 0x1000 <RDMDiscovery::IsValidDiscoveryResponse(unsigned char const*, unsigned char*)+0x208>
    132c: 91000000     	add	x0, x0, #0
    1330: 94000000     	bl	0x1330 <RDMDiscovery::IsValidDiscoveryResponse(unsigned char const*, unsigned char*)+0x210>
    1334: 1400000a     	b	0x135c <RDMDiscovery::IsValidDiscoveryResponse(unsigned char const*, unsigned char*)+0x23c>
    1338: 910003e9     	mov	x9, sp
    133c: d2802088     	mov	x8, #260
    1340: f9000128     	str	x8, [x9]
    1344: 90000000     	adrp	x0, 0x1000 <RDMDiscovery::IsValidDiscoveryResponse(unsigned char const*, unsigned char*)+0x224>
    1348: 91000000     	add	x0, x0, #0
    134c: 94000000     	bl	0x134c <RDMDiscovery::IsValidDiscoveryResponse(unsigned char const*, unsigned char*)+0x22c>
    1350: f85e03a0     	ldur	x0, [x29, #-32]
    1354: 94000000     	bl	0x1354 <RDMDiscovery::IsValidDiscoveryResponse(unsigned char const*, unsigned char*)+0x234>
    1358: 14000001     	b	0x135c <RDMDiscovery::IsValidDiscoveryResponse(unsigned char const*, unsigned char*)+0x23c>
    135c: 385d53a8     	ldurb	w8, [x29, #-43]
    1360: b90027e8     	str	w8, [sp, #36]
    1364: f85f83a9     	ldur	x9, [x29, #-8]
    1368: 90000008     	adrp	x8, 0x1000 <RDMDiscovery::IsValidDiscoveryResponse(unsigned char const*, unsigned char*)+0x248>
    136c: f9400108     	ldr	x8, [x8]
    1370: f9400108     	ldr	x8, [x8]
    1374: eb090108     	subs	x8, x8, x9
    1378: 1a9f17e8     	cset	w8, eq
    137c: 37000068     	tbnz	w8, #0, 0x1388 <RDMDiscovery::IsValidDiscoveryResponse(unsigned char const*, unsigned char*)+0x268>
    1380: 14000001     	b	0x1384 <RDMDiscovery::IsValidDiscoveryResponse(unsigned char const*, unsigned char*)+0x264>
    1384: 94000000     	bl	0x1384 <RDMDiscovery::IsValidDiscoveryResponse(unsigned char const*, unsigned char*)+0x264>
    1388: b94027e8     	ldr	w8, [sp, #36]
    138c: 12000100     	and	w0, w8, #0x1
    1390: a9467bfd     	ldp	x29, x30, [sp, #96]
    1394: 9101c3ff     	add	sp, sp, #112
    1398: d65f03c0     	ret

000000000000139c <RDMDiscovery::QuickFind(unsigned char const*)>:
    139c: d10183ff     	sub	sp, sp, #96
    13a0: a9057bfd     	stp	x29, x30, [sp, #80]
    13a4: 910143fd     	add	x29, sp, #80
    13a8: 90000008     	adrp	x8, 0x1000 <RDMDiscovery::QuickFind(unsigned char const*)+0xc>
    13ac: f9400108     	ldr	x8, [x8]
    13b0: f9400108     	ldr	x8, [x8]
    13b4: f81f83a8     	stur	x8, [x29, #-8]
    13b8: f81e83a0     	stur	x0, [x29, #-24]
    13bc: f81e03a1     	stur	x1, [x29, #-32]
    13c0: f85e83a8     	ldur	x8, [x29, #-24]
    13c4: f9000fe8     	str	x8, [sp, #24]
    13c8: 90000000     	adrp	x0, 0x1000 <RDMDiscovery::QuickFind(unsigned char const*)+0x2c>
    13cc: 91000000     	add	x0, x0, #0
    13d0: 94000000     	bl	0x13d0 <RDMDiscovery::QuickFind(unsigned char const*)+0x34>
    13d4: f9400fe0     	ldr	x0, [sp, #24]
    13d8: f85e03a1     	ldur	x1, [x29, #-32]
    13dc: 94000000     	bl	0x13dc <RDMDiscovery::QuickFind(unsigned char const*)+0x40>
    13e0: 90000000     	adrp	x0, 0x1000 <RDMDiscovery::QuickFind(unsigned char const*)+0x44>
    13e4: 91000000     	add	x0, x0, #0
    13e8: 94000000     	bl	0x13e8 <RDMDiscovery::QuickFind(unsigned char const*)+0x4c>
    13ec: f9400fe0     	ldr	x0, [sp, #24]
    13f0: 52800201     	mov	w1, #16
    13f4: 94000000     	bl	0x13f4 <RDMDiscovery::QuickFind(unsigned char const*)+0x58>
    13f8: f9400fe0     	ldr	x0, [sp, #24]
    13fc: 52800041     	mov	w1, #2
    1400: 94000000     	bl	0x1400 <RDMDiscovery::QuickFind(unsigned char const*)+0x64>
    1404: f9400fe0     	ldr	x0, [sp, #24]
    1408: f85e03a1     	ldur	x1, [x29, #-32]
    140c: 94000000     	bl	0x140c <RDMDiscovery::QuickFind(unsigned char const*)+0x70>
    1410: f9400fe0     	ldr	x0, [sp, #24]
    1414: d2800001     	mov	x1, #0
    1418: 52800002     	mov	w2, #0
    141c: 94000000     	bl	0x141c <RDMDiscovery::QuickFind(unsigned char const*)+0x80>
    1420: b90027ff     	str	wzr, [sp, #36]
    1424: 14000001     	b	0x1428 <RDMDiscovery::QuickFind(unsigned char const*)+0x8c>
    1428: b94027e8     	ldr	w8, [sp, #36]
    142c: 11000508     	add	w8, w8, #1
    1430: b90027e8     	str	w8, [sp, #36]
    1434: 71002908     	subs	w8, w8, #10
    1438: 1a9f07e8     	cset	w8, ne
    143c: 37000068     	tbnz	w8, #0, 0x1448 <RDMDiscovery::QuickFind(unsigned char const*)+0xac>
    1440: 14000001     	b	0x1444 <RDMDiscovery::QuickFind(unsigned char const*)+0xa8>
    1444: 14000029     	b	0x14e8 <RDMDiscovery::QuickFind(unsigned char const*)+0x14c>
    1448: 94000000     	bl	0x1448 <RDMDiscovery::QuickFind(unsigned char const*)+0xac>
    144c: 94000000     	bl	0x144c <RDMDiscovery::QuickFind(unsigned char const*)+0xb0>
    1450: f9400fe0     	ldr	x0, [sp, #24]
    1454: b9410401     	ldr	w1, [x0, #260]
    1458: 5282d502     	mov	w2, #5800
    145c: 94000000     	bl	0x145c <RDMDiscovery::QuickFind(unsigned char const*)+0xc0>
    1460: f9400fe8     	ldr	x8, [sp, #24]
    1464: b9410500     	ldr	w0, [x8, #260]
    1468: 52815e01     	mov	w1, #2800
    146c: 94000000     	bl	0x146c <RDMDiscovery::QuickFind(unsigned char const*)+0xd0>
    1470: f90017e0     	str	x0, [sp, #40]
    1474: f94017e8     	ldr	x8, [sp, #40]
    1478: f1000108     	subs	x8, x8, #0
    147c: 1a9f17e8     	cset	w8, eq
    1480: 37000288     	tbnz	w8, #0, 0x14d0 <RDMDiscovery::QuickFind(unsigned char const*)+0x134>
    1484: 14000001     	b	0x1488 <RDMDiscovery::QuickFind(unsigned char const*)+0xec>
    1488: f94017e8     	ldr	x8, [sp, #40]
    148c: 39405108     	ldrb	w8, [x8, #20]
    1490: 71004508     	subs	w8, w8, #17
    1494: 1a9f07e8     	cset	w8, ne
    1498: 37000188     	tbnz	w8, #0, 0x14c8 <RDMDiscovery::QuickFind(unsigned char const*)+0x12c>
    149c: 14000001     	b	0x14a0 <RDMDiscovery::QuickFind(unsigned char const*)+0x104>
    14a0: f94017e8     	ldr	x8, [sp, #40]
    14a4: 39405509     	ldrb	w9, [x8, #21]
    14a8: f94017e8     	ldr	x8, [sp, #40]
    14ac: 39405908     	ldrb	w8, [x8, #22]
    14b0: 0b092108     	add	w8, w8, w9, lsl #8
    14b4: 12003d08     	and	w8, w8, #0xffff
    14b8: 71000908     	subs	w8, w8, #2
    14bc: 1a9f17e8     	cset	w8, eq
    14c0: 37000068     	tbnz	w8, #0, 0x14cc <RDMDiscovery::QuickFind(unsigned char const*)+0x130>
    14c4: 14000001     	b	0x14c8 <RDMDiscovery::QuickFind(unsigned char const*)+0x12c>
    14c8: 14000003     	b	0x14d4 <RDMDiscovery::QuickFind(unsigned char const*)+0x138>
    14cc: 14000001     	b	0x14d0 <RDMDiscovery::QuickFind(unsigned char const*)+0x134>
    14d0: 14000001     	b	0x14d4 <RDMDiscovery::QuickFind(unsigned char const*)+0x138>
    14d4: f94017e8     	ldr	x8, [sp, #40]
    14d8: f1000108     	subs	x8, x8, #0
    14dc: 1a9f17e8     	cset	w8, eq
    14e0: 3707fa48     	tbnz	w8, #0, 0x1428 <RDMDiscovery::QuickFind(unsigned char const*)+0x8c>
    14e4: 14000001     	b	0x14e8 <RDMDiscovery::QuickFind(unsigned char const*)+0x14c>
    14e8: f94017e8     	ldr	x8, [sp, #40]
    14ec: f1000108     	subs	x8, x8, #0
    14f0: 1a9f17e8     	cset	w8, eq
    14f4: 370004c8     	tbnz	w8, #0, 0x158c <RDMDiscovery::QuickFind(unsigned char const*)+0x1f0>
    14f8: 14000001     	b	0x14fc <RDMDiscovery::QuickFind(unsigned char const*)+0x160>
    14fc: f94017e0     	ldr	x0, [sp, #40]
    1500: 94000000     	bl	0x1500 <RDMDiscovery::QuickFind(unsigned char const*)+0x164>
    1504: f94017e8     	ldr	x8, [sp, #40]
    1508: 39405108     	ldrb	w8, [x8, #20]
    150c: 71004508     	subs	w8, w8, #17
    1510: 1a9f07e8     	cset	w8, ne
    1514: 37000208     	tbnz	w8, #0, 0x1554 <RDMDiscovery::QuickFind(unsigned char const*)+0x1b8>
    1518: 14000001     	b	0x151c <RDMDiscovery::QuickFind(unsigned char const*)+0x180>
    151c: f85e03a0     	ldur	x0, [x29, #-32]
    1520: f94017e8     	ldr	x8, [sp, #40]
    1524: 91002501     	add	x1, x8, #9
    1528: d28000c2     	mov	x2, #6
    152c: 94000000     	bl	0x152c <RDMDiscovery::QuickFind(unsigned char const*)+0x190>
    1530: 71000008     	subs	w8, w0, #0
    1534: 1a9f07e8     	cset	w8, ne
    1538: 370000e8     	tbnz	w8, #0, 0x1554 <RDMDiscovery::QuickFind(unsigned char const*)+0x1b8>
    153c: 14000001     	b	0x1540 <RDMDiscovery::QuickFind(unsigned char const*)+0x1a4>
    1540: f9400fe8     	ldr	x8, [sp, #24]
    1544: f9408500     	ldr	x0, [x8, #264]
    1548: f85e03a1     	ldur	x1, [x29, #-32]
    154c: 94000000     	bl	0x154c <RDMDiscovery::QuickFind(unsigned char const*)+0x1b0>
    1550: 1400000e     	b	0x1588 <RDMDiscovery::QuickFind(unsigned char const*)+0x1ec>
    1554: 910003e9     	mov	x9, sp
    1558: d28026e8     	mov	x8, #311
    155c: f9000128     	str	x8, [x9]
    1560: 90000000     	adrp	x0, 0x1000 <RDMDiscovery::QuickFind(unsigned char const*)+0x1c4>
    1564: 91000000     	add	x0, x0, #0
    1568: 94000000     	bl	0x1568 <RDMDiscovery::QuickFind(unsigned char const*)+0x1cc>
    156c: f9400fe0     	ldr	x0, [sp, #24]
    1570: f85e03a1     	ldur	x1, [x29, #-32]
    1574: 94000000     	bl	0x1574 <RDMDiscovery::QuickFind(unsigned char const*)+0x1d8>
    1578: 90000000     	adrp	x0, 0x1000 <RDMDiscovery::QuickFind(unsigned char const*)+0x1dc>
    157c: 91000000     	add	x0, x0, #0
    1580: 94000000     	bl	0x1580 <RDMDiscovery::QuickFind(unsigned char const*)+0x1e4>
    1584: 14000001     	b	0x1588 <RDMDiscovery::QuickFind(unsigned char const*)+0x1ec>
    1588: 14000001     	b	0x158c <RDMDiscovery::QuickFind(unsigned char const*)+0x1f0>
    158c: f9400fe0     	ldr	x0, [sp, #24]
    1590: 90000001     	adrp	x1, 0x1000 <RDMDiscovery::QuickFind(unsigned char const*)+0x1f4>
    1594: 91000021     	add	x1, x1, #0
    1598: 94000000     	bl	0x1598 <RDMDiscovery::QuickFind(unsigned char const*)+0x1fc>
    159c: f9400fe0     	ldr	x0, [sp, #24]
    15a0: 52800201     	mov	w1, #16
    15a4: 94000000     	bl	0x15a4 <RDMDiscovery::QuickFind(unsigned char const*)+0x208>
    15a8: f9400fe0     	ldr	x0, [sp, #24]
    15ac: 52800021     	mov	w1, #1
    15b0: 94000000     	bl	0x15b0 <RDMDiscovery::QuickFind(unsigned char const*)+0x214>
    15b4: f9400fe0     	ldr	x0, [sp, #24]
    15b8: 91045801     	add	x1, x0, #278
    15bc: 52800182     	mov	w2, #12
    15c0: 94000000     	bl	0x15c0 <RDMDiscovery::QuickFind(unsigned char const*)+0x224>
    15c4: b90027ff     	str	wzr, [sp, #36]
    15c8: 14000001     	b	0x15cc <RDMDiscovery::QuickFind(unsigned char const*)+0x230>
    15cc: b94027e8     	ldr	w8, [sp, #36]
    15d0: 11000508     	add	w8, w8, #1
    15d4: b90027e8     	str	w8, [sp, #36]
    15d8: 71000d08     	subs	w8, w8, #3
    15dc: 1a9f07e8     	cset	w8, ne
    15e0: 37000068     	tbnz	w8, #0, 0x15ec <RDMDiscovery::QuickFind(unsigned char const*)+0x250>
    15e4: 14000001     	b	0x15e8 <RDMDiscovery::QuickFind(unsigned char const*)+0x24c>
    15e8: 14000012     	b	0x1630 <RDMDiscovery::QuickFind(unsigned char const*)+0x294>
    15ec: 94000000     	bl	0x15ec <RDMDiscovery::QuickFind(unsigned char const*)+0x250>
    15f0: 94000000     	bl	0x15f0 <RDMDiscovery::QuickFind(unsigned char const*)+0x254>
    15f4: f9400fe0     	ldr	x0, [sp, #24]
    15f8: b9410401     	ldr	w1, [x0, #260]
    15fc: 5282d502     	mov	w2, #5800
    1600: 94000000     	bl	0x1600 <RDMDiscovery::QuickFind(unsigned char const*)+0x264>
    1604: f9400fe8     	ldr	x8, [sp, #24]
    1608: b9410500     	ldr	w0, [x8, #260]
    160c: 52815e01     	mov	w1, #2800
    1610: 94000000     	bl	0x1610 <RDMDiscovery::QuickFind(unsigned char const*)+0x274>
    1614: f90017e0     	str	x0, [sp, #40]
    1618: 14000001     	b	0x161c <RDMDiscovery::QuickFind(unsigned char const*)+0x280>
    161c: f94017e8     	ldr	x8, [sp, #40]
    1620: f1000108     	subs	x8, x8, #0
    1624: 1a9f17e8     	cset	w8, eq
    1628: 3707fd28     	tbnz	w8, #0, 0x15cc <RDMDiscovery::QuickFind(unsigned char const*)+0x230>
    162c: 14000001     	b	0x1630 <RDMDiscovery::QuickFind(unsigned char const*)+0x294>
    1630: f94017e8     	ldr	x8, [sp, #40]
    1634: f1000108     	subs	x8, x8, #0
    1638: 1a9f17e8     	cset	w8, eq
    163c: 37000188     	tbnz	w8, #0, 0x166c <RDMDiscovery::QuickFind(unsigned char const*)+0x2d0>
    1640: 14000001     	b	0x1644 <RDMDiscovery::QuickFind(unsigned char const*)+0x2a8>
    1644: f9400fe0     	ldr	x0, [sp, #24]
    1648: f94017e1     	ldr	x1, [sp, #40]
    164c: d1003ba2     	sub	x2, x29, #14
    1650: 94000000     	bl	0x1650 <RDMDiscovery::QuickFind(unsigned char const*)+0x2b4>
    1654: 360000c0     	tbz	w0, #0, 0x166c <RDMDiscovery::QuickFind(unsigned char const*)+0x2d0>
    1658: 14000001     	b	0x165c <RDMDiscovery::QuickFind(unsigned char const*)+0x2c0>
    165c: f9400fe0     	ldr	x0, [sp, #24]
    1660: d1003ba1     	sub	x1, x29, #14
    1664: 97ffff4e     	bl	0x139c <RDMDiscovery::QuickFind(unsigned char const*)>
    1668: 14000012     	b	0x16b0 <RDMDiscovery::QuickFind(unsigned char const*)+0x314>
    166c: f94017e8     	ldr	x8, [sp, #40]
    1670: f1000108     	subs	x8, x8, #0
    1674: 1a9f17e8     	cset	w8, eq
    1678: 370001a8     	tbnz	w8, #0, 0x16ac <RDMDiscovery::QuickFind(unsigned char const*)+0x310>
    167c: 14000001     	b	0x1680 <RDMDiscovery::QuickFind(unsigned char const*)+0x2e4>
    1680: f9400fe0     	ldr	x0, [sp, #24]
    1684: f94017e1     	ldr	x1, [sp, #40]
    1688: d1003ba2     	sub	x2, x29, #14
    168c: 94000000     	bl	0x168c <RDMDiscovery::QuickFind(unsigned char const*)+0x2f0>
    1690: 370000e0     	tbnz	w0, #0, 0x16ac <RDMDiscovery::QuickFind(unsigned char const*)+0x310>
    1694: 14000001     	b	0x1698 <RDMDiscovery::QuickFind(unsigned char const*)+0x2fc>
    1698: 52800028     	mov	w8, #1
    169c: 12000108     	and	w8, w8, #0x1
    16a0: 12000108     	and	w8, w8, #0x1
    16a4: 381f13a8     	sturb	w8, [x29, #-15]
    16a8: 14000007     	b	0x16c4 <RDMDiscovery::QuickFind(unsigned char const*)+0x328>
    16ac: 14000001     	b	0x16b0 <RDMDiscovery::QuickFind(unsigned char const*)+0x314>
    16b0: 52800008     	mov	w8, #0
    16b4: 12000108     	and	w8, w8, #0x1
    16b8: 12000108     	and	w8, w8, #0x1
    16bc: 381f13a8     	sturb	w8, [x29, #-15]
    16c0: 14000001     	b	0x16c4 <RDMDiscovery::QuickFind(unsigned char const*)+0x328>
    16c4: 385f13a8     	ldurb	w8, [x29, #-15]
    16c8: b90017e8     	str	w8, [sp, #20]
    16cc: f85f83a9     	ldur	x9, [x29, #-8]
    16d0: 90000008     	adrp	x8, 0x1000 <RDMDiscovery::QuickFind(unsigned char const*)+0x334>
    16d4: f9400108     	ldr	x8, [x8]
    16d8: f9400108     	ldr	x8, [x8]
    16dc: eb090108     	subs	x8, x8, x9
    16e0: 1a9f17e8     	cset	w8, eq
    16e4: 37000068     	tbnz	w8, #0, 0x16f0 <RDMDiscovery::QuickFind(unsigned char const*)+0x354>
    16e8: 14000001     	b	0x16ec <RDMDiscovery::QuickFind(unsigned char const*)+0x350>
    16ec: 94000000     	bl	0x16ec <RDMDiscovery::QuickFind(unsigned char const*)+0x350>
    16f0: b94017e8     	ldr	w8, [sp, #20]
    16f4: 12000100     	and	w0, w8, #0x1
    16f8: a9457bfd     	ldp	x29, x30, [sp, #80]
    16fc: 910183ff     	add	sp, sp, #96
    1700: d65f03c0     	ret

0000000000001704 <RDMDiscovery::ConvertUid(unsigned char const*)>:
    1704: d100c3ff     	sub	sp, sp, #48
    1708: a9027bfd     	stp	x29, x30, [sp, #32]
    170c: 910083fd     	add	x29, sp, #32
    1710: 90000008     	adrp	x8, 0x1000 <RDMDiscovery::ConvertUid(unsigned char const*)+0xc>
    1714: f9400108     	ldr	x8, [x8]
    1718: f9400108     	ldr	x8, [x8]
    171c: f81f83a8     	stur	x8, [x29, #-8]
    1720: f9000be0     	str	x0, [sp, #16]
    1724: f90007e1     	str	x1, [sp, #8]
    1728: f94007e9     	ldr	x9, [sp, #8]
    172c: b940012b     	ldr	w11, [x9]
    1730: 90000008     	adrp	x8, 0x1000 <RDMDiscovery::ConvertUid(unsigned char const*)+0x2c>
    1734: 9000000a     	adrp	x10, 0x1000 <RDMDiscovery::ConvertUid(unsigned char const*)+0x30>
    1738: 9100014a     	add	x10, x10, #0
    173c: b900010b     	str	w11, [x8]
    1740: 79400929     	ldrh	w9, [x9, #4]
    1744: 79000949     	strh	w9, [x10, #4]
    1748: f9400108     	ldr	x8, [x8]
    174c: d370bd08     	lsl	x8, x8, #16
    1750: dac00d08     	rev	x8, x8
    1754: f90003e8     	str	x8, [sp]
    1758: f85f83a9     	ldur	x9, [x29, #-8]
    175c: 90000008     	adrp	x8, 0x1000 <RDMDiscovery::ConvertUid(unsigned char const*)+0x58>
    1760: f9400108     	ldr	x8, [x8]
    1764: f9400108     	ldr	x8, [x8]
    1768: eb090108     	subs	x8, x8, x9
    176c: 1a9f17e8     	cset	w8, eq
    1770: 37000068     	tbnz	w8, #0, 0x177c <RDMDiscovery::ConvertUid(unsigned char const*)+0x78>
    1774: 14000001     	b	0x1778 <RDMDiscovery::ConvertUid(unsigned char const*)+0x74>
    1778: 94000000     	bl	0x1778 <RDMDiscovery::ConvertUid(unsigned char const*)+0x74>
    177c: f94003e0     	ldr	x0, [sp]
    1780: a9427bfd     	ldp	x29, x30, [sp, #32]
    1784: 9100c3ff     	add	sp, sp, #48
    1788: d65f03c0     	ret

000000000000178c <RDMMessage::RDMMessage()>:
    178c: d100c3ff     	sub	sp, sp, #48
    1790: a9027bfd     	stp	x29, x30, [sp, #32]
    1794: 910083fd     	add	x29, sp, #32
    1798: 90000008     	adrp	x8, 0x1000 <RDMMessage::RDMMessage()+0xc>
    179c: f9400108     	ldr	x8, [x8]
    17a0: f9400108     	ldr	x8, [x8]
    17a4: f81f83a8     	stur	x8, [x29, #-8]
    17a8: f9000be0     	str	x0, [sp, #16]
    17ac: f9400be8     	ldr	x8, [sp, #16]
    17b0: f90007e8     	str	x8, [sp, #8]
    17b4: 52801989     	mov	w9, #204
    17b8: 39000109     	strb	w9, [x8]
    17bc: 52800029     	mov	w9, #1
    17c0: 39000509     	strb	w9, [x8, #1]
    17c4: 5280030a     	mov	w10, #24
    17c8: 3900090a     	strb	w10, [x8, #2]
    17cc: 9000000b     	adrp	x11, 0x1000 <RDMMessage::RDMMessage()+0x40>
    17d0: 9000000a     	adrp	x10, 0x1000 <RDMMessage::RDMMessage()+0x44>
    17d4: 9100014a     	add	x10, x10, #0
    17d8: b940016c     	ldr	w12, [x11]
    17dc: b800910c     	stur	w12, [x8, #9]
    17e0: 7940094c     	ldrh	w12, [x10, #4]
    17e4: 9100350d     	add	x13, x8, #13
    17e8: 790001ac     	strh	w12, [x13]
    17ec: b940016b     	ldr	w11, [x11]
    17f0: b800310b     	stur	w11, [x8, #3]
    17f4: 7940094a     	ldrh	w10, [x10, #4]
    17f8: 91001d0b     	add	x11, x8, #7
    17fc: 7900016a     	strh	w10, [x11]
    1800: 39004109     	strb	w9, [x8, #16]
    1804: 3900451f     	strb	wzr, [x8, #17]
    1808: 3900491f     	strb	wzr, [x8, #18]
    180c: 39004d1f     	strb	wzr, [x8, #19]
    1810: 39005d1f     	strb	wzr, [x8, #23]
    1814: f85f83a9     	ldur	x9, [x29, #-8]
    1818: 90000008     	adrp	x8, 0x1000 <RDMMessage::RDMMessage()+0x8c>
    181c: f9400108     	ldr	x8, [x8]
    1820: f9400108     	ldr	x8, [x8]
    1824: eb090108     	subs	x8, x8, x9
    1828: 1a9f17e8     	cset	w8, eq
    182c: 37000068     	tbnz	w8, #0, 0x1838 <RDMMessage::RDMMessage()+0xac>
    1830: 14000001     	b	0x1834 <RDMMessage::RDMMessage()+0xa8>
    1834: 94000000     	bl	0x1834 <RDMMessage::RDMMessage()+0xa8>
    1838: f94007e0     	ldr	x0, [sp, #8]
    183c: a9427bfd     	ldp	x29, x30, [sp, #32]
    1840: 9100c3ff     	add	sp, sp, #48
    1844: d65f03c0     	ret

0000000000001848 <RDMTod::Dump(unsigned int)>:
    1848: d10183ff     	sub	sp, sp, #96
    184c: a9057bfd     	stp	x29, x30, [sp, #80]
    1850: 910143fd     	add	x29, sp, #80
    1854: 90000008     	adrp	x8, 0x1000 <RDMTod::Dump(unsigned int)+0xc>
    1858: f9400108     	ldr	x8, [x8]
    185c: f9400108     	ldr	x8, [x8]
    1860: f81f83a8     	stur	x8, [x29, #-8]
    1864: f81f03a0     	stur	x0, [x29, #-16]
    1868: b81ec3a1     	stur	w1, [x29, #-20]
    186c: f85f03a8     	ldur	x8, [x29, #-16]
    1870: f81e03a8     	stur	x8, [x29, #-32]
    1874: b85ec3a8     	ldur	w8, [x29, #-20]
    1878: 71032108     	subs	w8, w8, #200
    187c: 1a9f87e8     	cset	w8, ls
    1880: 370000a8     	tbnz	w8, #0, 0x1894 <RDMTod::Dump(unsigned int)+0x4c>
    1884: 14000001     	b	0x1888 <RDMTod::Dump(unsigned int)+0x40>
    1888: 52801908     	mov	w8, #200
    188c: b81ec3a8     	stur	w8, [x29, #-20]
    1890: 14000001     	b	0x1894 <RDMTod::Dump(unsigned int)+0x4c>
    1894: b85ec3a9     	ldur	w9, [x29, #-20]
    1898: aa0903e8     	mov	x8, x9
    189c: 910003e9     	mov	x9, sp
    18a0: f9000128     	str	x8, [x9]
    18a4: 90000000     	adrp	x0, 0x1000 <RDMTod::Dump(unsigned int)+0x5c>
    18a8: 91000000     	add	x0, x0, #0
    18ac: 94000000     	bl	0x18ac <RDMTod::Dump(unsigned int)+0x64>
    18b0: b81e83bf     	stur	wzr, [x29, #-24]
    18b4: 14000001     	b	0x18b8 <RDMTod::Dump(unsigned int)+0x70>
    18b8: b85e83a8     	ldur	w8, [x29, #-24]
    18bc: b85ec3a9     	ldur	w9, [x29, #-20]
    18c0: 6b090108     	subs	w8, w8, w9
    18c4: 1a9f37e8     	cset	w8, hs
    18c8: 37000788     	tbnz	w8, #0, 0x19b8 <RDMTod::Dump(unsigned int)+0x170>
    18cc: 14000001     	b	0x18d0 <RDMTod::Dump(unsigned int)+0x88>
    18d0: f85e03a8     	ldur	x8, [x29, #-32]
    18d4: aa0803e9     	mov	x9, x8
    18d8: 91009129     	add	x9, x9, #36
    18dc: b85e83aa     	ldur	w10, [x29, #-24]
    18e0: aa0a03eb     	mov	x11, x10
    18e4: d28000ca     	mov	x10, #6
    18e8: 9b0a7d6b     	mul	x11, x11, x10
    18ec: 386b692f     	ldrb	w15, [x9, x11]
    18f0: aa0803e9     	mov	x9, x8
    18f4: 91009129     	add	x9, x9, #36
    18f8: b85e83ab     	ldur	w11, [x29, #-24]
    18fc: 9b0a7d6b     	mul	x11, x11, x10
    1900: 8b0b0129     	add	x9, x9, x11
    1904: 3940052e     	ldrb	w14, [x9, #1]
    1908: aa0803e9     	mov	x9, x8
    190c: 91009129     	add	x9, x9, #36
    1910: b85e83ab     	ldur	w11, [x29, #-24]
    1914: 9b0a7d6b     	mul	x11, x11, x10
    1918: 8b0b0129     	add	x9, x9, x11
    191c: 3940092d     	ldrb	w13, [x9, #2]
    1920: aa0803e9     	mov	x9, x8
    1924: 91009129     	add	x9, x9, #36
    1928: b85e83ab     	ldur	w11, [x29, #-24]
    192c: 9b0a7d6b     	mul	x11, x11, x10
    1930: 8b0b0129     	add	x9, x9, x11
    1934: 39400d2c     	ldrb	w12, [x9, #3]
    1938: aa0803e9     	mov	x9, x8
    193c: 91009129     	add	x9, x9, #36
    1940: b85e83ab     	ldur	w11, [x29, #-24]
    1944: 9b0a7d6b     	mul	x11, x11, x10
    1948: 8b0b0129     	add	x9, x9, x11
    194c: 3940112b     	ldrb	w11, [x9, #4]
    1950: 91009108     	add	x8, x8, #36
    1954: b85e83a9     	ldur	w9, [x29, #-24]
    1958: 9b0a7d29     	mul	x9, x9, x10
    195c: 8b090108     	add	x8, x8, x9
    1960: 3940150a     	ldrb	w10, [x8, #5]
    1964: 910003e9     	mov	x9, sp
    1968: aa0f03e8     	mov	x8, x15
    196c: f9000128     	str	x8, [x9]
    1970: aa0e03e8     	mov	x8, x14
    1974: f9000528     	str	x8, [x9, #8]
    1978: aa0d03e8     	mov	x8, x13
    197c: f9000928     	str	x8, [x9, #16]
    1980: aa0c03e8     	mov	x8, x12
    1984: f9000d28     	str	x8, [x9, #24]
    1988: aa0b03e8     	mov	x8, x11
    198c: f9001128     	str	x8, [x9, #32]
    1990: aa0a03e8     	mov	x8, x10
    1994: f9001528     	str	x8, [x9, #40]
    1998: 90000000     	adrp	x0, 0x1000 <RDMTod::Dump(unsigned int)+0x150>
    199c: 91000000     	add	x0, x0, #0
    19a0: 94000000     	bl	0x19a0 <RDMTod::Dump(unsigned int)+0x158>
    19a4: 14000001     	b	0x19a8 <RDMTod::Dump(unsigned int)+0x160>
    19a8: b85e83a8     	ldur	w8, [x29, #-24]
    19ac: 11000508     	add	w8, w8, #1
    19b0: b81e83a8     	stur	w8, [x29, #-24]
    19b4: 17ffffc1     	b	0x18b8 <RDMTod::Dump(unsigned int)+0x70>
    19b8: f85f83a9     	ldur	x9, [x29, #-8]
    19bc: 90000008     	adrp	x8, 0x1000 <RDMTod::Dump(unsigned int)+0x174>
    19c0: f9400108     	ldr	x8, [x8]
    19c4: f9400108     	ldr	x8, [x8]
    19c8: eb090108     	subs	x8, x8, x9
    19cc: 1a9f17e8     	cset	w8, eq
    19d0: 37000068     	tbnz	w8, #0, 0x19dc <RDMTod::Dump(unsigned int)+0x194>
    19d4: 14000001     	b	0x19d8 <RDMTod::Dump(unsigned int)+0x190>
    19d8: 94000000     	bl	0x19d8 <RDMTod::Dump(unsigned int)+0x190>
    19dc: a9457bfd     	ldp	x29, x30, [sp, #80]
    19e0: 910183ff     	add	sp, sp, #96
    19e4: d65f03c0     	ret

00000000000019e8 <RDMTod::Exist(unsigned char const*)>:
    19e8: d10143ff     	sub	sp, sp, #80
    19ec: a9047bfd     	stp	x29, x30, [sp, #64]
    19f0: 910103fd     	add	x29, sp, #64
    19f4: 90000008     	adrp	x8, 0x1000 <RDMTod::Exist(unsigned char const*)+0xc>
    19f8: f9400108     	ldr	x8, [x8]
    19fc: f9400108     	ldr	x8, [x8]
    1a00: f81f83a8     	stur	x8, [x29, #-8]
    1a04: f81e83a0     	stur	x0, [x29, #-24]
    1a08: f90013e1     	str	x1, [sp, #32]
    1a0c: f85e83a8     	ldur	x8, [x29, #-24]
    1a10: f9000be8     	str	x8, [sp, #16]
    1a14: b9001fff     	str	wzr, [sp, #28]
    1a18: 14000001     	b	0x1a1c <RDMTod::Exist(unsigned char const*)+0x34>
    1a1c: f9400be9     	ldr	x9, [sp, #16]
    1a20: b9401fe8     	ldr	w8, [sp, #28]
    1a24: b9400129     	ldr	w9, [x9]
    1a28: 6b090108     	subs	w8, w8, w9
    1a2c: 1a9f37e8     	cset	w8, hs
    1a30: 37000388     	tbnz	w8, #0, 0x1aa0 <RDMTod::Exist(unsigned char const*)+0xb8>
    1a34: 14000001     	b	0x1a38 <RDMTod::Exist(unsigned char const*)+0x50>
    1a38: f9400be8     	ldr	x8, [sp, #16]
    1a3c: 91009108     	add	x8, x8, #36
    1a40: b9401fe9     	ldr	w9, [sp, #28]
    1a44: d28000ca     	mov	x10, #6
    1a48: 9b0a7d29     	mul	x9, x9, x10
    1a4c: 8b090100     	add	x0, x8, x9
    1a50: f94013e1     	ldr	x1, [sp, #32]
    1a54: d28000c2     	mov	x2, #6
    1a58: 94000000     	bl	0x1a58 <RDMTod::Exist(unsigned char const*)+0x70>
    1a5c: 71000008     	subs	w8, w0, #0
    1a60: 1a9f07e8     	cset	w8, ne
    1a64: 37000148     	tbnz	w8, #0, 0x1a8c <RDMTod::Exist(unsigned char const*)+0xa4>
    1a68: 14000001     	b	0x1a6c <RDMTod::Exist(unsigned char const*)+0x84>
    1a6c: f9400be9     	ldr	x9, [sp, #16]
    1a70: b9401fe8     	ldr	w8, [sp, #28]
    1a74: b9000528     	str	w8, [x9, #4]
    1a78: 52800028     	mov	w8, #1
    1a7c: 12000108     	and	w8, w8, #0x1
    1a80: 12000108     	and	w8, w8, #0x1
    1a84: 381f73a8     	sturb	w8, [x29, #-9]
    1a88: 1400000e     	b	0x1ac0 <RDMTod::Exist(unsigned char const*)+0xd8>
    1a8c: 14000001     	b	0x1a90 <RDMTod::Exist(unsigned char const*)+0xa8>
    1a90: b9401fe8     	ldr	w8, [sp, #28]
    1a94: 11000508     	add	w8, w8, #1
    1a98: b9001fe8     	str	w8, [sp, #28]
    1a9c: 17ffffe0     	b	0x1a1c <RDMTod::Exist(unsigned char const*)+0x34>
    1aa0: f9400be9     	ldr	x9, [sp, #16]
    1aa4: 12800008     	mov	w8, #-1
    1aa8: b9000528     	str	w8, [x9, #4]
    1aac: 52800008     	mov	w8, #0
    1ab0: 12000108     	and	w8, w8, #0x1
    1ab4: 12000108     	and	w8, w8, #0x1
    1ab8: 381f73a8     	sturb	w8, [x29, #-9]
    1abc: 14000001     	b	0x1ac0 <RDMTod::Exist(unsigned char const*)+0xd8>
    1ac0: 385f73a8     	ldurb	w8, [x29, #-9]
    1ac4: b9000fe8     	str	w8, [sp, #12]
    1ac8: f85f83a9     	ldur	x9, [x29, #-8]
    1acc: 90000008     	adrp	x8, 0x1000 <RDMTod::Exist(unsigned char const*)+0xe4>
    1ad0: f9400108     	ldr	x8, [x8]
    1ad4: f9400108     	ldr	x8, [x8]
    1ad8: eb090108     	subs	x8, x8, x9
    1adc: 1a9f17e8     	cset	w8, eq
    1ae0: 37000068     	tbnz	w8, #0, 0x1aec <RDMTod::Exist(unsigned char const*)+0x104>
    1ae4: 14000001     	b	0x1ae8 <RDMTod::Exist(unsigned char const*)+0x100>
    1ae8: 94000000     	bl	0x1ae8 <RDMTod::Exist(unsigned char const*)+0x100>
    1aec: b9400fe8     	ldr	w8, [sp, #12]
    1af0: 12000100     	and	w0, w8, #0x1
    1af4: a9447bfd     	ldp	x29, x30, [sp, #64]
    1af8: 910143ff     	add	sp, sp, #80
    1afc: d65f03c0     	ret
