In archive lib7/librdm.a:

rdmconst.o:     file format elf32-littlearm


Disassembly of section .rodata:

00000000 <RDMConst::MANUFACTURER_ID>:
   0:	00000050 	andeq	r0, r0, r0, asr r0

00000004 <RDMConst::MANUFACTURER_NAME>:
   4:	70747468 	rsbsvc	r7, r4, r8, ror #8
   8:	772f2f3a 			; <UNDEFINED> instruction: 0x772f2f3a
   c:	6f2e7777 	svcvs	0x002e7777
  10:	676e6172 			; <UNDEFINED> instruction: 0x676e6172
  14:	2d697065 	stclcs	0, cr7, [r9, #-404]!	; 0xfffffe6c
  18:	2e786d64 	cdpcs	13, 7, cr6, cr8, cr4, {3}
  1c:	0067726f 	rsbeq	r7, r7, pc, ror #4

Disassembly of section .comment:

00000000 <.comment>:
   0:	43434700 	movtmi	r4, #14080	; 0x3700
   4:	4728203a 			; <UNDEFINED> instruction: 0x4728203a
   8:	2029554e 	eorcs	r5, r9, lr, asr #10
   c:	332e3031 			; <UNDEFINED> instruction: 0x332e3031
  10:	Address 0x0000000000000010 is out of bounds.


Disassembly of section .ARM.attributes:

00000000 <.ARM.attributes>:
   0:	00003441 	andeq	r3, r0, r1, asr #8
   4:	61656100 	cmnvs	r5, r0, lsl #2
   8:	01006962 	tsteq	r0, r2, ror #18
   c:	0000002a 	andeq	r0, r0, sl, lsr #32
  10:	412d3705 			; <UNDEFINED> instruction: 0x412d3705
  14:	070a0600 	streq	r0, [sl, -r0, lsl #12]
  18:	09010841 	stmdbeq	r1, {r0, r6, fp}
  1c:	0c050a02 			; <UNDEFINED> instruction: 0x0c050a02
  20:	14041202 	strne	r1, [r4], #-514	; 0xfffffdfe
  24:	17011501 	strne	r1, [r1, -r1, lsl #10]
  28:	19011803 	stmdbne	r1, {r0, r1, fp, ip}
  2c:	1c011a01 			; <UNDEFINED> instruction: 0x1c011a01
  30:	22021e01 	andcs	r1, r2, #1, 28
  34:	Address 0x0000000000000034 is out of bounds.


rdmdevice.o:     file format elf32-littlearm


Disassembly of section .text:

00000000 <RDMDevice::RDMDevice()>:
   0:	e300c000 	movw	ip, #0
   4:	e3a03000 	mov	r3, #0
   8:	e340c000 	movt	ip, #0
   c:	e92d4030 	push	{r4, r5, lr}
  10:	e1a04000 	mov	r4, r0
  14:	e5c03000 	strb	r3, [r0]
  18:	e24dd00c 	sub	sp, sp, #12
  1c:	e5c03072 	strb	r3, [r0, #114]	; 0x72
  20:	e280502c 	add	r5, r0, #44	; 0x2c
  24:	e1c037b4 	strh	r3, [r0, #116]	; 0x74
  28:	e5803078 	str	r3, [r0, #120]	; 0x78
  2c:	e5dc2000 	ldrb	r2, [ip]
  30:	e1520003 	cmp	r2, r3
  34:	0a000053 	beq	188 <RDMDevice::RDMDevice()+0x188>
  38:	e1a0300c 	mov	r3, ip
  3c:	e5f31001 	ldrb	r1, [r3, #1]!
  40:	e3510000 	cmp	r1, #0
  44:	1afffffc 	bne	3c <RDMDevice::RDMDevice()+0x3c>
  48:	e043000c 	sub	r0, r3, ip
  4c:	e3500020 	cmp	r0, #32
  50:	23a00020 	movcs	r0, #32
  54:	e153000c 	cmp	r3, ip
  58:	e6efc070 	uxtb	ip, r0
  5c:	0a000009 	beq	88 <RDMDevice::RDMDevice()+0x88>
  60:	e280002c 	add	r0, r0, #44	; 0x2c
  64:	e3001000 	movw	r1, #0
  68:	e0840000 	add	r0, r4, r0
  6c:	e1a03005 	mov	r3, r5
  70:	e3401000 	movt	r1, #0
  74:	ea000000 	b	7c <RDMDevice::RDMDevice()+0x7c>
  78:	e5f12001 	ldrb	r2, [r1, #1]!
  7c:	e4c32001 	strb	r2, [r3], #1
  80:	e1500003 	cmp	r0, r3
  84:	1afffffb 	bne	78 <RDMDevice::RDMDevice()+0x78>
  88:	e5c4c04c 	strb	ip, [r4, #76]	; 0x4c
  8c:	e3003000 	movw	r3, #0
  90:	e3403000 	movt	r3, #0
  94:	e3002000 	movw	r2, #0
  98:	e3402000 	movt	r2, #0
  9c:	e1a0100d 	mov	r1, sp
  a0:	e5d30000 	ldrb	r0, [r3]
  a4:	e5c40001 	strb	r0, [r4, #1]
  a8:	e5d33001 	ldrb	r3, [r3, #1]
  ac:	e5920000 	ldr	r0, [r2]
  b0:	e5c43002 	strb	r3, [r4, #2]
  b4:	ebfffffe 	bl	0 <Network::MacAddressCopyTo(unsigned char*)>
  b8:	e5dd1003 	ldrb	r1, [sp, #3]
  bc:	e5dd2002 	ldrb	r2, [sp, #2]
  c0:	e5dd3004 	ldrb	r3, [sp, #4]
  c4:	e5c41004 	strb	r1, [r4, #4]
  c8:	e5c41009 	strb	r1, [r4, #9]
  cc:	e5dd1005 	ldrb	r1, [sp, #5]
  d0:	e5c42003 	strb	r2, [r4, #3]
  d4:	e5c4200a 	strb	r2, [r4, #10]
  d8:	e5c43005 	strb	r3, [r4, #5]
  dc:	e5c43008 	strb	r3, [r4, #8]
  e0:	e3a03077 	mov	r3, #119	; 0x77
  e4:	e59f20a4 	ldr	r2, [pc, #164]	; 190 <RDMDevice::RDMDevice()+0x190>
  e8:	e5c41006 	strb	r1, [r4, #6]
  ec:	e5c41007 	strb	r1, [r4, #7]
  f0:	ea000000 	b	f8 <RDMDevice::RDMDevice()+0xf8>
  f4:	e5f23001 	ldrb	r3, [r2, #1]!
  f8:	e3530000 	cmp	r3, #0
  fc:	1afffffc 	bne	f4 <RDMDevice::RDMDevice()+0xf4>
 100:	e3003000 	movw	r3, #0
 104:	e3403000 	movt	r3, #0
 108:	e0420003 	sub	r0, r2, r3
 10c:	e3500020 	cmp	r0, #32
 110:	23a00020 	movcs	r0, #32
 114:	e1520003 	cmp	r2, r3
 118:	0a000007 	beq	13c <RDMDevice::RDMDevice()+0x13c>
 11c:	e280102c 	add	r1, r0, #44	; 0x2c
 120:	e3a02077 	mov	r2, #119	; 0x77
 124:	e0841001 	add	r1, r4, r1
 128:	ea000000 	b	130 <RDMDevice::RDMDevice()+0x130>
 12c:	e5f32001 	ldrb	r2, [r3, #1]!
 130:	e4c52001 	strb	r2, [r5], #1
 134:	e1510005 	cmp	r1, r5
 138:	1afffffb 	bne	12c <RDMDevice::RDMDevice()+0x12c>
 13c:	e5c4004c 	strb	r0, [r4, #76]	; 0x4c
 140:	e3e0c902 	mvn	ip, #32768	; 0x8000
 144:	e1c4c4be 	strh	ip, [r4, #78]	; 0x4e
 148:	e3002000 	movw	r2, #0
 14c:	e1c4c5b0 	strh	ip, [r4, #80]	; 0x50
 150:	e3a0c00a 	mov	ip, #10
 154:	e3402000 	movt	r2, #0
 158:	e2843052 	add	r3, r4, #82	; 0x52
 15c:	e5c4c072 	strb	ip, [r4, #114]	; 0x72
 160:	e284005c 	add	r0, r4, #92	; 0x5c
 164:	e3a01052 	mov	r1, #82	; 0x52
 168:	ea000000 	b	170 <RDMDevice::RDMDevice()+0x170>
 16c:	e5f21001 	ldrb	r1, [r2, #1]!
 170:	e4c31001 	strb	r1, [r3], #1
 174:	e1530000 	cmp	r3, r0
 178:	1afffffb 	bne	16c <RDMDevice::RDMDevice()+0x16c>
 17c:	e1a00004 	mov	r0, r4
 180:	e28dd00c 	add	sp, sp, #12
 184:	e8bd8030 	pop	{r4, r5, pc}
 188:	e1a0c002 	mov	ip, r2
 18c:	eaffffbd 	b	88 <RDMDevice::RDMDevice()+0x88>
 190:	00000001 	andeq	r0, r0, r1

00000194 <RDMDevice::Print()>:
 194:	e92d4010 	push	{r4, lr}
 198:	e1a04000 	mov	r4, r0
 19c:	e3000000 	movw	r0, #0
 1a0:	e24dd008 	sub	sp, sp, #8
 1a4:	e3400000 	movt	r0, #0
 1a8:	ebfffffe 	bl	0 <printf>
 1ac:	e5d4104c 	ldrb	r1, [r4, #76]	; 0x4c
 1b0:	e3000000 	movw	r0, #0
 1b4:	e3400000 	movt	r0, #0
 1b8:	e284202c 	add	r2, r4, #44	; 0x2c
 1bc:	ebfffffe 	bl	0 <printf>
 1c0:	e5d42002 	ldrb	r2, [r4, #2]
 1c4:	e3000000 	movw	r0, #0
 1c8:	e5d41001 	ldrb	r1, [r4, #1]
 1cc:	e3400000 	movt	r0, #0
 1d0:	ebfffffe 	bl	0 <printf>
 1d4:	e5d40007 	ldrb	r0, [r4, #7]
 1d8:	e5d43008 	ldrb	r3, [r4, #8]
 1dc:	e5d42009 	ldrb	r2, [r4, #9]
 1e0:	e5d4100a 	ldrb	r1, [r4, #10]
 1e4:	e58d0000 	str	r0, [sp]
 1e8:	e3000000 	movw	r0, #0
 1ec:	e3400000 	movt	r0, #0
 1f0:	ebfffffe 	bl	0 <printf>
 1f4:	e5d4102b 	ldrb	r1, [r4, #43]	; 0x2b
 1f8:	e3000000 	movw	r0, #0
 1fc:	e3400000 	movt	r0, #0
 200:	e284200b 	add	r2, r4, #11
 204:	ebfffffe 	bl	0 <printf>
 208:	e1d414be 	ldrh	r1, [r4, #78]	; 0x4e
 20c:	e3000000 	movw	r0, #0
 210:	e3400000 	movt	r0, #0
 214:	e6ef2071 	uxtb	r2, r1
 218:	e1a01421 	lsr	r1, r1, #8
 21c:	ebfffffe 	bl	0 <printf>
 220:	e1d415b0 	ldrh	r1, [r4, #80]	; 0x50
 224:	e3000000 	movw	r0, #0
 228:	e3400000 	movt	r0, #0
 22c:	e6ef2071 	uxtb	r2, r1
 230:	e1a01421 	lsr	r1, r1, #8
 234:	e28dd008 	add	sp, sp, #8
 238:	e8bd4010 	pop	{r4, lr}
 23c:	eafffffe 	b	0 <printf>

Disassembly of section .rodata.str1.4:

00000000 <.LC0>:
   0:	2e777777 	mrccs	7, 3, r7, cr7, cr7, {3}
   4:	6e61726f 	cdpvs	2, 6, cr7, cr1, cr15, {3}
   8:	69706567 	ldmdbvs	r0!, {r0, r1, r2, r5, r6, r8, sl, sp, lr}^
   c:	786d642d 	stmdavc	sp!, {r0, r2, r3, r5, sl, sp, lr}^
  10:	67726f2e 	ldrbvs	r6, [r2, -lr, lsr #30]!
  14:	00000000 	andeq	r0, r0, r0

00000018 <.LC1>:
  18:	204d4452 	subcs	r4, sp, r2, asr r4
  1c:	69766544 	ldmdbvs	r6!, {r2, r6, r8, sl, sp, lr}^
  20:	63206563 			; <UNDEFINED> instruction: 0x63206563
  24:	69666e6f 	stmdbvs	r6!, {r0, r1, r2, r3, r5, r6, r9, sl, fp, sp, lr}^
  28:	61727567 	cmnvs	r2, r7, ror #10
  2c:	6e6f6974 			; <UNDEFINED> instruction: 0x6e6f6974
  30:	0000000a 	andeq	r0, r0, sl

00000034 <.LC2>:
  34:	6e614d20 	cdpvs	13, 6, cr4, cr1, cr0, {1}
  38:	63616675 	cmnvs	r1, #122683392	; 0x7500000
  3c:	65727574 	ldrbvs	r7, [r2, #-1396]!	; 0xfffffa8c
  40:	614e2072 	hvcvs	57858	; 0xe202
  44:	3a20656d 	bcc	819600 <RDMDevice::Print()+0x81946c>
  48:	2a2e2520 	bcs	b894d0 <RDMDevice::Print()+0xb8933c>
  4c:	00000a73 	andeq	r0, r0, r3, ror sl

00000050 <.LC3>:
  50:	6e614d20 	cdpvs	13, 6, cr4, cr1, cr0, {1}
  54:	63616675 	cmnvs	r1, #122683392	; 0x7500000
  58:	65727574 	ldrbvs	r7, [r2, #-1396]!	; 0xfffffa8c
  5c:	44492072 	strbmi	r2, [r9], #-114	; 0xffffff8e
  60:	3a202020 	bcc	8080e8 <RDMDevice::Print()+0x807f54>
  64:	322e2520 	eorcc	r2, lr, #32, 10	; 0x8000000
  68:	322e2558 	eorcc	r2, lr, #88, 10	; 0x16000000
  6c:	00000a58 	andeq	r0, r0, r8, asr sl

00000070 <.LC4>:
  70:	72655320 	rsbvc	r5, r5, #32, 6	; 0x80000000
  74:	206c6169 	rsbcs	r6, ip, r9, ror #2
  78:	626d754e 	rsbvs	r7, sp, #327155712	; 0x13800000
  7c:	20207265 	eorcs	r7, r0, r5, ror #4
  80:	3a202020 	bcc	808108 <RDMDevice::Print()+0x807f74>
  84:	322e2520 	eorcc	r2, lr, #32, 10	; 0x8000000
  88:	322e2558 	eorcc	r2, lr, #88, 10	; 0x16000000
  8c:	322e2558 	eorcc	r2, lr, #88, 10	; 0x16000000
  90:	322e2558 	eorcc	r2, lr, #88, 10	; 0x16000000
  94:	00000a58 	andeq	r0, r0, r8, asr sl

00000098 <.LC5>:
  98:	6f6f5220 	svcvs	0x006f5220
  9c:	616c2074 	smcvs	49668	; 0xc204
  a0:	206c6562 	rsbcs	r6, ip, r2, ror #10
  a4:	20202020 	eorcs	r2, r0, r0, lsr #32
  a8:	3a202020 	bcc	808130 <RDMDevice::Print()+0x807f9c>
  ac:	2a2e2520 	bcs	b89534 <RDMDevice::Print()+0xb893a0>
  b0:	00000a73 	andeq	r0, r0, r3, ror sl

000000b4 <.LC6>:
  b4:	6f725020 	svcvs	0x00725020
  b8:	74637564 	strbtvc	r7, [r3], #-1380	; 0xfffffa9c
  bc:	74614320 	strbtvc	r4, [r1], #-800	; 0xfffffce0
  c0:	726f6765 	rsbvc	r6, pc, #26476544	; 0x1940000
  c4:	3a202079 	bcc	8082b0 <RDMDevice::Print()+0x80811c>
  c8:	322e2520 	eorcc	r2, lr, #32, 10	; 0x8000000
  cc:	322e2558 	eorcc	r2, lr, #88, 10	; 0x16000000
  d0:	00000a58 	andeq	r0, r0, r8, asr sl

000000d4 <.LC7>:
  d4:	6f725020 	svcvs	0x00725020
  d8:	74637564 	strbtvc	r7, [r3], #-1380	; 0xfffffa9c
  dc:	74654420 	strbtvc	r4, [r5], #-1056	; 0xfffffbe0
  e0:	206c6961 	rsbcs	r6, ip, r1, ror #18
  e4:	3a202020 	bcc	80816c <RDMDevice::Print()+0x807fd8>
  e8:	322e2520 	eorcc	r2, lr, #32, 10	; 0x8000000
  ec:	322e2558 	eorcc	r2, lr, #88, 10	; 0x16000000
  f0:	Address 0x00000000000000f0 is out of bounds.


Disassembly of section .rodata:

00000000 <DEVICE_LABEL>:
   0:	204d4452 	subcs	r4, sp, r2, asr r4
   4:	69766544 	ldmdbvs	r6!, {r2, r6, r8, sl, sp, lr}^
   8:	Address 0x0000000000000008 is out of bounds.


Disassembly of section .comment:

00000000 <.comment>:
   0:	43434700 	movtmi	r4, #14080	; 0x3700
   4:	4728203a 			; <UNDEFINED> instruction: 0x4728203a
   8:	2029554e 	eorcs	r5, r9, lr, asr #10
   c:	332e3031 			; <UNDEFINED> instruction: 0x332e3031
  10:	Address 0x0000000000000010 is out of bounds.


Disassembly of section .ARM.attributes:

00000000 <.ARM.attributes>:
   0:	00003441 	andeq	r3, r0, r1, asr #8
   4:	61656100 	cmnvs	r5, r0, lsl #2
   8:	01006962 	tsteq	r0, r2, ror #18
   c:	0000002a 	andeq	r0, r0, sl, lsr #32
  10:	412d3705 			; <UNDEFINED> instruction: 0x412d3705
  14:	070a0600 	streq	r0, [sl, -r0, lsl #12]
  18:	09010841 	stmdbeq	r1, {r0, r6, fp}
  1c:	0c050a02 			; <UNDEFINED> instruction: 0x0c050a02
  20:	14041202 	strne	r1, [r4], #-514	; 0xfffffdfe
  24:	17011501 	strne	r1, [r1, -r1, lsl #10]
  28:	19011803 	stmdbne	r1, {r0, r1, fp, ip}
  2c:	1c011a01 			; <UNDEFINED> instruction: 0x1c011a01
  30:	22021e01 	andcs	r1, r2, #1, 28
  34:	Address 0x0000000000000034 is out of bounds.


rdmdeviceparamsconst.o:     file format elf32-littlearm


Disassembly of section .rodata:

00000000 <RDMDeviceParamsConst::PRODUCT_DETAIL>:
   0:	646f7270 	strbtvs	r7, [pc], #-624	; 8 <RDMDeviceParamsConst::PRODUCT_DETAIL+0x8>
   4:	5f746375 	svcpl	0x00746375
   8:	61746564 	cmnvs	r4, r4, ror #10
   c:	00006c69 	andeq	r6, r0, r9, ror #24

00000010 <RDMDeviceParamsConst::PRODUCT_CATEGORY>:
  10:	646f7270 	strbtvs	r7, [pc], #-624	; 18 <RDMDeviceParamsConst::PRODUCT_CATEGORY+0x8>
  14:	5f746375 	svcpl	0x00746375
  18:	65746163 	ldrbvs	r6, [r4, #-355]!	; 0xfffffe9d
  1c:	79726f67 	ldmdbvc	r2!, {r0, r1, r2, r5, r6, r8, r9, sl, fp, sp, lr}^
  20:	00000000 	andeq	r0, r0, r0

00000024 <RDMDeviceParamsConst::LABEL>:
  24:	69766564 	ldmdbvs	r6!, {r2, r5, r6, r8, sl, sp, lr}^
  28:	6c5f6563 	cfldr64vs	mvdx6, [pc], {99}	; 0x63
  2c:	6c656261 	sfmvs	f6, 2, [r5], #-388	; 0xfffffe7c
  30:	00000000 	andeq	r0, r0, r0

00000034 <RDMDeviceParamsConst::FILE_NAME>:
  34:	5f6d6472 	svcpl	0x006d6472
  38:	69766564 	ldmdbvs	r6!, {r2, r5, r6, r8, sl, sp, lr}^
  3c:	742e6563 	strtvc	r6, [lr], #-1379	; 0xfffffa9d
  40:	Address 0x0000000000000040 is out of bounds.


Disassembly of section .comment:

00000000 <.comment>:
   0:	43434700 	movtmi	r4, #14080	; 0x3700
   4:	4728203a 			; <UNDEFINED> instruction: 0x4728203a
   8:	2029554e 	eorcs	r5, r9, lr, asr #10
   c:	332e3031 			; <UNDEFINED> instruction: 0x332e3031
  10:	Address 0x0000000000000010 is out of bounds.


Disassembly of section .ARM.attributes:

00000000 <.ARM.attributes>:
   0:	00003441 	andeq	r3, r0, r1, asr #8
   4:	61656100 	cmnvs	r5, r0, lsl #2
   8:	01006962 	tsteq	r0, r2, ror #18
   c:	0000002a 	andeq	r0, r0, sl, lsr #32
  10:	412d3705 			; <UNDEFINED> instruction: 0x412d3705
  14:	070a0600 	streq	r0, [sl, -r0, lsl #12]
  18:	09010841 	stmdbeq	r1, {r0, r6, fp}
  1c:	0c050a02 			; <UNDEFINED> instruction: 0x0c050a02
  20:	14041202 	strne	r1, [r4], #-514	; 0xfffffdfe
  24:	17011501 	strne	r1, [r1, -r1, lsl #10]
  28:	19011803 	stmdbne	r1, {r0, r1, fp, ip}
  2c:	1c011a01 			; <UNDEFINED> instruction: 0x1c011a01
  30:	22021e01 	andcs	r1, r2, #1, 28
  34:	Address 0x0000000000000034 is out of bounds.


rdmdeviceparams.o:     file format elf32-littlearm


Disassembly of section .text:

00000000 <RDMDeviceParams::RDMDeviceParams(RDMDeviceParamsStore*)>:
   0:	f2c00050 	vmov.i32	q8, #0	; 0x00000000
   4:	e1a02000 	mov	r2, r0
   8:	e4821004 	str	r1, [r2], #4
   c:	e3e01000 	mvn	r1, #0
  10:	f4420a0f 	vst1.8	{d16-d17}, [r2]
  14:	e2802014 	add	r2, r0, #20
  18:	f4420a0f 	vst1.8	{d16-d17}, [r2]
  1c:	e2802021 	add	r2, r0, #33	; 0x21
  20:	f442070f 	vst1.8	{d16}, [r2]
  24:	e5c01029 	strb	r1, [r0, #41]	; 0x29
  28:	e3a0207f 	mov	r2, #127	; 0x7f
  2c:	e5c0202a 	strb	r2, [r0, #42]	; 0x2a
  30:	e5c0102b 	strb	r1, [r0, #43]	; 0x2b
  34:	e5c0202c 	strb	r2, [r0, #44]	; 0x2c
  38:	e12fff1e 	bx	lr

0000003c <RDMDeviceParams::Load()>:
  3c:	e3a03000 	mov	r3, #0
  40:	e92d4037 	push	{r0, r1, r2, r4, r5, lr}
  44:	e1a02000 	mov	r2, r0
  48:	e5803004 	str	r3, [r0, #4]
  4c:	e1a04000 	mov	r4, r0
  50:	e59f1068 	ldr	r1, [pc, #104]	; c0 <RDMDeviceParams::Load()+0x84>
  54:	e1a0000d 	mov	r0, sp
  58:	ebfffffe 	bl	0 <ReadConfigFile::ReadConfigFile(void (*)(void*, char const*), void*)>
  5c:	e59f1060 	ldr	r1, [pc, #96]	; c4 <RDMDeviceParams::Load()+0x88>
  60:	e1a0000d 	mov	r0, sp
  64:	ebfffffe 	bl	0 <ReadConfigFile::Read(char const*)>
  68:	e2505000 	subs	r5, r0, #0
  6c:	e5940000 	ldr	r0, [r4]
  70:	0a000006 	beq	90 <RDMDeviceParams::Load()+0x54>
  74:	e3500000 	cmp	r0, #0
  78:	0a00000b 	beq	ac <RDMDeviceParams::Load()+0x70>
  7c:	e5903000 	ldr	r3, [r0]
  80:	e2841004 	add	r1, r4, #4
  84:	e5933008 	ldr	r3, [r3, #8]
  88:	e12fff33 	blx	r3
  8c:	ea000006 	b	ac <RDMDeviceParams::Load()+0x70>
  90:	e3500000 	cmp	r0, #0
  94:	0a000004 	beq	ac <RDMDeviceParams::Load()+0x70>
  98:	e5903000 	ldr	r3, [r0]
  9c:	e2841004 	add	r1, r4, #4
  a0:	e3a05001 	mov	r5, #1
  a4:	e593300c 	ldr	r3, [r3, #12]
  a8:	e12fff33 	blx	r3
  ac:	e1a0000d 	mov	r0, sp
  b0:	ebfffffe 	bl	0 <ReadConfigFile::~ReadConfigFile()>
  b4:	e1a00005 	mov	r0, r5
  b8:	e28dd00c 	add	sp, sp, #12
  bc:	e8bd8030 	pop	{r4, r5, pc}
	...

000000c8 <RDMDeviceParams::Load(char const*, unsigned long)>:
  c8:	e3a03000 	mov	r3, #0
  cc:	e92d4073 	push	{r0, r1, r4, r5, r6, lr}
  d0:	e1a04000 	mov	r4, r0
  d4:	e5803004 	str	r3, [r0, #4]
  d8:	e1a05001 	mov	r5, r1
  dc:	e59f1040 	ldr	r1, [pc, #64]	; 124 <RDMDeviceParams::Load(char const*, unsigned long)+0x5c>
  e0:	e1a06002 	mov	r6, r2
  e4:	e1a02000 	mov	r2, r0
  e8:	e1a0000d 	mov	r0, sp
  ec:	ebfffffe 	bl	0 <ReadConfigFile::ReadConfigFile(void (*)(void*, char const*), void*)>
  f0:	e1a02006 	mov	r2, r6
  f4:	e1a01005 	mov	r1, r5
  f8:	e1a0000d 	mov	r0, sp
  fc:	ebfffffe 	bl	0 <ReadConfigFile::Read(char const*, unsigned int)>
 100:	e1a01004 	mov	r1, r4
 104:	e4910004 	ldr	r0, [r1], #4
 108:	e5903000 	ldr	r3, [r0]
 10c:	e5933008 	ldr	r3, [r3, #8]
 110:	e12fff33 	blx	r3
 114:	e1a0000d 	mov	r0, sp
 118:	ebfffffe 	bl	0 <ReadConfigFile::~ReadConfigFile()>
 11c:	e28dd008 	add	sp, sp, #8
 120:	e8bd8070 	pop	{r4, r5, r6, pc}
 124:	00000000 	andeq	r0, r0, r0

00000128 <RDMDeviceParams::callbackFunction(char const*)>:
 128:	e92d4037 	push	{r0, r1, r2, r4, r5, lr}
 12c:	e3a03020 	mov	r3, #32
 130:	e58d3004 	str	r3, [sp, #4]
 134:	e1a05001 	mov	r5, r1
 138:	e59f10a4 	ldr	r1, [pc, #164]	; 1e4 <RDMDeviceParams::callbackFunction(char const*)+0xbc>
 13c:	e2802008 	add	r2, r0, #8
 140:	e1a04000 	mov	r4, r0
 144:	e28d3004 	add	r3, sp, #4
 148:	e1a00005 	mov	r0, r5
 14c:	ebfffffe 	bl	0 <Sscan::Char(char const*, char const*, char*, unsigned long&)>
 150:	e3500000 	cmp	r0, #0
 154:	1a000004 	bne	16c <RDMDeviceParams::callbackFunction(char const*)+0x44>
 158:	e59d3004 	ldr	r3, [sp, #4]
 15c:	e5c43028 	strb	r3, [r4, #40]	; 0x28
 160:	e5943004 	ldr	r3, [r4, #4]
 164:	e3833001 	orr	r3, r3, #1
 168:	ea00001a 	b	1d8 <RDMDeviceParams::callbackFunction(char const*)+0xb0>
 16c:	e59f1074 	ldr	r1, [pc, #116]	; 1e8 <RDMDeviceParams::callbackFunction(char const*)+0xc0>
 170:	e28d2002 	add	r2, sp, #2
 174:	e1a00005 	mov	r0, r5
 178:	ebfffffe 	bl	0 <Sscan::HexUint16(char const*, char const*, unsigned short&)>
 17c:	e3500000 	cmp	r0, #0
 180:	1a000007 	bne	1a4 <RDMDeviceParams::callbackFunction(char const*)+0x7c>
 184:	e1dd20b2 	ldrh	r2, [sp, #2]
 188:	e3071fff 	movw	r1, #32767	; 0x7fff
 18c:	e5943004 	ldr	r3, [r4, #4]
 190:	e1520001 	cmp	r2, r1
 194:	03c33002 	biceq	r3, r3, #2
 198:	13833002 	orrne	r3, r3, #2
 19c:	e1c422b9 	strh	r2, [r4, #41]	; 0x29
 1a0:	ea00000c 	b	1d8 <RDMDeviceParams::callbackFunction(char const*)+0xb0>
 1a4:	e59f1040 	ldr	r1, [pc, #64]	; 1ec <RDMDeviceParams::callbackFunction(char const*)+0xc4>
 1a8:	e28d2002 	add	r2, sp, #2
 1ac:	e1a00005 	mov	r0, r5
 1b0:	ebfffffe 	bl	0 <Sscan::HexUint16(char const*, char const*, unsigned short&)>
 1b4:	e3500000 	cmp	r0, #0
 1b8:	1a000007 	bne	1dc <RDMDeviceParams::callbackFunction(char const*)+0xb4>
 1bc:	e1dd20b2 	ldrh	r2, [sp, #2]
 1c0:	e3071fff 	movw	r1, #32767	; 0x7fff
 1c4:	e5943004 	ldr	r3, [r4, #4]
 1c8:	e1520001 	cmp	r2, r1
 1cc:	03c33004 	biceq	r3, r3, #4
 1d0:	13833004 	orrne	r3, r3, #4
 1d4:	e1c422bb 	strh	r2, [r4, #43]	; 0x2b
 1d8:	e5843004 	str	r3, [r4, #4]
 1dc:	e28dd00c 	add	sp, sp, #12
 1e0:	e8bd8030 	pop	{r4, r5, pc}
	...

000001f0 <RDMDeviceParams::staticCallbackFunction(void*, char const*)>:
 1f0:	eafffffe 	b	128 <RDMDeviceParams::callbackFunction(char const*)>

000001f4 <RDMDeviceParams::Set(RDMDevice*)>:
 1f4:	e5903004 	ldr	r3, [r0, #4]
 1f8:	e92d41f0 	push	{r4, r5, r6, r7, r8, lr}
 1fc:	e3130001 	tst	r3, #1
 200:	e1a05000 	mov	r5, r0
 204:	e1a04001 	mov	r4, r1
 208:	0a000019 	beq	274 <RDMDeviceParams::Set(RDMDevice*)+0x80>
 20c:	e5d06028 	ldrb	r6, [r0, #40]	; 0x28
 210:	e2801008 	add	r1, r0, #8
 214:	e5d43000 	ldrb	r3, [r4]
 218:	e3560020 	cmp	r6, #32
 21c:	23a06020 	movcs	r6, #32
 220:	e3530000 	cmp	r3, #0
 224:	0a00000e 	beq	264 <RDMDeviceParams::Set(RDMDevice*)+0x70>
 228:	e284300b 	add	r3, r4, #11
 22c:	e1a02006 	mov	r2, r6
 230:	e1a00003 	mov	r0, r3
 234:	ebfffffe 	bl	0 <memcpy>
 238:	e5c4602b 	strb	r6, [r4, #43]	; 0x2b
 23c:	e1a03000 	mov	r3, r0
 240:	e5940078 	ldr	r0, [r4, #120]	; 0x78
 244:	e3500000 	cmp	r0, #0
 248:	0a000009 	beq	274 <RDMDeviceParams::Set(RDMDevice*)+0x80>
 24c:	e5902000 	ldr	r2, [r0]
 250:	e1a01003 	mov	r1, r3
 254:	e5927008 	ldr	r7, [r2, #8]
 258:	e1a02006 	mov	r2, r6
 25c:	e12fff37 	blx	r7
 260:	ea000003 	b	274 <RDMDeviceParams::Set(RDMDevice*)+0x80>
 264:	e1a02006 	mov	r2, r6
 268:	e2840052 	add	r0, r4, #82	; 0x52
 26c:	ebfffffe 	bl	0 <memcpy>
 270:	e5c46072 	strb	r6, [r4, #114]	; 0x72
 274:	e5953004 	ldr	r3, [r5, #4]
 278:	e3130002 	tst	r3, #2
 27c:	11d522b9 	ldrhne	r2, [r5, #41]	; 0x29
 280:	11c424be 	strhne	r2, [r4, #78]	; 0x4e
 284:	e3130004 	tst	r3, #4
 288:	11d532bb 	ldrhne	r3, [r5, #43]	; 0x2b
 28c:	11c435b0 	strhne	r3, [r4, #80]	; 0x50
 290:	e8bd81f0 	pop	{r4, r5, r6, r7, r8, pc}

00000294 <RDMDeviceParams::Dump()>:
 294:	e12fff1e 	bx	lr

00000298 <RDMDeviceParams::Builder(rdm::deviceparams::Params const*, char*, unsigned long, unsigned long&)>:
 298:	e1a0c001 	mov	ip, r1
 29c:	e2801004 	add	r1, r0, #4
 2a0:	e35c0000 	cmp	ip, #0
 2a4:	e92d4070 	push	{r4, r5, r6, lr}
 2a8:	e1a04000 	mov	r4, r0
 2ac:	e24dd018 	sub	sp, sp, #24
 2b0:	e1a05002 	mov	r5, r2
 2b4:	e1a06003 	mov	r6, r3
 2b8:	0a000007 	beq	2dc <RDMDeviceParams::Builder(rdm::deviceparams::Params const*, char*, unsigned long, unsigned long&)+0x44>
 2bc:	e28c3028 	add	r3, ip, #40	; 0x28
 2c0:	e49c2004 	ldr	r2, [ip], #4
 2c4:	e15c0003 	cmp	ip, r3
 2c8:	e4812004 	str	r2, [r1], #4
 2cc:	1afffffb 	bne	2c0 <RDMDeviceParams::Builder(rdm::deviceparams::Params const*, char*, unsigned long, unsigned long&)+0x28>
 2d0:	e5dc3000 	ldrb	r3, [ip]
 2d4:	e5c13000 	strb	r3, [r1]
 2d8:	ea000003 	b	2ec <RDMDeviceParams::Builder(rdm::deviceparams::Params const*, char*, unsigned long, unsigned long&)+0x54>
 2dc:	e5900000 	ldr	r0, [r0]
 2e0:	e5903000 	ldr	r3, [r0]
 2e4:	e593300c 	ldr	r3, [r3, #12]
 2e8:	e12fff33 	blx	r3
 2ec:	e59f1094 	ldr	r1, [pc, #148]	; 388 <RDMDeviceParams::Builder(rdm::deviceparams::Params const*, char*, unsigned long, unsigned long&)+0xf0>
 2f0:	e1a02005 	mov	r2, r5
 2f4:	e1a03006 	mov	r3, r6
 2f8:	e28d000c 	add	r0, sp, #12
 2fc:	e3a05004 	mov	r5, #4
 300:	ebfffffe 	bl	0 <PropertiesBuilder::PropertiesBuilder(char const*, char*, unsigned long)>
 304:	e5943004 	ldr	r3, [r4, #4]
 308:	e28d000c 	add	r0, sp, #12
 30c:	e1d422b9 	ldrh	r2, [r4, #41]	; 0x29
 310:	e7e030d3 	ubfx	r3, r3, #1, #1
 314:	e59f1070 	ldr	r1, [pc, #112]	; 38c <RDMDeviceParams::Builder(rdm::deviceparams::Params const*, char*, unsigned long, unsigned long&)+0xf4>
 318:	e58d5000 	str	r5, [sp]
 31c:	ebfffffe 	bl	0 <PropertiesBuilder::AddHex(char const*, unsigned long, bool, unsigned long)>
 320:	e5943004 	ldr	r3, [r4, #4]
 324:	e28d000c 	add	r0, sp, #12
 328:	e1d422bb 	ldrh	r2, [r4, #43]	; 0x2b
 32c:	e7e03153 	ubfx	r3, r3, #2, #1
 330:	e59f1058 	ldr	r1, [pc, #88]	; 390 <RDMDeviceParams::Builder(rdm::deviceparams::Params const*, char*, unsigned long, unsigned long&)+0xf8>
 334:	e58d5000 	str	r5, [sp]
 338:	ebfffffe 	bl	0 <PropertiesBuilder::AddHex(char const*, unsigned long, bool, unsigned long)>
 33c:	e5dd3014 	ldrb	r3, [sp, #20]
 340:	e3530000 	cmp	r3, #0
 344:	0a00000a 	beq	374 <RDMDeviceParams::Builder(rdm::deviceparams::Params const*, char*, unsigned long, unsigned long&)+0xdc>
 348:	e1dd21b2 	ldrh	r2, [sp, #18]
 34c:	e59d300c 	ldr	r3, [sp, #12]
 350:	e0833002 	add	r3, r3, r2
 354:	e3a0207d 	mov	r2, #125	; 0x7d
 358:	e5432001 	strb	r2, [r3, #-1]
 35c:	e59d100c 	ldr	r1, [sp, #12]
 360:	e1dd31b2 	ldrh	r3, [sp, #18]
 364:	e7c12003 	strb	r2, [r1, r3]
 368:	e1dd31b2 	ldrh	r3, [sp, #18]
 36c:	e2833001 	add	r3, r3, #1
 370:	e1cd31b2 	strh	r3, [sp, #18]
 374:	e1dd21b2 	ldrh	r2, [sp, #18]
 378:	e59d3028 	ldr	r3, [sp, #40]	; 0x28
 37c:	e5832000 	str	r2, [r3]
 380:	e28dd018 	add	sp, sp, #24
 384:	e8bd8070 	pop	{r4, r5, r6, pc}
	...

Disassembly of section .comment:

00000000 <.comment>:
   0:	43434700 	movtmi	r4, #14080	; 0x3700
   4:	4728203a 			; <UNDEFINED> instruction: 0x4728203a
   8:	2029554e 	eorcs	r5, r9, lr, asr #10
   c:	332e3031 			; <UNDEFINED> instruction: 0x332e3031
  10:	Address 0x0000000000000010 is out of bounds.


Disassembly of section .ARM.attributes:

00000000 <.ARM.attributes>:
   0:	00003441 	andeq	r3, r0, r1, asr #8
   4:	61656100 	cmnvs	r5, r0, lsl #2
   8:	01006962 	tsteq	r0, r2, ror #18
   c:	0000002a 	andeq	r0, r0, sl, lsr #32
  10:	412d3705 			; <UNDEFINED> instruction: 0x412d3705
  14:	070a0600 	streq	r0, [sl, -r0, lsl #12]
  18:	09010841 	stmdbeq	r1, {r0, r6, fp}
  1c:	0c050a02 			; <UNDEFINED> instruction: 0x0c050a02
  20:	14041202 	strne	r1, [r4], #-514	; 0xfffffdfe
  24:	17011501 	strne	r1, [r1, -r1, lsl #10]
  28:	19011803 	stmdbne	r1, {r0, r1, fp, ip}
  2c:	1c011a01 			; <UNDEFINED> instruction: 0x1c011a01
  30:	22021e01 	andcs	r1, r2, #1, 28
  34:	Address 0x0000000000000034 is out of bounds.


rdmdeviceresponder.o:     file format elf32-littlearm


Disassembly of section .group:

00000000 <RDMDeviceResponder::~RDMDeviceResponder()>:
   0:	00000001 	andeq	r0, r0, r1
   4:	00000006 	andeq	r0, r0, r6
   8:	00000007 	andeq	r0, r0, r7
   c:	00000008 	andeq	r0, r0, r8
  10:	00000009 	andeq	r0, r0, r9

Disassembly of section .text:

00000000 <RDMDeviceResponder::PersonalityUpdate(LightSet*)>:
   0:	e12fff1e 	bx	lr

00000004 <RDMDeviceResponder::DmxStartAddressUpdate()>:
   4:	e12fff1e 	bx	lr

00000008 <RDMDeviceResponder::RDMDeviceResponder(RDMPersonality**, unsigned long)>:
   8:	e92d4070 	push	{r4, r5, r6, lr}
   c:	e1a04000 	mov	r4, r0
  10:	e2800004 	add	r0, r0, #4
  14:	e1a06001 	mov	r6, r1
  18:	e1a05002 	mov	r5, r2
  1c:	ebfffffe 	bl	0 <RDMDevice::RDMDevice()>
  20:	e59f30a0 	ldr	r3, [pc, #160]	; c8 <RDMDeviceResponder::RDMDeviceResponder(RDMPersonality**, unsigned long)+0xc0>
  24:	e1a00004 	mov	r0, r4
  28:	e4803080 	str	r3, [r0], #128	; 0x80
  2c:	ebfffffe 	bl	0 <RDMIdentify::RDMIdentify()>
  30:	e2840084 	add	r0, r4, #132	; 0x84
  34:	ebfffffe 	bl	0 <RDMSensors::RDMSensors()>
  38:	e284008c 	add	r0, r4, #140	; 0x8c
  3c:	ebfffffe 	bl	0 <RDMSubDevices::RDMSubDevices()>
  40:	e5846094 	str	r6, [r4, #148]	; 0x94
  44:	e3002000 	movw	r2, #0
  48:	e3402000 	movt	r2, #0
  4c:	e3a01065 	mov	r1, #101	; 0x65
  50:	e5c410c3 	strb	r1, [r4, #195]	; 0xc3
  54:	e284309d 	add	r3, r4, #157	; 0x9d
  58:	e5824000 	str	r4, [r2]
  5c:	e28400b0 	add	r0, r4, #176	; 0xb0
  60:	e300216e 	movw	r2, #366	; 0x16e
  64:	e3a01000 	mov	r1, #0
  68:	e58420c4 	str	r2, [r4, #196]	; 0xc4
  6c:	e3a02001 	mov	r2, #1
  70:	e1c42cb8 	strh	r2, [r4, #200]	; 0xc8
  74:	e4c31001 	strb	r1, [r3], #1
  78:	e1530000 	cmp	r3, r0
  7c:	1afffffc 	bne	74 <RDMDeviceResponder::RDMDeviceResponder(RDMPersonality**, unsigned long)+0x6c>
  80:	e28400c3 	add	r0, r4, #195	; 0xc3
  84:	e3a01000 	mov	r1, #0
  88:	e4c31001 	strb	r1, [r3], #1
  8c:	e1500003 	cmp	r0, r3
  90:	1afffffc 	bne	88 <RDMDeviceResponder::RDMDeviceResponder(RDMPersonality**, unsigned long)+0x80>
  94:	e5c450aa 	strb	r5, [r4, #170]	; 0xaa
  98:	ebfffffe 	bl	0 <RDMSoftwareVersion::GetVersion()>
  9c:	e5840098 	str	r0, [r4, #152]	; 0x98
  a0:	ebfffffe 	bl	0 <RDMSoftwareVersion::GetVersionLength()>
  a4:	e5943094 	ldr	r3, [r4, #148]	; 0x94
  a8:	e5c4009c 	strb	r0, [r4, #156]	; 0x9c
  ac:	e1a00004 	mov	r0, r4
  b0:	e5933000 	ldr	r3, [r3]
  b4:	e5933004 	ldr	r3, [r3, #4]
  b8:	e3530000 	cmp	r3, #0
  bc:	03e03000 	mvneq	r3, #0
  c0:	01c43cb8 	strheq	r3, [r4, #200]	; 0xc8
  c4:	e8bd8070 	pop	{r4, r5, r6, pc}
  c8:	00000008 	andeq	r0, r0, r8

000000cc <RDMDeviceResponder::Init()>:
  cc:	e92d4070 	push	{r4, r5, r6, lr}
  d0:	e3a02001 	mov	r2, #1
  d4:	e5d0e076 	ldrb	lr, [r0, #118]	; 0x76
  d8:	e1a04000 	mov	r4, r0
  dc:	e5c02004 	strb	r2, [r0, #4]
  e0:	e280100f 	add	r1, r0, #15
  e4:	e35e0020 	cmp	lr, #32
  e8:	31a0200e 	movcc	r2, lr
  ec:	23a02020 	movcs	r2, #32
  f0:	e35e0000 	cmp	lr, #0
  f4:	0a00006c 	beq	2ac <RDMDeviceResponder::Init()+0x1e0>
  f8:	e282e056 	add	lr, r2, #86	; 0x56
  fc:	e2803056 	add	r3, r0, #86	; 0x56
 100:	e1a0c002 	mov	ip, r2
 104:	e6e0e07e 	uxtab	lr, r0, lr
 108:	e4d30001 	ldrb	r0, [r3], #1
 10c:	e15e0003 	cmp	lr, r3
 110:	e5430048 	strb	r0, [r3, #-72]	; 0xffffffb8
 114:	1afffffb 	bne	108 <RDMDeviceResponder::Init()+0x3c>
 118:	e594007c 	ldr	r0, [r4, #124]	; 0x7c
 11c:	e5c4202f 	strb	r2, [r4, #47]	; 0x2f
 120:	e3500000 	cmp	r0, #0
 124:	0a00005e 	beq	2a4 <RDMDeviceResponder::Init()+0x1d8>
 128:	e5903000 	ldr	r3, [r0]
 12c:	e5933008 	ldr	r3, [r3, #8]
 130:	e12fff33 	blx	r3
 134:	e5d4c02f 	ldrb	ip, [r4, #47]	; 0x2f
 138:	e5d40076 	ldrb	r0, [r4, #118]	; 0x76
 13c:	e35c0000 	cmp	ip, #0
 140:	0a000006 	beq	160 <RDMDeviceResponder::Init()+0x94>
 144:	e284300e 	add	r3, r4, #14
 148:	e083100c 	add	r1, r3, ip
 14c:	e5f32001 	ldrb	r2, [r3, #1]!
 150:	e1530001 	cmp	r3, r1
 154:	e0800002 	add	r0, r0, r2
 158:	e6ff0070 	uxth	r0, r0
 15c:	1afffffa 	bne	14c <RDMDeviceResponder::Init()+0x80>
 160:	e1c407b8 	strh	r0, [r4, #120]	; 0x78
 164:	ebfffffe 	bl	0 <RDMSoftwareVersion::GetVersionId()>
 168:	e1d425b2 	ldrh	r2, [r4, #82]	; 0x52
 16c:	e3003000 	movw	r3, #0
 170:	e3403000 	movt	r3, #0
 174:	e3a01000 	mov	r1, #0
 178:	e1d469b0 	ldrh	r6, [r4, #144]	; 0x90
 17c:	e5933000 	ldr	r3, [r3]
 180:	e5933000 	ldr	r3, [r3]
 184:	e5c420a2 	strb	r2, [r4, #162]	; 0xa2
 188:	e1a02422 	lsr	r2, r2, #8
 18c:	e5c420a1 	strb	r2, [r4, #161]	; 0xa1
 190:	e1a02c20 	lsr	r2, r0, #24
 194:	e5c430a0 	strb	r3, [r4, #160]	; 0xa0
 198:	e5c420a3 	strb	r2, [r4, #163]	; 0xa3
 19c:	e1a03423 	lsr	r3, r3, #8
 1a0:	e1a02820 	lsr	r2, r0, #16
 1a4:	e5c4309f 	strb	r3, [r4, #159]	; 0x9f
 1a8:	e5c420a4 	strb	r2, [r4, #164]	; 0xa4
 1ac:	e5943094 	ldr	r3, [r4, #148]	; 0x94
 1b0:	e1a02420 	lsr	r2, r0, #8
 1b4:	e5c420a5 	strb	r2, [r4, #165]	; 0xa5
 1b8:	e3a02001 	mov	r2, #1
 1bc:	e5c400a6 	strb	r0, [r4, #166]	; 0xa6
 1c0:	e5c4209d 	strb	r2, [r4, #157]	; 0x9d
 1c4:	e5c4109e 	strb	r1, [r4, #158]	; 0x9e
 1c8:	e5933000 	ldr	r3, [r3]
 1cc:	e5935004 	ldr	r5, [r3, #4]
 1d0:	e1550001 	cmp	r5, r1
 1d4:	0a00002b 	beq	288 <RDMDeviceResponder::Init()+0x1bc>
 1d8:	e5953000 	ldr	r3, [r5]
 1dc:	e1a00005 	mov	r0, r5
 1e0:	e5933030 	ldr	r3, [r3, #48]	; 0x30
 1e4:	e12fff33 	blx	r3
 1e8:	e1a03000 	mov	r3, r0
 1ec:	e1a00005 	mov	r0, r5
 1f0:	e1a03423 	lsr	r3, r3, #8
 1f4:	e5c430a7 	strb	r3, [r4, #167]	; 0xa7
 1f8:	e5953000 	ldr	r3, [r5]
 1fc:	e5933030 	ldr	r3, [r3, #48]	; 0x30
 200:	e12fff33 	blx	r3
 204:	e5c400a8 	strb	r0, [r4, #168]	; 0xa8
 208:	e1a00005 	mov	r0, r5
 20c:	e5953000 	ldr	r3, [r5]
 210:	e593302c 	ldr	r3, [r3, #44]	; 0x2c
 214:	e12fff33 	blx	r3
 218:	e1a03000 	mov	r3, r0
 21c:	e1a00005 	mov	r0, r5
 220:	e1a03423 	lsr	r3, r3, #8
 224:	e5c430ab 	strb	r3, [r4, #171]	; 0xab
 228:	e5953000 	ldr	r3, [r5]
 22c:	e593302c 	ldr	r3, [r3, #44]	; 0x2c
 230:	e12fff33 	blx	r3
 234:	e5d4209d 	ldrb	r2, [r4, #157]	; 0x9d
 238:	e5c400ac 	strb	r0, [r4, #172]	; 0xac
 23c:	e5d40088 	ldrb	r0, [r4, #136]	; 0x88
 240:	e3a01001 	mov	r1, #1
 244:	e5c460ae 	strb	r6, [r4, #174]	; 0xae
 248:	e28430b0 	add	r3, r4, #176	; 0xb0
 24c:	e1a06426 	lsr	r6, r6, #8
 250:	e5c410a9 	strb	r1, [r4, #169]	; 0xa9
 254:	e28410c3 	add	r1, r4, #195	; 0xc3
 258:	e5c460ad 	strb	r6, [r4, #173]	; 0xad
 25c:	e5c400af 	strb	r0, [r4, #175]	; 0xaf
 260:	ea000000 	b	268 <RDMDeviceResponder::Init()+0x19c>
 264:	e5532013 	ldrb	r2, [r3, #-19]	; 0xffffffed
 268:	e4c32001 	strb	r2, [r3], #1
 26c:	e1530001 	cmp	r3, r1
 270:	1afffffb 	bne	264 <RDMDeviceResponder::Init()+0x198>
 274:	e5d430ac 	ldrb	r3, [r4, #172]	; 0xac
 278:	e5d420a9 	ldrb	r2, [r4, #169]	; 0xa9
 27c:	e0833002 	add	r3, r3, r2
 280:	e1c43cb6 	strh	r3, [r4, #198]	; 0xc6
 284:	e8bd8070 	pop	{r4, r5, r6, pc}
 288:	e1d43cb8 	ldrh	r3, [r4, #200]	; 0xc8
 28c:	e5c450a7 	strb	r5, [r4, #167]	; 0xa7
 290:	e5c430ac 	strb	r3, [r4, #172]	; 0xac
 294:	e1a03423 	lsr	r3, r3, #8
 298:	e5c450a8 	strb	r5, [r4, #168]	; 0xa8
 29c:	e5c430ab 	strb	r3, [r4, #171]	; 0xab
 2a0:	eaffffe5 	b	23c <RDMDeviceResponder::Init()+0x170>
 2a4:	e5d40076 	ldrb	r0, [r4, #118]	; 0x76
 2a8:	eaffffa5 	b	144 <RDMDeviceResponder::Init()+0x78>
 2ac:	e590007c 	ldr	r0, [r0, #124]	; 0x7c
 2b0:	e5c4e02f 	strb	lr, [r4, #47]	; 0x2f
 2b4:	e3500000 	cmp	r0, #0
 2b8:	1affff9a 	bne	128 <RDMDeviceResponder::Init()+0x5c>
 2bc:	eaffffa7 	b	160 <RDMDeviceResponder::Init()+0x94>

000002c0 <RDMDeviceResponder::Print()>:
 2c0:	e92d4070 	push	{r4, r5, r6, lr}
 2c4:	e1a04000 	mov	r4, r0
 2c8:	e24dd008 	sub	sp, sp, #8
 2cc:	e2800004 	add	r0, r0, #4
 2d0:	ebfffffe 	bl	0 <RDMDevice::Print()>
 2d4:	e5943094 	ldr	r3, [r4, #148]	; 0x94
 2d8:	e3000000 	movw	r0, #0
 2dc:	e3400000 	movt	r0, #0
 2e0:	e5935000 	ldr	r5, [r3]
 2e4:	e5956028 	ldr	r6, [r5, #40]	; 0x28
 2e8:	ebfffffe 	bl	0 <printf>
 2ec:	e5d4209e 	ldrb	r2, [r4, #158]	; 0x9e
 2f0:	e3000000 	movw	r0, #0
 2f4:	e5d4109d 	ldrb	r1, [r4, #157]	; 0x9d
 2f8:	e2855008 	add	r5, r5, #8
 2fc:	e3400000 	movt	r0, #0
 300:	ebfffffe 	bl	0 <printf>
 304:	e5d430ac 	ldrb	r3, [r4, #172]	; 0xac
 308:	e3000000 	movw	r0, #0
 30c:	e5d410ab 	ldrb	r1, [r4, #171]	; 0xab
 310:	e3400000 	movt	r0, #0
 314:	e0831401 	add	r1, r3, r1, lsl #8
 318:	ebfffffe 	bl	0 <printf>
 31c:	e5d430a8 	ldrb	r3, [r4, #168]	; 0xa8
 320:	e3000000 	movw	r0, #0
 324:	e5d410a7 	ldrb	r1, [r4, #167]	; 0xa7
 328:	e3400000 	movt	r0, #0
 32c:	e0831401 	add	r1, r3, r1, lsl #8
 330:	ebfffffe 	bl	0 <printf>
 334:	e5d420aa 	ldrb	r2, [r4, #170]	; 0xaa
 338:	e3000000 	movw	r0, #0
 33c:	e5d410a9 	ldrb	r1, [r4, #169]	; 0xa9
 340:	e6ef3076 	uxtb	r3, r6
 344:	e58d5000 	str	r5, [sp]
 348:	e3400000 	movt	r0, #0
 34c:	ebfffffe 	bl	0 <printf>
 350:	e5d410ad 	ldrb	r1, [r4, #173]	; 0xad
 354:	e3000000 	movw	r0, #0
 358:	e5d430ae 	ldrb	r3, [r4, #174]	; 0xae
 35c:	e3400000 	movt	r0, #0
 360:	e0831401 	add	r1, r3, r1, lsl #8
 364:	ebfffffe 	bl	0 <printf>
 368:	e5d410af 	ldrb	r1, [r4, #175]	; 0xaf
 36c:	e3000000 	movw	r0, #0
 370:	e3400000 	movt	r0, #0
 374:	e28dd008 	add	sp, sp, #8
 378:	e8bd4070 	pop	{r4, r5, r6, lr}
 37c:	eafffffe 	b	0 <printf>

Disassembly of section .bss:

00000000 <RDMDeviceResponder::s_pThis>:
   0:	00000000 	andeq	r0, r0, r0

Disassembly of section .text._ZN18RDMDeviceResponderD2Ev:

00000000 <RDMDeviceResponder::~RDMDeviceResponder()>:
   0:	e59f301c 	ldr	r3, [pc, #28]	; 24 <RDMDeviceResponder::~RDMDeviceResponder()+0x24>
   4:	e92d4010 	push	{r4, lr}
   8:	e1a04000 	mov	r4, r0
   c:	e480308c 	str	r3, [r0], #140	; 0x8c
  10:	ebfffffe 	bl	0 <RDMSubDevices::~RDMSubDevices()>
  14:	e2840084 	add	r0, r4, #132	; 0x84
  18:	ebfffffe 	bl	0 <RDMSensors::~RDMSensors()>
  1c:	e1a00004 	mov	r0, r4
  20:	e8bd8010 	pop	{r4, pc}
  24:	00000008 	andeq	r0, r0, r8

Disassembly of section .text._ZN18RDMDeviceResponderD0Ev:

00000000 <RDMDeviceResponder::~RDMDeviceResponder()>:
   0:	e59f3024 	ldr	r3, [pc, #36]	; 2c <RDMDeviceResponder::~RDMDeviceResponder()+0x2c>
   4:	e92d4010 	push	{r4, lr}
   8:	e1a04000 	mov	r4, r0
   c:	e480308c 	str	r3, [r0], #140	; 0x8c
  10:	ebfffffe 	bl	0 <RDMSubDevices::~RDMSubDevices()>
  14:	e2840084 	add	r0, r4, #132	; 0x84
  18:	ebfffffe 	bl	0 <RDMSensors::~RDMSensors()>
  1c:	e1a00004 	mov	r0, r4
  20:	ebfffffe 	bl	0 <operator delete(void*)>
  24:	e1a00004 	mov	r0, r4
  28:	e8bd8010 	pop	{r4, pc}
  2c:	00000008 	andeq	r0, r0, r8

Disassembly of section .rodata.str1.4:

00000000 <.LC0>:
   0:	204d4452 	subcs	r4, sp, r2, asr r4
   4:	70736552 	rsbsvc	r6, r3, r2, asr r5
   8:	65646e6f 	strbvs	r6, [r4, #-3695]!	; 0xfffff191
   c:	6f632072 	svcvs	0x00632072
  10:	6769666e 	strbvs	r6, [r9, -lr, ror #12]!
  14:	74617275 	strbtvc	r7, [r1], #-629	; 0xfffffd8b
  18:	0a6e6f69 	beq	1b9bdc4 <RDMDeviceResponder::Print()+0x1b9bb04>
  1c:	00000000 	andeq	r0, r0, r0

00000020 <.LC1>:
  20:	6f725020 	svcvs	0x00725020
  24:	6f636f74 	svcvs	0x00636f74
  28:	6556206c 	ldrbvs	r2, [r6, #-108]	; 0xffffff94
  2c:	6f697372 	svcvs	0x00697372
  30:	6425206e 	strtvs	r2, [r5], #-110	; 0xffffff92
  34:	0a64252e 	beq	19094f4 <RDMDeviceResponder::Print()+0x1909234>
  38:	00000000 	andeq	r0, r0, r0

0000003c <.LC2>:
  3c:	584d4420 	stmdapl	sp, {r5, sl, lr}^
  40:	64644120 	strbtvs	r4, [r4], #-288	; 0xfffffee0
  44:	73736572 	cmnvc	r3, #478150656	; 0x1c800000
  48:	20202020 	eorcs	r2, r0, r0, lsr #32
  4c:	203a2020 	eorscs	r2, sl, r0, lsr #32
  50:	000a6425 	andeq	r6, sl, r5, lsr #8

00000054 <.LC3>:
  54:	584d4420 	stmdapl	sp, {r5, sl, lr}^
  58:	6f6f4620 	svcvs	0x006f4620
  5c:	69727074 	ldmdbvs	r2!, {r2, r4, r5, r6, ip, sp, lr}^
  60:	2020746e 	eorcs	r7, r0, lr, ror #8
  64:	203a2020 	eorscs	r2, sl, r0, lsr #32
  68:	000a6425 	andeq	r6, sl, r5, lsr #8

0000006c <.LC4>:
  6c:	72655020 	rsbvc	r5, r5, #32
  70:	616e6f73 	smcvs	59123	; 0xe6f3
  74:	7974696c 	ldmdbvc	r4!, {r2, r3, r5, r6, r8, fp, sp, lr}^
  78:	20642520 	rsbcs	r2, r4, r0, lsr #10
  7c:	2520666f 	strcs	r6, [r0, #-1647]!	; 0xfffff991
  80:	255b2064 	ldrbcs	r2, [fp, #-100]	; 0xffffff9c
  84:	5d732a2e 	vldmdbpl	r3!, {s5-s50}
  88:	0000000a 	andeq	r0, r0, sl

0000008c <.LC5>:
  8c:	62755320 	rsbsvs	r5, r5, #32, 6	; 0x80000000
  90:	76654420 	strbtvc	r4, [r5], -r0, lsr #8
  94:	73656369 	cmnvc	r5, #-1543503871	; 0xa4000001
  98:	20202020 	eorcs	r2, r0, r0, lsr #32
  9c:	203a2020 	eorscs	r2, sl, r0, lsr #32
  a0:	000a6425 	andeq	r6, sl, r5, lsr #8

000000a4 <.LC6>:
  a4:	6e655320 	cdpvs	3, 6, cr5, cr5, cr0, {1}
  a8:	73726f73 	cmnvc	r2, #460	; 0x1cc
  ac:	20202020 	eorcs	r2, r0, r0, lsr #32
  b0:	20202020 	eorcs	r2, r0, r0, lsr #32
  b4:	203a2020 	eorscs	r2, sl, r0, lsr #32
  b8:	000a6425 	andeq	r6, sl, r5, lsr #8

Disassembly of section .rodata:

00000000 <vtable for RDMDeviceResponder>:
	...

Disassembly of section .comment:

00000000 <.comment>:
   0:	43434700 	movtmi	r4, #14080	; 0x3700
   4:	4728203a 			; <UNDEFINED> instruction: 0x4728203a
   8:	2029554e 	eorcs	r5, r9, lr, asr #10
   c:	332e3031 			; <UNDEFINED> instruction: 0x332e3031
  10:	Address 0x0000000000000010 is out of bounds.


Disassembly of section .ARM.attributes:

00000000 <.ARM.attributes>:
   0:	00003441 	andeq	r3, r0, r1, asr #8
   4:	61656100 	cmnvs	r5, r0, lsl #2
   8:	01006962 	tsteq	r0, r2, ror #18
   c:	0000002a 	andeq	r0, r0, sl, lsr #32
  10:	412d3705 			; <UNDEFINED> instruction: 0x412d3705
  14:	070a0600 	streq	r0, [sl, -r0, lsl #12]
  18:	09010841 	stmdbeq	r1, {r0, r6, fp}
  1c:	0c050a02 			; <UNDEFINED> instruction: 0x0c050a02
  20:	14041202 	strne	r1, [r4], #-514	; 0xfffffdfe
  24:	17011501 	strne	r1, [r1, -r1, lsl #10]
  28:	19011803 	stmdbne	r1, {r0, r1, fp, ip}
  2c:	1c011a01 			; <UNDEFINED> instruction: 0x1c011a01
  30:	22021e01 	andcs	r1, r2, #1, 28
  34:	Address 0x0000000000000034 is out of bounds.


rdmhandler.o:     file format elf32-littlearm


Disassembly of section .group:

00000000 <.group>:
   0:	00000001 	andeq	r0, r0, r1
   4:	00000008 	andeq	r0, r0, r8

Disassembly of section .group:

00000000 <.group>:
   0:	00000001 	andeq	r0, r0, r1
   4:	00000009 	andeq	r0, r0, r9

Disassembly of section .group:

00000000 <.group>:
   0:	00000001 	andeq	r0, r0, r1
   4:	0000000a 	andeq	r0, r0, sl

Disassembly of section .text:

00000000 <RDMHandler::RDMHandler(bool)>:
       0:	e5c01000 	strb	r1, [r0]
       4:	e3a02000 	mov	r2, #0
       8:	e5c02001 	strb	r2, [r0, #1]
       c:	e5802004 	str	r2, [r0, #4]
      10:	e5802008 	str	r2, [r0, #8]
      14:	e12fff1e 	bx	lr

00000018 <RDMHandler::HandleString(char const*, unsigned long)>:
      18:	e590c008 	ldr	ip, [r0, #8]
      1c:	e3520000 	cmp	r2, #0
      20:	e5cc2017 	strb	r2, [ip, #23]
      24:	012fff1e 	bxeq	lr
      28:	e3520020 	cmp	r2, #32
      2c:	e92d4070 	push	{r4, r5, r6, lr}
      30:	9a00005b 	bls	1a4 <RDMHandler::HandleString(char const*, unsigned long)+0x18c>
      34:	e242e021 	sub	lr, r2, #33	; 0x21
      38:	e30f4ffe 	movw	r4, #65534	; 0xfffe
      3c:	e3cee01f 	bic	lr, lr, #31
      40:	e2815042 	add	r5, r1, #66	; 0x42
      44:	e34f4fff 	movt	r4, #65535	; 0xffff
      48:	e2813022 	add	r3, r1, #34	; 0x22
      4c:	e0444001 	sub	r4, r4, r1
      50:	e28c003a 	add	r0, ip, #58	; 0x3a
      54:	e08ee005 	add	lr, lr, r5
      58:	e5535022 	ldrb	r5, [r3, #-34]	; 0xffffffde
      5c:	f5d3f000 	pld	[r3]
      60:	e5405022 	strb	r5, [r0, #-34]	; 0xffffffde
      64:	e5535021 	ldrb	r5, [r3, #-33]	; 0xffffffdf
      68:	f5d0f000 	pld	[r0]
      6c:	e2800020 	add	r0, r0, #32
      70:	e5405041 	strb	r5, [r0, #-65]	; 0xffffffbf
      74:	e5535020 	ldrb	r5, [r3, #-32]	; 0xffffffe0
      78:	e5405040 	strb	r5, [r0, #-64]	; 0xffffffc0
      7c:	e553501f 	ldrb	r5, [r3, #-31]	; 0xffffffe1
      80:	e540503f 	strb	r5, [r0, #-63]	; 0xffffffc1
      84:	e553501e 	ldrb	r5, [r3, #-30]	; 0xffffffe2
      88:	e540503e 	strb	r5, [r0, #-62]	; 0xffffffc2
      8c:	e553501d 	ldrb	r5, [r3, #-29]	; 0xffffffe3
      90:	e540503d 	strb	r5, [r0, #-61]	; 0xffffffc3
      94:	e553501c 	ldrb	r5, [r3, #-28]	; 0xffffffe4
      98:	e540503c 	strb	r5, [r0, #-60]	; 0xffffffc4
      9c:	e553501b 	ldrb	r5, [r3, #-27]	; 0xffffffe5
      a0:	e540503b 	strb	r5, [r0, #-59]	; 0xffffffc5
      a4:	e553501a 	ldrb	r5, [r3, #-26]	; 0xffffffe6
      a8:	e540503a 	strb	r5, [r0, #-58]	; 0xffffffc6
      ac:	e5535019 	ldrb	r5, [r3, #-25]	; 0xffffffe7
      b0:	e5405039 	strb	r5, [r0, #-57]	; 0xffffffc7
      b4:	e5535018 	ldrb	r5, [r3, #-24]	; 0xffffffe8
      b8:	e5405038 	strb	r5, [r0, #-56]	; 0xffffffc8
      bc:	e5535017 	ldrb	r5, [r3, #-23]	; 0xffffffe9
      c0:	e5405037 	strb	r5, [r0, #-55]	; 0xffffffc9
      c4:	e5535016 	ldrb	r5, [r3, #-22]	; 0xffffffea
      c8:	e5405036 	strb	r5, [r0, #-54]	; 0xffffffca
      cc:	e5535015 	ldrb	r5, [r3, #-21]	; 0xffffffeb
      d0:	e5405035 	strb	r5, [r0, #-53]	; 0xffffffcb
      d4:	e5535014 	ldrb	r5, [r3, #-20]	; 0xffffffec
      d8:	e5405034 	strb	r5, [r0, #-52]	; 0xffffffcc
      dc:	e5535013 	ldrb	r5, [r3, #-19]	; 0xffffffed
      e0:	e5405033 	strb	r5, [r0, #-51]	; 0xffffffcd
      e4:	e5535012 	ldrb	r5, [r3, #-18]	; 0xffffffee
      e8:	e5405032 	strb	r5, [r0, #-50]	; 0xffffffce
      ec:	e5535011 	ldrb	r5, [r3, #-17]	; 0xffffffef
      f0:	e5405031 	strb	r5, [r0, #-49]	; 0xffffffcf
      f4:	e5535010 	ldrb	r5, [r3, #-16]
      f8:	e5405030 	strb	r5, [r0, #-48]	; 0xffffffd0
      fc:	e553500f 	ldrb	r5, [r3, #-15]
     100:	e540502f 	strb	r5, [r0, #-47]	; 0xffffffd1
     104:	e553500e 	ldrb	r5, [r3, #-14]
     108:	e540502e 	strb	r5, [r0, #-46]	; 0xffffffd2
     10c:	e553500d 	ldrb	r5, [r3, #-13]
     110:	e540502d 	strb	r5, [r0, #-45]	; 0xffffffd3
     114:	e553500c 	ldrb	r5, [r3, #-12]
     118:	e540502c 	strb	r5, [r0, #-44]	; 0xffffffd4
     11c:	e553500b 	ldrb	r5, [r3, #-11]
     120:	e540502b 	strb	r5, [r0, #-43]	; 0xffffffd5
     124:	e553500a 	ldrb	r5, [r3, #-10]
     128:	e540502a 	strb	r5, [r0, #-42]	; 0xffffffd6
     12c:	e5535009 	ldrb	r5, [r3, #-9]
     130:	e5405029 	strb	r5, [r0, #-41]	; 0xffffffd7
     134:	e5535008 	ldrb	r5, [r3, #-8]
     138:	e5405028 	strb	r5, [r0, #-40]	; 0xffffffd8
     13c:	e5535007 	ldrb	r5, [r3, #-7]
     140:	e5405027 	strb	r5, [r0, #-39]	; 0xffffffd9
     144:	e5535006 	ldrb	r5, [r3, #-6]
     148:	e5405026 	strb	r5, [r0, #-38]	; 0xffffffda
     14c:	e5535005 	ldrb	r5, [r3, #-5]
     150:	e5405025 	strb	r5, [r0, #-37]	; 0xffffffdb
     154:	e5535004 	ldrb	r5, [r3, #-4]
     158:	e5405024 	strb	r5, [r0, #-36]	; 0xffffffdc
     15c:	e0845003 	add	r5, r4, r3
     160:	e2833020 	add	r3, r3, #32
     164:	e5536023 	ldrb	r6, [r3, #-35]	; 0xffffffdd
     168:	e153000e 	cmp	r3, lr
     16c:	e5406023 	strb	r6, [r0, #-35]	; 0xffffffdd
     170:	1affffb8 	bne	58 <RDMHandler::HandleString(char const*, unsigned long)+0x40>
     174:	e2450001 	sub	r0, r5, #1
     178:	e2855018 	add	r5, r5, #24
     17c:	e08cc005 	add	ip, ip, r5
     180:	e0810000 	add	r0, r1, r0
     184:	e1a03000 	mov	r3, r0
     188:	e5f0e001 	ldrb	lr, [r0, #1]!
     18c:	e2833002 	add	r3, r3, #2
     190:	e0433001 	sub	r3, r3, r1
     194:	e1520003 	cmp	r2, r3
     198:	e4cce001 	strb	lr, [ip], #1
     19c:	8afffff8 	bhi	184 <RDMHandler::HandleString(char const*, unsigned long)+0x16c>
     1a0:	e8bd8070 	pop	{r4, r5, r6, pc}
     1a4:	e3a05000 	mov	r5, #0
     1a8:	eafffff1 	b	174 <RDMHandler::HandleString(char const*, unsigned long)+0x15c>

000001ac <RDMHandler::CreateRespondMessage(unsigned char, unsigned short)>:
     1ac:	e590c004 	ldr	ip, [r0, #4]
     1b0:	e3510000 	cmp	r1, #0
     1b4:	e5903008 	ldr	r3, [r0, #8]
     1b8:	e92d4070 	push	{r4, r5, r6, lr}
     1bc:	e3e0e033 	mvn	lr, #51	; 0x33
     1c0:	e5c3e000 	strb	lr, [r3]
     1c4:	e5dce000 	ldrb	lr, [ip]
     1c8:	e5c3e001 	strb	lr, [r3, #1]
     1cc:	e5dce00e 	ldrb	lr, [ip, #14]
     1d0:	e5c3e00f 	strb	lr, [r3, #15]
     1d4:	e3a0e000 	mov	lr, #0
     1d8:	e5c3e011 	strb	lr, [r3, #17]
     1dc:	e5dce011 	ldrb	lr, [ip, #17]
     1e0:	e5c3e012 	strb	lr, [r3, #18]
     1e4:	e5dce012 	ldrb	lr, [ip, #18]
     1e8:	e5c3e013 	strb	lr, [r3, #19]
     1ec:	e5dce013 	ldrb	lr, [ip, #19]
     1f0:	e28ee001 	add	lr, lr, #1
     1f4:	e5c3e014 	strb	lr, [r3, #20]
     1f8:	e5dce014 	ldrb	lr, [ip, #20]
     1fc:	e5c3e015 	strb	lr, [r3, #21]
     200:	e5dce015 	ldrb	lr, [ip, #21]
     204:	e5c3e016 	strb	lr, [r3, #22]
     208:	0a00007d 	beq	404 <RDMHandler::CreateRespondMessage(unsigned char, unsigned short)+0x258>
     20c:	e241e001 	sub	lr, r1, #1
     210:	e35e0001 	cmp	lr, #1
     214:	88bd8070 	pophi	{r4, r5, r6, pc}
     218:	e5c31010 	strb	r1, [r3, #16]
     21c:	e3a01002 	mov	r1, #2
     220:	e5c31017 	strb	r1, [r3, #23]
     224:	e3a0e01a 	mov	lr, #26
     228:	e1a01422 	lsr	r1, r2, #8
     22c:	e5c31018 	strb	r1, [r3, #24]
     230:	e5c32019 	strb	r2, [r3, #25]
     234:	e5c3e002 	strb	lr, [r3, #2]
     238:	e3001000 	movw	r1, #0
     23c:	e28c2008 	add	r2, ip, #8
     240:	e3401000 	movt	r1, #0
     244:	e2833003 	add	r3, r3, #3
     248:	e28cc00e 	add	ip, ip, #14
     24c:	e5911000 	ldr	r1, [r1]
     250:	e2811005 	add	r1, r1, #5
     254:	e4d24001 	ldrb	r4, [r2], #1
     258:	e4c34001 	strb	r4, [r3], #1
     25c:	e152000c 	cmp	r2, ip
     260:	e4d14001 	ldrb	r4, [r1], #1
     264:	e5c34005 	strb	r4, [r3, #5]
     268:	1afffff9 	bne	254 <RDMHandler::CreateRespondMessage(unsigned char, unsigned short)+0xa8>
     26c:	e5904008 	ldr	r4, [r0, #8]
     270:	e35e0000 	cmp	lr, #0
     274:	0a000068 	beq	41c <RDMHandler::CreateRespondMessage(unsigned char, unsigned short)+0x270>
     278:	e35e0020 	cmp	lr, #32
     27c:	9a00006a 	bls	42c <RDMHandler::CreateRespondMessage(unsigned char, unsigned short)+0x280>
     280:	e24e3021 	sub	r3, lr, #33	; 0x21
     284:	e30f5ffe 	movw	r5, #65534	; 0xfffe
     288:	e3c3301f 	bic	r3, r3, #31
     28c:	e2842042 	add	r2, r4, #66	; 0x42
     290:	e34f5fff 	movt	r5, #65535	; 0xffff
     294:	e2841022 	add	r1, r4, #34	; 0x22
     298:	e0832002 	add	r2, r3, r2
     29c:	e3a0c000 	mov	ip, #0
     2a0:	e0455004 	sub	r5, r5, r4
     2a4:	e5513021 	ldrb	r3, [r1, #-33]	; 0xffffffdf
     2a8:	e5516022 	ldrb	r6, [r1, #-34]	; 0xffffffde
     2ac:	f5d1f000 	pld	[r1]
     2b0:	e0866003 	add	r6, r6, r3
     2b4:	e5513020 	ldrb	r3, [r1, #-32]	; 0xffffffe0
     2b8:	e0836006 	add	r6, r3, r6
     2bc:	e551301f 	ldrb	r3, [r1, #-31]	; 0xffffffe1
     2c0:	e0833006 	add	r3, r3, r6
     2c4:	e551601e 	ldrb	r6, [r1, #-30]	; 0xffffffe2
     2c8:	e0863003 	add	r3, r6, r3
     2cc:	e551601d 	ldrb	r6, [r1, #-29]	; 0xffffffe3
     2d0:	e0866003 	add	r6, r6, r3
     2d4:	e551301c 	ldrb	r3, [r1, #-28]	; 0xffffffe4
     2d8:	e0836006 	add	r6, r3, r6
     2dc:	e551301b 	ldrb	r3, [r1, #-27]	; 0xffffffe5
     2e0:	e0833006 	add	r3, r3, r6
     2e4:	e551601a 	ldrb	r6, [r1, #-26]	; 0xffffffe6
     2e8:	e0863003 	add	r3, r6, r3
     2ec:	e5516019 	ldrb	r6, [r1, #-25]	; 0xffffffe7
     2f0:	e0866003 	add	r6, r6, r3
     2f4:	e5513018 	ldrb	r3, [r1, #-24]	; 0xffffffe8
     2f8:	e0836006 	add	r6, r3, r6
     2fc:	e5513017 	ldrb	r3, [r1, #-23]	; 0xffffffe9
     300:	e0833006 	add	r3, r3, r6
     304:	e5516016 	ldrb	r6, [r1, #-22]	; 0xffffffea
     308:	e0863003 	add	r3, r6, r3
     30c:	e5516015 	ldrb	r6, [r1, #-21]	; 0xffffffeb
     310:	e0866003 	add	r6, r6, r3
     314:	e5513014 	ldrb	r3, [r1, #-20]	; 0xffffffec
     318:	e0836006 	add	r6, r3, r6
     31c:	e5513013 	ldrb	r3, [r1, #-19]	; 0xffffffed
     320:	e0833006 	add	r3, r3, r6
     324:	e5516012 	ldrb	r6, [r1, #-18]	; 0xffffffee
     328:	e0863003 	add	r3, r6, r3
     32c:	e5516011 	ldrb	r6, [r1, #-17]	; 0xffffffef
     330:	e0866003 	add	r6, r6, r3
     334:	e5513010 	ldrb	r3, [r1, #-16]
     338:	e0836006 	add	r6, r3, r6
     33c:	e551300f 	ldrb	r3, [r1, #-15]
     340:	e0833006 	add	r3, r3, r6
     344:	e551600e 	ldrb	r6, [r1, #-14]
     348:	e0863003 	add	r3, r6, r3
     34c:	e551600d 	ldrb	r6, [r1, #-13]
     350:	e0866003 	add	r6, r6, r3
     354:	e551300c 	ldrb	r3, [r1, #-12]
     358:	e0836006 	add	r6, r3, r6
     35c:	e551300b 	ldrb	r3, [r1, #-11]
     360:	e0833006 	add	r3, r3, r6
     364:	e551600a 	ldrb	r6, [r1, #-10]
     368:	e0863003 	add	r3, r6, r3
     36c:	e5516009 	ldrb	r6, [r1, #-9]
     370:	e0866003 	add	r6, r6, r3
     374:	e5513008 	ldrb	r3, [r1, #-8]
     378:	e0836006 	add	r6, r3, r6
     37c:	e5513007 	ldrb	r3, [r1, #-7]
     380:	e0833006 	add	r3, r3, r6
     384:	e5516006 	ldrb	r6, [r1, #-6]
     388:	e0863003 	add	r3, r6, r3
     38c:	e5516005 	ldrb	r6, [r1, #-5]
     390:	e0866003 	add	r6, r6, r3
     394:	e5513004 	ldrb	r3, [r1, #-4]
     398:	e0836006 	add	r6, r3, r6
     39c:	e5513003 	ldrb	r3, [r1, #-3]
     3a0:	e0833006 	add	r3, r3, r6
     3a4:	e08cc003 	add	ip, ip, r3
     3a8:	e0853001 	add	r3, r5, r1
     3ac:	e2811020 	add	r1, r1, #32
     3b0:	e1520001 	cmp	r2, r1
     3b4:	e6ffc07c 	uxth	ip, ip
     3b8:	1affffb9 	bne	2a4 <RDMHandler::CreateRespondMessage(unsigned char, unsigned short)+0xf8>
     3bc:	e2433001 	sub	r3, r3, #1
     3c0:	e0841003 	add	r1, r4, r3
     3c4:	e1a03001 	mov	r3, r1
     3c8:	e5f12001 	ldrb	r2, [r1, #1]!
     3cc:	e2833002 	add	r3, r3, #2
     3d0:	e0433004 	sub	r3, r3, r4
     3d4:	e15e0003 	cmp	lr, r3
     3d8:	e08c2002 	add	r2, ip, r2
     3dc:	e6ffc072 	uxth	ip, r2
     3e0:	8afffff7 	bhi	3c4 <RDMHandler::CreateRespondMessage(unsigned char, unsigned short)+0x218>
     3e4:	e084400e 	add	r4, r4, lr
     3e8:	e6ef207c 	uxtb	r2, ip
     3ec:	e1a0342c 	lsr	r3, ip, #8
     3f0:	e28ee001 	add	lr, lr, #1
     3f4:	e5c43000 	strb	r3, [r4]
     3f8:	e5903008 	ldr	r3, [r0, #8]
     3fc:	e7c3200e 	strb	r2, [r3, lr]
     400:	e8bd8070 	pop	{r4, r5, r6, pc}
     404:	e5d3e017 	ldrb	lr, [r3, #23]
     408:	e5c31010 	strb	r1, [r3, #16]
     40c:	e28ee018 	add	lr, lr, #24
     410:	e6efe07e 	uxtb	lr, lr
     414:	e5c3e002 	strb	lr, [r3, #2]
     418:	eaffff86 	b	238 <RDMHandler::CreateRespondMessage(unsigned char, unsigned short)+0x8c>
     41c:	e1a0200e 	mov	r2, lr
     420:	e3a0e001 	mov	lr, #1
     424:	e1a03002 	mov	r3, r2
     428:	eafffff1 	b	3f4 <RDMHandler::CreateRespondMessage(unsigned char, unsigned short)+0x248>
     42c:	e3a0c000 	mov	ip, #0
     430:	e1a0300c 	mov	r3, ip
     434:	eaffffe0 	b	3bc <RDMHandler::CreateRespondMessage(unsigned char, unsigned short)+0x210>

00000438 <RDMHandler::SetResetDevice(bool, unsigned short)>:
     438:	e5903004 	ldr	r3, [r0, #4]
     43c:	e5d32016 	ldrb	r2, [r3, #22]
     440:	e3520001 	cmp	r2, #1
     444:	1a000016 	bne	4a4 <RDMHandler::SetResetDevice(bool, unsigned short)+0x6c>
     448:	e5d33017 	ldrb	r3, [r3, #23]
     44c:	e3530001 	cmp	r3, #1
     450:	135300ff 	cmpne	r3, #255	; 0xff
     454:	13a02001 	movne	r2, #1
     458:	03a02000 	moveq	r2, #0
     45c:	1a000013 	bne	4b0 <RDMHandler::SetResetDevice(bool, unsigned short)+0x78>
     460:	e5901008 	ldr	r1, [r0, #8]
     464:	e35300ff 	cmp	r3, #255	; 0xff
     468:	e92d4010 	push	{r4, lr}
     46c:	e1a04000 	mov	r4, r0
     470:	e5c12017 	strb	r2, [r1, #23]
     474:	0a000005 	beq	490 <RDMHandler::SetResetDevice(bool, unsigned short)+0x58>
     478:	e3003000 	movw	r3, #0
     47c:	e3403000 	movt	r3, #0
     480:	e5930000 	ldr	r0, [r3]
     484:	ebfffffe 	bl	0 <Hardware::Reboot()>
     488:	e3500000 	cmp	r0, #0
     48c:	18bd8010 	popne	{r4, pc}
     490:	e1a00004 	mov	r0, r4
     494:	e3a02004 	mov	r2, #4
     498:	e8bd4010 	pop	{r4, lr}
     49c:	e3a01002 	mov	r1, #2
     4a0:	eafffffe 	b	1ac <RDMHandler::CreateRespondMessage(unsigned char, unsigned short)>
     4a4:	e3a02001 	mov	r2, #1
     4a8:	e3a01002 	mov	r1, #2
     4ac:	eafffffe 	b	1ac <RDMHandler::CreateRespondMessage(unsigned char, unsigned short)>
     4b0:	e3a02006 	mov	r2, #6
     4b4:	e3a01002 	mov	r1, #2
     4b8:	eafffffe 	b	1ac <RDMHandler::CreateRespondMessage(unsigned char, unsigned short)>

000004bc <RDMHandler::SetDeviceHours(bool, unsigned short)>:
     4bc:	e3a02004 	mov	r2, #4
     4c0:	e3a01002 	mov	r1, #2
     4c4:	eafffffe 	b	1ac <RDMHandler::CreateRespondMessage(unsigned char, unsigned short)>

000004c8 <RDMHandler::GetPowerState(unsigned short)>:
     4c8:	e5903008 	ldr	r3, [r0, #8]
     4cc:	e3a01001 	mov	r1, #1
     4d0:	e3e02000 	mvn	r2, #0
     4d4:	e5c31017 	strb	r1, [r3, #23]
     4d8:	e5c32018 	strb	r2, [r3, #24]
     4dc:	e5903004 	ldr	r3, [r0, #4]
     4e0:	e5d32016 	ldrb	r2, [r3, #22]
     4e4:	e3520000 	cmp	r2, #0
     4e8:	03a02018 	moveq	r2, #24
     4ec:	05c32001 	strbeq	r2, [r3, #1]
     4f0:	e3a02000 	mov	r2, #0
     4f4:	e1a01002 	mov	r1, r2
     4f8:	eafffffe 	b	1ac <RDMHandler::CreateRespondMessage(unsigned char, unsigned short)>

000004fc <RDMHandler::GetDisplayLevel(unsigned short)>:
     4fc:	e3003000 	movw	r3, #0
     500:	e3a01001 	mov	r1, #1
     504:	e3403000 	movt	r3, #0
     508:	e5932000 	ldr	r2, [r3]
     50c:	e5903008 	ldr	r3, [r0, #8]
     510:	e5c31017 	strb	r1, [r3, #23]
     514:	e5d22018 	ldrb	r2, [r2, #24]
     518:	e5c32018 	strb	r2, [r3, #24]
     51c:	e5903004 	ldr	r3, [r0, #4]
     520:	e5d32016 	ldrb	r2, [r3, #22]
     524:	e3520000 	cmp	r2, #0
     528:	03a02018 	moveq	r2, #24
     52c:	05c32001 	strbeq	r2, [r3, #1]
     530:	e3a02000 	mov	r2, #0
     534:	e1a01002 	mov	r1, r2
     538:	eafffffe 	b	1ac <RDMHandler::CreateRespondMessage(unsigned char, unsigned short)>

0000053c <RDMHandler::GetIdentifyDevice(unsigned short)>:
     53c:	e3003000 	movw	r3, #0
     540:	e3403000 	movt	r3, #0
     544:	e5d32000 	ldrb	r2, [r3]
     548:	e5903008 	ldr	r3, [r0, #8]
     54c:	e5c32018 	strb	r2, [r3, #24]
     550:	e3a02001 	mov	r2, #1
     554:	e5c32017 	strb	r2, [r3, #23]
     558:	e5903004 	ldr	r3, [r0, #4]
     55c:	e5d32016 	ldrb	r2, [r3, #22]
     560:	e3520000 	cmp	r2, #0
     564:	03a02018 	moveq	r2, #24
     568:	05c32001 	strbeq	r2, [r3, #1]
     56c:	e3a02000 	mov	r2, #0
     570:	e1a01002 	mov	r1, r2
     574:	eafffffe 	b	1ac <RDMHandler::CreateRespondMessage(unsigned char, unsigned short)>

00000578 <RDMHandler::GetDisplayInvert(unsigned short)>:
     578:	e3003000 	movw	r3, #0
     57c:	e3a01001 	mov	r1, #1
     580:	e3403000 	movt	r3, #0
     584:	e5932000 	ldr	r2, [r3]
     588:	e5903008 	ldr	r3, [r0, #8]
     58c:	e5c31017 	strb	r1, [r3, #23]
     590:	e5d22019 	ldrb	r2, [r2, #25]
     594:	e5c32018 	strb	r2, [r3, #24]
     598:	e5903004 	ldr	r3, [r0, #4]
     59c:	e5d32016 	ldrb	r2, [r3, #22]
     5a0:	e3520000 	cmp	r2, #0
     5a4:	03a02018 	moveq	r2, #24
     5a8:	05c32001 	strbeq	r2, [r3, #1]
     5ac:	e3a02000 	mov	r2, #0
     5b0:	e1a01002 	mov	r1, r2
     5b4:	eafffffe 	b	1ac <RDMHandler::CreateRespondMessage(unsigned char, unsigned short)>

000005b8 <RDMHandler::GetProductDetailIdList(unsigned short)>:
     5b8:	e3003000 	movw	r3, #0
     5bc:	e3a01002 	mov	r1, #2
     5c0:	e3403000 	movt	r3, #0
     5c4:	e5932000 	ldr	r2, [r3]
     5c8:	e5903008 	ldr	r3, [r0, #8]
     5cc:	e1d225b4 	ldrh	r2, [r2, #84]	; 0x54
     5d0:	e5c31017 	strb	r1, [r3, #23]
     5d4:	e1a01422 	lsr	r1, r2, #8
     5d8:	e5c32019 	strb	r2, [r3, #25]
     5dc:	e5c31018 	strb	r1, [r3, #24]
     5e0:	e5903004 	ldr	r3, [r0, #4]
     5e4:	e5d32016 	ldrb	r2, [r3, #22]
     5e8:	e3520000 	cmp	r2, #0
     5ec:	03a02018 	moveq	r2, #24
     5f0:	05c32001 	strbeq	r2, [r3, #1]
     5f4:	e3a02000 	mov	r2, #0
     5f8:	e1a01002 	mov	r1, r2
     5fc:	eafffffe 	b	1ac <RDMHandler::CreateRespondMessage(unsigned char, unsigned short)>

00000600 <RDMHandler::GetLanguage(unsigned short)>:
     600:	e3003000 	movw	r3, #0
     604:	e3a01002 	mov	r1, #2
     608:	e3403000 	movt	r3, #0
     60c:	e5932000 	ldr	r2, [r3]
     610:	e5903008 	ldr	r3, [r0, #8]
     614:	e5c31017 	strb	r1, [r3, #23]
     618:	e5d210c3 	ldrb	r1, [r2, #195]	; 0xc3
     61c:	e5c31018 	strb	r1, [r3, #24]
     620:	e5d220c4 	ldrb	r2, [r2, #196]	; 0xc4
     624:	e5c32019 	strb	r2, [r3, #25]
     628:	e5903004 	ldr	r3, [r0, #4]
     62c:	e5d32016 	ldrb	r2, [r3, #22]
     630:	e3520000 	cmp	r2, #0
     634:	03a02018 	moveq	r2, #24
     638:	05c32001 	strbeq	r2, [r3, #1]
     63c:	e3a02000 	mov	r2, #0
     640:	e1a01002 	mov	r1, r2
     644:	eafffffe 	b	1ac <RDMHandler::CreateRespondMessage(unsigned char, unsigned short)>

00000648 <RDMHandler::GetManufacturerLabel(unsigned short)>:
     648:	e5902008 	ldr	r2, [r0, #8]
     64c:	e3003000 	movw	r3, #0
     650:	e3403000 	movt	r3, #0
     654:	e92d40f0 	push	{r4, r5, r6, r7, lr}
     658:	e5933000 	ldr	r3, [r3]
     65c:	e5d3e050 	ldrb	lr, [r3, #80]	; 0x50
     660:	e5c2e017 	strb	lr, [r2, #23]
     664:	e35e0000 	cmp	lr, #0
     668:	0a000059 	beq	7d4 <RDMHandler::GetManufacturerLabel(unsigned short)+0x18c>
     66c:	e35e0020 	cmp	lr, #32
     670:	e24e401f 	sub	r4, lr, #31
     674:	9a00005f 	bls	7f8 <RDMHandler::GetManufacturerLabel(unsigned short)+0x1b0>
     678:	e283c052 	add	ip, r3, #82	; 0x52
     67c:	e282103a 	add	r1, r2, #58	; 0x3a
     680:	e3a05000 	mov	r5, #0
     684:	e55c6022 	ldrb	r6, [ip, #-34]	; 0xffffffde
     688:	f5dcf000 	pld	[ip]
     68c:	e28cc020 	add	ip, ip, #32
     690:	e5416022 	strb	r6, [r1, #-34]	; 0xffffffde
     694:	e55c6041 	ldrb	r6, [ip, #-65]	; 0xffffffbf
     698:	f5d1f000 	pld	[r1]
     69c:	e2811020 	add	r1, r1, #32
     6a0:	e5416041 	strb	r6, [r1, #-65]	; 0xffffffbf
     6a4:	e55c6040 	ldrb	r6, [ip, #-64]	; 0xffffffc0
     6a8:	e5416040 	strb	r6, [r1, #-64]	; 0xffffffc0
     6ac:	e55c603f 	ldrb	r6, [ip, #-63]	; 0xffffffc1
     6b0:	e541603f 	strb	r6, [r1, #-63]	; 0xffffffc1
     6b4:	e55c603e 	ldrb	r6, [ip, #-62]	; 0xffffffc2
     6b8:	e541603e 	strb	r6, [r1, #-62]	; 0xffffffc2
     6bc:	e55c603d 	ldrb	r6, [ip, #-61]	; 0xffffffc3
     6c0:	e541603d 	strb	r6, [r1, #-61]	; 0xffffffc3
     6c4:	e55c603c 	ldrb	r6, [ip, #-60]	; 0xffffffc4
     6c8:	e541603c 	strb	r6, [r1, #-60]	; 0xffffffc4
     6cc:	e55c603b 	ldrb	r6, [ip, #-59]	; 0xffffffc5
     6d0:	e541603b 	strb	r6, [r1, #-59]	; 0xffffffc5
     6d4:	e55c603a 	ldrb	r6, [ip, #-58]	; 0xffffffc6
     6d8:	e541603a 	strb	r6, [r1, #-58]	; 0xffffffc6
     6dc:	e55c6039 	ldrb	r6, [ip, #-57]	; 0xffffffc7
     6e0:	e5416039 	strb	r6, [r1, #-57]	; 0xffffffc7
     6e4:	e55c6038 	ldrb	r6, [ip, #-56]	; 0xffffffc8
     6e8:	e5416038 	strb	r6, [r1, #-56]	; 0xffffffc8
     6ec:	e55c6037 	ldrb	r6, [ip, #-55]	; 0xffffffc9
     6f0:	e5416037 	strb	r6, [r1, #-55]	; 0xffffffc9
     6f4:	e55c6036 	ldrb	r6, [ip, #-54]	; 0xffffffca
     6f8:	e5416036 	strb	r6, [r1, #-54]	; 0xffffffca
     6fc:	e55c6035 	ldrb	r6, [ip, #-53]	; 0xffffffcb
     700:	e5416035 	strb	r6, [r1, #-53]	; 0xffffffcb
     704:	e55c6034 	ldrb	r6, [ip, #-52]	; 0xffffffcc
     708:	e5416034 	strb	r6, [r1, #-52]	; 0xffffffcc
     70c:	e55c6033 	ldrb	r6, [ip, #-51]	; 0xffffffcd
     710:	e5416033 	strb	r6, [r1, #-51]	; 0xffffffcd
     714:	e55c6032 	ldrb	r6, [ip, #-50]	; 0xffffffce
     718:	e5416032 	strb	r6, [r1, #-50]	; 0xffffffce
     71c:	e55c6031 	ldrb	r6, [ip, #-49]	; 0xffffffcf
     720:	e5416031 	strb	r6, [r1, #-49]	; 0xffffffcf
     724:	e55c6030 	ldrb	r6, [ip, #-48]	; 0xffffffd0
     728:	e5416030 	strb	r6, [r1, #-48]	; 0xffffffd0
     72c:	e55c602f 	ldrb	r6, [ip, #-47]	; 0xffffffd1
     730:	e541602f 	strb	r6, [r1, #-47]	; 0xffffffd1
     734:	e55c602e 	ldrb	r6, [ip, #-46]	; 0xffffffd2
     738:	e541602e 	strb	r6, [r1, #-46]	; 0xffffffd2
     73c:	e55c602d 	ldrb	r6, [ip, #-45]	; 0xffffffd3
     740:	e541602d 	strb	r6, [r1, #-45]	; 0xffffffd3
     744:	e55c602c 	ldrb	r6, [ip, #-44]	; 0xffffffd4
     748:	e541602c 	strb	r6, [r1, #-44]	; 0xffffffd4
     74c:	e55c602b 	ldrb	r6, [ip, #-43]	; 0xffffffd5
     750:	e541602b 	strb	r6, [r1, #-43]	; 0xffffffd5
     754:	e55c602a 	ldrb	r6, [ip, #-42]	; 0xffffffd6
     758:	e541602a 	strb	r6, [r1, #-42]	; 0xffffffd6
     75c:	e55c6029 	ldrb	r6, [ip, #-41]	; 0xffffffd7
     760:	e5416029 	strb	r6, [r1, #-41]	; 0xffffffd7
     764:	e55c6028 	ldrb	r6, [ip, #-40]	; 0xffffffd8
     768:	e5416028 	strb	r6, [r1, #-40]	; 0xffffffd8
     76c:	e55c6027 	ldrb	r6, [ip, #-39]	; 0xffffffd9
     770:	e5416027 	strb	r6, [r1, #-39]	; 0xffffffd9
     774:	e55c6026 	ldrb	r6, [ip, #-38]	; 0xffffffda
     778:	e5416026 	strb	r6, [r1, #-38]	; 0xffffffda
     77c:	e55c6025 	ldrb	r6, [ip, #-37]	; 0xffffffdb
     780:	e5416025 	strb	r6, [r1, #-37]	; 0xffffffdb
     784:	e2856021 	add	r6, r5, #33	; 0x21
     788:	e55c7024 	ldrb	r7, [ip, #-36]	; 0xffffffdc
     78c:	e2855020 	add	r5, r5, #32
     790:	e1540006 	cmp	r4, r6
     794:	e5417024 	strb	r7, [r1, #-36]	; 0xffffffdc
     798:	e55c6023 	ldrb	r6, [ip, #-35]	; 0xffffffdd
     79c:	e5416023 	strb	r6, [r1, #-35]	; 0xffffffdd
     7a0:	8affffb7 	bhi	684 <RDMHandler::GetManufacturerLabel(unsigned short)+0x3c>
     7a4:	e30f4fd0 	movw	r4, #65488	; 0xffd0
     7a8:	e2851030 	add	r1, r5, #48	; 0x30
     7ac:	e34f4fff 	movt	r4, #65535	; 0xffff
     7b0:	e2855018 	add	r5, r5, #24
     7b4:	e0444003 	sub	r4, r4, r3
     7b8:	e0822005 	add	r2, r2, r5
     7bc:	e0833001 	add	r3, r3, r1
     7c0:	e4d3c001 	ldrb	ip, [r3], #1
     7c4:	e0841003 	add	r1, r4, r3
     7c8:	e15e0001 	cmp	lr, r1
     7cc:	e4c2c001 	strb	ip, [r2], #1
     7d0:	8afffffa 	bhi	7c0 <RDMHandler::GetManufacturerLabel(unsigned short)+0x178>
     7d4:	e5903004 	ldr	r3, [r0, #4]
     7d8:	e5d32016 	ldrb	r2, [r3, #22]
     7dc:	e3520000 	cmp	r2, #0
     7e0:	03a02018 	moveq	r2, #24
     7e4:	05c32001 	strbeq	r2, [r3, #1]
     7e8:	e3a02000 	mov	r2, #0
     7ec:	e8bd40f0 	pop	{r4, r5, r6, r7, lr}
     7f0:	e1a01002 	mov	r1, r2
     7f4:	eafffffe 	b	1ac <RDMHandler::CreateRespondMessage(unsigned char, unsigned short)>
     7f8:	e3a05000 	mov	r5, #0
     7fc:	eaffffe8 	b	7a4 <RDMHandler::GetManufacturerLabel(unsigned short)+0x15c>

00000800 <RDMHandler::GetDeviceHours(unsigned short)>:
     800:	e92d4010 	push	{r4, lr}
     804:	e1a04000 	mov	r4, r0
     808:	ebfffffe 	bl	0 <hardware_uptime_seconds>
     80c:	e30b33c5 	movw	r3, #46021	; 0xb3c5
     810:	e3a0c004 	mov	ip, #4
     814:	e34931a2 	movt	r3, #37282	; 0x91a2
     818:	e0832093 	umull	r2, r3, r3, r0
     81c:	e5942008 	ldr	r2, [r4, #8]
     820:	e3a00000 	mov	r0, #0
     824:	e1a015a3 	lsr	r1, r3, #11
     828:	e5c20018 	strb	r0, [r2, #24]
     82c:	e1a00da3 	lsr	r0, r3, #27
     830:	e1a039a3 	lsr	r3, r3, #19
     834:	e5c20019 	strb	r0, [r2, #25]
     838:	e1a00004 	mov	r0, r4
     83c:	e5c2101b 	strb	r1, [r2, #27]
     840:	e5c2c017 	strb	ip, [r2, #23]
     844:	e5c2301a 	strb	r3, [r2, #26]
     848:	e5943004 	ldr	r3, [r4, #4]
     84c:	e5d32016 	ldrb	r2, [r3, #22]
     850:	e3520000 	cmp	r2, #0
     854:	03a02018 	moveq	r2, #24
     858:	05c32001 	strbeq	r2, [r3, #1]
     85c:	e3a02000 	mov	r2, #0
     860:	e8bd4010 	pop	{r4, lr}
     864:	e1a01002 	mov	r1, r2
     868:	eafffffe 	b	1ac <RDMHandler::CreateRespondMessage(unsigned char, unsigned short)>

0000086c <RDMHandler::GetSoftwareVersionLabel(unsigned short)>:
     86c:	e5901008 	ldr	r1, [r0, #8]
     870:	e3003000 	movw	r3, #0
     874:	e3403000 	movt	r3, #0
     878:	e92d41f0 	push	{r4, r5, r6, r7, r8, lr}
     87c:	e5933000 	ldr	r3, [r3]
     880:	e5d3e09c 	ldrb	lr, [r3, #156]	; 0x9c
     884:	e5934098 	ldr	r4, [r3, #152]	; 0x98
     888:	e5c1e017 	strb	lr, [r1, #23]
     88c:	e35e0000 	cmp	lr, #0
     890:	0a00005d 	beq	a0c <RDMHandler::GetSoftwareVersionLabel(unsigned short)+0x1a0>
     894:	e35e0020 	cmp	lr, #32
     898:	e24e601f 	sub	r6, lr, #31
     89c:	9a000063 	bls	a30 <RDMHandler::GetSoftwareVersionLabel(unsigned short)+0x1c4>
     8a0:	e30f5ffe 	movw	r5, #65534	; 0xfffe
     8a4:	e30fcfdf 	movw	ip, #65503	; 0xffdf
     8a8:	e34f5fff 	movt	r5, #65535	; 0xffff
     8ac:	e2843022 	add	r3, r4, #34	; 0x22
     8b0:	e34fcfff 	movt	ip, #65535	; 0xffff
     8b4:	e281203a 	add	r2, r1, #58	; 0x3a
     8b8:	e0455004 	sub	r5, r5, r4
     8bc:	e04cc004 	sub	ip, ip, r4
     8c0:	e5537022 	ldrb	r7, [r3, #-34]	; 0xffffffde
     8c4:	f5d3f000 	pld	[r3]
     8c8:	e5427022 	strb	r7, [r2, #-34]	; 0xffffffde
     8cc:	e5537021 	ldrb	r7, [r3, #-33]	; 0xffffffdf
     8d0:	f5d2f000 	pld	[r2]
     8d4:	e2822020 	add	r2, r2, #32
     8d8:	e5427041 	strb	r7, [r2, #-65]	; 0xffffffbf
     8dc:	e5537020 	ldrb	r7, [r3, #-32]	; 0xffffffe0
     8e0:	e5427040 	strb	r7, [r2, #-64]	; 0xffffffc0
     8e4:	e553701f 	ldrb	r7, [r3, #-31]	; 0xffffffe1
     8e8:	e542703f 	strb	r7, [r2, #-63]	; 0xffffffc1
     8ec:	e553701e 	ldrb	r7, [r3, #-30]	; 0xffffffe2
     8f0:	e542703e 	strb	r7, [r2, #-62]	; 0xffffffc2
     8f4:	e553701d 	ldrb	r7, [r3, #-29]	; 0xffffffe3
     8f8:	e542703d 	strb	r7, [r2, #-61]	; 0xffffffc3
     8fc:	e553701c 	ldrb	r7, [r3, #-28]	; 0xffffffe4
     900:	e542703c 	strb	r7, [r2, #-60]	; 0xffffffc4
     904:	e553701b 	ldrb	r7, [r3, #-27]	; 0xffffffe5
     908:	e542703b 	strb	r7, [r2, #-59]	; 0xffffffc5
     90c:	e553701a 	ldrb	r7, [r3, #-26]	; 0xffffffe6
     910:	e542703a 	strb	r7, [r2, #-58]	; 0xffffffc6
     914:	e5537019 	ldrb	r7, [r3, #-25]	; 0xffffffe7
     918:	e5427039 	strb	r7, [r2, #-57]	; 0xffffffc7
     91c:	e5537018 	ldrb	r7, [r3, #-24]	; 0xffffffe8
     920:	e5427038 	strb	r7, [r2, #-56]	; 0xffffffc8
     924:	e5537017 	ldrb	r7, [r3, #-23]	; 0xffffffe9
     928:	e5427037 	strb	r7, [r2, #-55]	; 0xffffffc9
     92c:	e5537016 	ldrb	r7, [r3, #-22]	; 0xffffffea
     930:	e5427036 	strb	r7, [r2, #-54]	; 0xffffffca
     934:	e5537015 	ldrb	r7, [r3, #-21]	; 0xffffffeb
     938:	e5427035 	strb	r7, [r2, #-53]	; 0xffffffcb
     93c:	e5537014 	ldrb	r7, [r3, #-20]	; 0xffffffec
     940:	e5427034 	strb	r7, [r2, #-52]	; 0xffffffcc
     944:	e5537013 	ldrb	r7, [r3, #-19]	; 0xffffffed
     948:	e5427033 	strb	r7, [r2, #-51]	; 0xffffffcd
     94c:	e5537012 	ldrb	r7, [r3, #-18]	; 0xffffffee
     950:	e5427032 	strb	r7, [r2, #-50]	; 0xffffffce
     954:	e5537011 	ldrb	r7, [r3, #-17]	; 0xffffffef
     958:	e5427031 	strb	r7, [r2, #-49]	; 0xffffffcf
     95c:	e5537010 	ldrb	r7, [r3, #-16]
     960:	e5427030 	strb	r7, [r2, #-48]	; 0xffffffd0
     964:	e553700f 	ldrb	r7, [r3, #-15]
     968:	e542702f 	strb	r7, [r2, #-47]	; 0xffffffd1
     96c:	e553700e 	ldrb	r7, [r3, #-14]
     970:	e542702e 	strb	r7, [r2, #-46]	; 0xffffffd2
     974:	e553700d 	ldrb	r7, [r3, #-13]
     978:	e542702d 	strb	r7, [r2, #-45]	; 0xffffffd3
     97c:	e553700c 	ldrb	r7, [r3, #-12]
     980:	e542702c 	strb	r7, [r2, #-44]	; 0xffffffd4
     984:	e553700b 	ldrb	r7, [r3, #-11]
     988:	e542702b 	strb	r7, [r2, #-43]	; 0xffffffd5
     98c:	e553700a 	ldrb	r7, [r3, #-10]
     990:	e542702a 	strb	r7, [r2, #-42]	; 0xffffffd6
     994:	e5537009 	ldrb	r7, [r3, #-9]
     998:	e5427029 	strb	r7, [r2, #-41]	; 0xffffffd7
     99c:	e5537008 	ldrb	r7, [r3, #-8]
     9a0:	e5427028 	strb	r7, [r2, #-40]	; 0xffffffd8
     9a4:	e5537007 	ldrb	r7, [r3, #-7]
     9a8:	e5427027 	strb	r7, [r2, #-39]	; 0xffffffd9
     9ac:	e5537006 	ldrb	r7, [r3, #-6]
     9b0:	e5427026 	strb	r7, [r2, #-38]	; 0xffffffda
     9b4:	e5537005 	ldrb	r7, [r3, #-5]
     9b8:	e5427025 	strb	r7, [r2, #-37]	; 0xffffffdb
     9bc:	e5537004 	ldrb	r7, [r3, #-4]
     9c0:	e5427024 	strb	r7, [r2, #-36]	; 0xffffffdc
     9c4:	e5538003 	ldrb	r8, [r3, #-3]
     9c8:	e0857003 	add	r7, r5, r3
     9cc:	e2833020 	add	r3, r3, #32
     9d0:	e5428023 	strb	r8, [r2, #-35]	; 0xffffffdd
     9d4:	e08c8003 	add	r8, ip, r3
     9d8:	e1560008 	cmp	r6, r8
     9dc:	8affffb7 	bhi	8c0 <RDMHandler::GetSoftwareVersionLabel(unsigned short)+0x54>
     9e0:	e2472001 	sub	r2, r7, #1
     9e4:	e2877018 	add	r7, r7, #24
     9e8:	e0811007 	add	r1, r1, r7
     9ec:	e0842002 	add	r2, r4, r2
     9f0:	e1a03002 	mov	r3, r2
     9f4:	e5f2c001 	ldrb	ip, [r2, #1]!
     9f8:	e2833002 	add	r3, r3, #2
     9fc:	e0433004 	sub	r3, r3, r4
     a00:	e15e0003 	cmp	lr, r3
     a04:	e4c1c001 	strb	ip, [r1], #1
     a08:	8afffff8 	bhi	9f0 <RDMHandler::GetSoftwareVersionLabel(unsigned short)+0x184>
     a0c:	e5903004 	ldr	r3, [r0, #4]
     a10:	e5d32016 	ldrb	r2, [r3, #22]
     a14:	e3520000 	cmp	r2, #0
     a18:	03a02018 	moveq	r2, #24
     a1c:	05c32001 	strbeq	r2, [r3, #1]
     a20:	e3a02000 	mov	r2, #0
     a24:	e8bd41f0 	pop	{r4, r5, r6, r7, r8, lr}
     a28:	e1a01002 	mov	r1, r2
     a2c:	eafffffe 	b	1ac <RDMHandler::CreateRespondMessage(unsigned char, unsigned short)>
     a30:	e3a07000 	mov	r7, #0
     a34:	eaffffe9 	b	9e0 <RDMHandler::GetSoftwareVersionLabel(unsigned short)+0x174>

00000a38 <RDMHandler::GetDmxStartAddress(unsigned short)>:
     a38:	e3003000 	movw	r3, #0
     a3c:	e3510000 	cmp	r1, #0
     a40:	e3403000 	movt	r3, #0
     a44:	e92d4010 	push	{r4, lr}
     a48:	e1a04000 	mov	r4, r0
     a4c:	e5932000 	ldr	r2, [r3]
     a50:	1a000013 	bne	aa4 <RDMHandler::GetDmxStartAddress(unsigned short)+0x6c>
     a54:	e5d200ab 	ldrb	r0, [r2, #171]	; 0xab
     a58:	e5d230ac 	ldrb	r3, [r2, #172]	; 0xac
     a5c:	e0833400 	add	r3, r3, r0, lsl #8
     a60:	e6ff3073 	uxth	r3, r3
     a64:	e5942008 	ldr	r2, [r4, #8]
     a68:	e3a00002 	mov	r0, #2
     a6c:	e1a01423 	lsr	r1, r3, #8
     a70:	e5c20017 	strb	r0, [r2, #23]
     a74:	e1a00004 	mov	r0, r4
     a78:	e5c21018 	strb	r1, [r2, #24]
     a7c:	e5c23019 	strb	r3, [r2, #25]
     a80:	e5943004 	ldr	r3, [r4, #4]
     a84:	e5d32016 	ldrb	r2, [r3, #22]
     a88:	e3520000 	cmp	r2, #0
     a8c:	03a02018 	moveq	r2, #24
     a90:	05c32001 	strbeq	r2, [r3, #1]
     a94:	e3a02000 	mov	r2, #0
     a98:	e8bd4010 	pop	{r4, lr}
     a9c:	e1a01002 	mov	r1, r2
     aa0:	eafffffe 	b	1ac <RDMHandler::CreateRespondMessage(unsigned char, unsigned short)>
     aa4:	e282008c 	add	r0, r2, #140	; 0x8c
     aa8:	ebfffffe 	bl	0 <RDMSubDevices::GetDmxStartAddress(unsigned short)>
     aac:	e1a03000 	mov	r3, r0
     ab0:	eaffffeb 	b	a64 <RDMHandler::GetDmxStartAddress(unsigned short)+0x2c>

00000ab4 <RDMHandler::GetDeviceModelDescription(unsigned short)>:
     ab4:	e3003000 	movw	r3, #0
     ab8:	e3403000 	movt	r3, #0
     abc:	e92d41f0 	push	{r4, r5, r6, r7, r8, lr}
     ac0:	e24dd008 	sub	sp, sp, #8
     ac4:	e1a04000 	mov	r4, r0
     ac8:	e28d1007 	add	r1, sp, #7
     acc:	e5930000 	ldr	r0, [r3]
     ad0:	ebfffffe 	bl	0 <Hardware::GetBoardName(unsigned char&)>
     ad4:	e5dde007 	ldrb	lr, [sp, #7]
     ad8:	e5941008 	ldr	r1, [r4, #8]
     adc:	e35e0000 	cmp	lr, #0
     ae0:	e5c1e017 	strb	lr, [r1, #23]
     ae4:	0a00005d 	beq	c60 <RDMHandler::GetDeviceModelDescription(unsigned short)+0x1ac>
     ae8:	e35e0020 	cmp	lr, #32
     aec:	e24e601f 	sub	r6, lr, #31
     af0:	9a000065 	bls	c8c <RDMHandler::GetDeviceModelDescription(unsigned short)+0x1d8>
     af4:	e30f5ffe 	movw	r5, #65534	; 0xfffe
     af8:	e30fcfdf 	movw	ip, #65503	; 0xffdf
     afc:	e34f5fff 	movt	r5, #65535	; 0xffff
     b00:	e2803022 	add	r3, r0, #34	; 0x22
     b04:	e34fcfff 	movt	ip, #65535	; 0xffff
     b08:	e281203a 	add	r2, r1, #58	; 0x3a
     b0c:	e0455000 	sub	r5, r5, r0
     b10:	e04cc000 	sub	ip, ip, r0
     b14:	e5537022 	ldrb	r7, [r3, #-34]	; 0xffffffde
     b18:	f5d3f000 	pld	[r3]
     b1c:	e5427022 	strb	r7, [r2, #-34]	; 0xffffffde
     b20:	e5537021 	ldrb	r7, [r3, #-33]	; 0xffffffdf
     b24:	f5d2f000 	pld	[r2]
     b28:	e2822020 	add	r2, r2, #32
     b2c:	e5427041 	strb	r7, [r2, #-65]	; 0xffffffbf
     b30:	e5537020 	ldrb	r7, [r3, #-32]	; 0xffffffe0
     b34:	e5427040 	strb	r7, [r2, #-64]	; 0xffffffc0
     b38:	e553701f 	ldrb	r7, [r3, #-31]	; 0xffffffe1
     b3c:	e542703f 	strb	r7, [r2, #-63]	; 0xffffffc1
     b40:	e553701e 	ldrb	r7, [r3, #-30]	; 0xffffffe2
     b44:	e542703e 	strb	r7, [r2, #-62]	; 0xffffffc2
     b48:	e553701d 	ldrb	r7, [r3, #-29]	; 0xffffffe3
     b4c:	e542703d 	strb	r7, [r2, #-61]	; 0xffffffc3
     b50:	e553701c 	ldrb	r7, [r3, #-28]	; 0xffffffe4
     b54:	e542703c 	strb	r7, [r2, #-60]	; 0xffffffc4
     b58:	e553701b 	ldrb	r7, [r3, #-27]	; 0xffffffe5
     b5c:	e542703b 	strb	r7, [r2, #-59]	; 0xffffffc5
     b60:	e553701a 	ldrb	r7, [r3, #-26]	; 0xffffffe6
     b64:	e542703a 	strb	r7, [r2, #-58]	; 0xffffffc6
     b68:	e5537019 	ldrb	r7, [r3, #-25]	; 0xffffffe7
     b6c:	e5427039 	strb	r7, [r2, #-57]	; 0xffffffc7
     b70:	e5537018 	ldrb	r7, [r3, #-24]	; 0xffffffe8
     b74:	e5427038 	strb	r7, [r2, #-56]	; 0xffffffc8
     b78:	e5537017 	ldrb	r7, [r3, #-23]	; 0xffffffe9
     b7c:	e5427037 	strb	r7, [r2, #-55]	; 0xffffffc9
     b80:	e5537016 	ldrb	r7, [r3, #-22]	; 0xffffffea
     b84:	e5427036 	strb	r7, [r2, #-54]	; 0xffffffca
     b88:	e5537015 	ldrb	r7, [r3, #-21]	; 0xffffffeb
     b8c:	e5427035 	strb	r7, [r2, #-53]	; 0xffffffcb
     b90:	e5537014 	ldrb	r7, [r3, #-20]	; 0xffffffec
     b94:	e5427034 	strb	r7, [r2, #-52]	; 0xffffffcc
     b98:	e5537013 	ldrb	r7, [r3, #-19]	; 0xffffffed
     b9c:	e5427033 	strb	r7, [r2, #-51]	; 0xffffffcd
     ba0:	e5537012 	ldrb	r7, [r3, #-18]	; 0xffffffee
     ba4:	e5427032 	strb	r7, [r2, #-50]	; 0xffffffce
     ba8:	e5537011 	ldrb	r7, [r3, #-17]	; 0xffffffef
     bac:	e5427031 	strb	r7, [r2, #-49]	; 0xffffffcf
     bb0:	e5537010 	ldrb	r7, [r3, #-16]
     bb4:	e5427030 	strb	r7, [r2, #-48]	; 0xffffffd0
     bb8:	e553700f 	ldrb	r7, [r3, #-15]
     bbc:	e542702f 	strb	r7, [r2, #-47]	; 0xffffffd1
     bc0:	e553700e 	ldrb	r7, [r3, #-14]
     bc4:	e542702e 	strb	r7, [r2, #-46]	; 0xffffffd2
     bc8:	e553700d 	ldrb	r7, [r3, #-13]
     bcc:	e542702d 	strb	r7, [r2, #-45]	; 0xffffffd3
     bd0:	e553700c 	ldrb	r7, [r3, #-12]
     bd4:	e542702c 	strb	r7, [r2, #-44]	; 0xffffffd4
     bd8:	e553700b 	ldrb	r7, [r3, #-11]
     bdc:	e542702b 	strb	r7, [r2, #-43]	; 0xffffffd5
     be0:	e553700a 	ldrb	r7, [r3, #-10]
     be4:	e542702a 	strb	r7, [r2, #-42]	; 0xffffffd6
     be8:	e5537009 	ldrb	r7, [r3, #-9]
     bec:	e5427029 	strb	r7, [r2, #-41]	; 0xffffffd7
     bf0:	e5537008 	ldrb	r7, [r3, #-8]
     bf4:	e5427028 	strb	r7, [r2, #-40]	; 0xffffffd8
     bf8:	e5537007 	ldrb	r7, [r3, #-7]
     bfc:	e5427027 	strb	r7, [r2, #-39]	; 0xffffffd9
     c00:	e5537006 	ldrb	r7, [r3, #-6]
     c04:	e5427026 	strb	r7, [r2, #-38]	; 0xffffffda
     c08:	e5537005 	ldrb	r7, [r3, #-5]
     c0c:	e5427025 	strb	r7, [r2, #-37]	; 0xffffffdb
     c10:	e5537004 	ldrb	r7, [r3, #-4]
     c14:	e5427024 	strb	r7, [r2, #-36]	; 0xffffffdc
     c18:	e5538003 	ldrb	r8, [r3, #-3]
     c1c:	e0857003 	add	r7, r5, r3
     c20:	e2833020 	add	r3, r3, #32
     c24:	e5428023 	strb	r8, [r2, #-35]	; 0xffffffdd
     c28:	e08c8003 	add	r8, ip, r3
     c2c:	e1560008 	cmp	r6, r8
     c30:	8affffb7 	bhi	b14 <RDMHandler::GetDeviceModelDescription(unsigned short)+0x60>
     c34:	e2472001 	sub	r2, r7, #1
     c38:	e2877018 	add	r7, r7, #24
     c3c:	e0811007 	add	r1, r1, r7
     c40:	e0802002 	add	r2, r0, r2
     c44:	e1a03002 	mov	r3, r2
     c48:	e5f2c001 	ldrb	ip, [r2, #1]!
     c4c:	e2833002 	add	r3, r3, #2
     c50:	e0433000 	sub	r3, r3, r0
     c54:	e15e0003 	cmp	lr, r3
     c58:	e4c1c001 	strb	ip, [r1], #1
     c5c:	8afffff8 	bhi	c44 <RDMHandler::GetDeviceModelDescription(unsigned short)+0x190>
     c60:	e5943004 	ldr	r3, [r4, #4]
     c64:	e1a00004 	mov	r0, r4
     c68:	e5d32016 	ldrb	r2, [r3, #22]
     c6c:	e3520000 	cmp	r2, #0
     c70:	03a02018 	moveq	r2, #24
     c74:	05c32001 	strbeq	r2, [r3, #1]
     c78:	e3a02000 	mov	r2, #0
     c7c:	e1a01002 	mov	r1, r2
     c80:	ebfffffe 	bl	1ac <RDMHandler::CreateRespondMessage(unsigned char, unsigned short)>
     c84:	e28dd008 	add	sp, sp, #8
     c88:	e8bd81f0 	pop	{r4, r5, r6, r7, r8, pc}
     c8c:	e3a07000 	mov	r7, #0
     c90:	eaffffe7 	b	c34 <RDMHandler::GetDeviceModelDescription(unsigned short)+0x180>

00000c94 <RDMHandler::GetBootSoftwareVersionLabel(unsigned short)>:
     c94:	e3003000 	movw	r3, #0
     c98:	e3403000 	movt	r3, #0
     c9c:	e92d4010 	push	{r4, lr}
     ca0:	e24dd008 	sub	sp, sp, #8
     ca4:	e1a04000 	mov	r4, r0
     ca8:	e28d1007 	add	r1, sp, #7
     cac:	e5930000 	ldr	r0, [r3]
     cb0:	ebfffffe 	bl	0 <Hardware::GetSysName(unsigned char&)>
     cb4:	e5dd3007 	ldrb	r3, [sp, #7]
     cb8:	e5941008 	ldr	r1, [r4, #8]
     cbc:	e3530020 	cmp	r3, #32
     cc0:	31a0e003 	movcc	lr, r3
     cc4:	23a0e020 	movcs	lr, #32
     cc8:	e5c1e017 	strb	lr, [r1, #23]
     ccc:	e3530000 	cmp	r3, #0
     cd0:	0a000008 	beq	cf8 <RDMHandler::GetBootSoftwareVersionLabel(unsigned short)+0x64>
     cd4:	e2402001 	sub	r2, r0, #1
     cd8:	e2811018 	add	r1, r1, #24
     cdc:	e1a03002 	mov	r3, r2
     ce0:	e5f2c001 	ldrb	ip, [r2, #1]!
     ce4:	e2833002 	add	r3, r3, #2
     ce8:	e0433000 	sub	r3, r3, r0
     cec:	e15e0003 	cmp	lr, r3
     cf0:	e4c1c001 	strb	ip, [r1], #1
     cf4:	8afffff8 	bhi	cdc <RDMHandler::GetBootSoftwareVersionLabel(unsigned short)+0x48>
     cf8:	e5943004 	ldr	r3, [r4, #4]
     cfc:	e1a00004 	mov	r0, r4
     d00:	e5d32016 	ldrb	r2, [r3, #22]
     d04:	e3520000 	cmp	r2, #0
     d08:	03a02018 	moveq	r2, #24
     d0c:	05c32001 	strbeq	r2, [r3, #1]
     d10:	e3a02000 	mov	r2, #0
     d14:	e1a01002 	mov	r1, r2
     d18:	ebfffffe 	bl	1ac <RDMHandler::CreateRespondMessage(unsigned char, unsigned short)>
     d1c:	e28dd008 	add	sp, sp, #8
     d20:	e8bd8010 	pop	{r4, pc}

00000d24 <RDMHandler::GetPersonality(unsigned short)>:
     d24:	e92d4070 	push	{r4, r5, r6, lr}
     d28:	e3006000 	movw	r6, #0
     d2c:	e3406000 	movt	r6, #0
     d30:	e2515000 	subs	r5, r1, #0
     d34:	e1a04000 	mov	r4, r0
     d38:	e5963000 	ldr	r3, [r6]
     d3c:	1a000010 	bne	d84 <RDMHandler::GetPersonality(unsigned short)+0x60>
     d40:	e5d350a9 	ldrb	r5, [r3, #169]	; 0xa9
     d44:	e5d300aa 	ldrb	r0, [r3, #170]	; 0xaa
     d48:	e5943008 	ldr	r3, [r4, #8]
     d4c:	e3a02002 	mov	r2, #2
     d50:	e5c32017 	strb	r2, [r3, #23]
     d54:	e5c30019 	strb	r0, [r3, #25]
     d58:	e1a00004 	mov	r0, r4
     d5c:	e5c35018 	strb	r5, [r3, #24]
     d60:	e5943004 	ldr	r3, [r4, #4]
     d64:	e5d32016 	ldrb	r2, [r3, #22]
     d68:	e3520000 	cmp	r2, #0
     d6c:	03a02018 	moveq	r2, #24
     d70:	05c32001 	strbeq	r2, [r3, #1]
     d74:	e3a02000 	mov	r2, #0
     d78:	e8bd4070 	pop	{r4, r5, r6, lr}
     d7c:	e1a01002 	mov	r1, r2
     d80:	eafffffe 	b	1ac <RDMHandler::CreateRespondMessage(unsigned char, unsigned short)>
     d84:	e283008c 	add	r0, r3, #140	; 0x8c
     d88:	ebfffffe 	bl	0 <RDMSubDevices::GetPersonalityCurrent(unsigned short)>
     d8c:	e5963000 	ldr	r3, [r6]
     d90:	e1a01005 	mov	r1, r5
     d94:	e1a05000 	mov	r5, r0
     d98:	e283008c 	add	r0, r3, #140	; 0x8c
     d9c:	ebfffffe 	bl	0 <RDMSubDevices::GetPersonalityCount(unsigned short)>
     da0:	eaffffe8 	b	d48 <RDMHandler::GetPersonality(unsigned short)+0x24>

00000da4 <RDMHandler::GetDeviceLabel(unsigned short)>:
     da4:	e3003000 	movw	r3, #0
     da8:	e3510000 	cmp	r1, #0
     dac:	e3403000 	movt	r3, #0
     db0:	e92d41f0 	push	{r4, r5, r6, r7, r8, lr}
     db4:	e1a04000 	mov	r4, r0
     db8:	e5933000 	ldr	r3, [r3]
     dbc:	e24dd008 	sub	sp, sp, #8
     dc0:	1a000070 	bne	f88 <RDMHandler::GetDeviceLabel(unsigned short)+0x1e4>
     dc4:	e5d3e02f 	ldrb	lr, [r3, #47]	; 0x2f
     dc8:	e283000f 	add	r0, r3, #15
     dcc:	e58d0000 	str	r0, [sp]
     dd0:	e5cde004 	strb	lr, [sp, #4]
     dd4:	e5941008 	ldr	r1, [r4, #8]
     dd8:	e35e0000 	cmp	lr, #0
     ddc:	e5c1e017 	strb	lr, [r1, #23]
     de0:	0a00005d 	beq	f5c <RDMHandler::GetDeviceLabel(unsigned short)+0x1b8>
     de4:	e35e0020 	cmp	lr, #32
     de8:	e24e601f 	sub	r6, lr, #31
     dec:	9a00006b 	bls	fa0 <RDMHandler::GetDeviceLabel(unsigned short)+0x1fc>
     df0:	e30f5ffe 	movw	r5, #65534	; 0xfffe
     df4:	e30fcfdf 	movw	ip, #65503	; 0xffdf
     df8:	e34f5fff 	movt	r5, #65535	; 0xffff
     dfc:	e2803022 	add	r3, r0, #34	; 0x22
     e00:	e34fcfff 	movt	ip, #65535	; 0xffff
     e04:	e281203a 	add	r2, r1, #58	; 0x3a
     e08:	e0455000 	sub	r5, r5, r0
     e0c:	e04cc000 	sub	ip, ip, r0
     e10:	e5537022 	ldrb	r7, [r3, #-34]	; 0xffffffde
     e14:	f5d3f000 	pld	[r3]
     e18:	e5427022 	strb	r7, [r2, #-34]	; 0xffffffde
     e1c:	e5537021 	ldrb	r7, [r3, #-33]	; 0xffffffdf
     e20:	f5d2f000 	pld	[r2]
     e24:	e2822020 	add	r2, r2, #32
     e28:	e5427041 	strb	r7, [r2, #-65]	; 0xffffffbf
     e2c:	e5537020 	ldrb	r7, [r3, #-32]	; 0xffffffe0
     e30:	e5427040 	strb	r7, [r2, #-64]	; 0xffffffc0
     e34:	e553701f 	ldrb	r7, [r3, #-31]	; 0xffffffe1
     e38:	e542703f 	strb	r7, [r2, #-63]	; 0xffffffc1
     e3c:	e553701e 	ldrb	r7, [r3, #-30]	; 0xffffffe2
     e40:	e542703e 	strb	r7, [r2, #-62]	; 0xffffffc2
     e44:	e553701d 	ldrb	r7, [r3, #-29]	; 0xffffffe3
     e48:	e542703d 	strb	r7, [r2, #-61]	; 0xffffffc3
     e4c:	e553701c 	ldrb	r7, [r3, #-28]	; 0xffffffe4
     e50:	e542703c 	strb	r7, [r2, #-60]	; 0xffffffc4
     e54:	e553701b 	ldrb	r7, [r3, #-27]	; 0xffffffe5
     e58:	e542703b 	strb	r7, [r2, #-59]	; 0xffffffc5
     e5c:	e553701a 	ldrb	r7, [r3, #-26]	; 0xffffffe6
     e60:	e542703a 	strb	r7, [r2, #-58]	; 0xffffffc6
     e64:	e5537019 	ldrb	r7, [r3, #-25]	; 0xffffffe7
     e68:	e5427039 	strb	r7, [r2, #-57]	; 0xffffffc7
     e6c:	e5537018 	ldrb	r7, [r3, #-24]	; 0xffffffe8
     e70:	e5427038 	strb	r7, [r2, #-56]	; 0xffffffc8
     e74:	e5537017 	ldrb	r7, [r3, #-23]	; 0xffffffe9
     e78:	e5427037 	strb	r7, [r2, #-55]	; 0xffffffc9
     e7c:	e5537016 	ldrb	r7, [r3, #-22]	; 0xffffffea
     e80:	e5427036 	strb	r7, [r2, #-54]	; 0xffffffca
     e84:	e5537015 	ldrb	r7, [r3, #-21]	; 0xffffffeb
     e88:	e5427035 	strb	r7, [r2, #-53]	; 0xffffffcb
     e8c:	e5537014 	ldrb	r7, [r3, #-20]	; 0xffffffec
     e90:	e5427034 	strb	r7, [r2, #-52]	; 0xffffffcc
     e94:	e5537013 	ldrb	r7, [r3, #-19]	; 0xffffffed
     e98:	e5427033 	strb	r7, [r2, #-51]	; 0xffffffcd
     e9c:	e5537012 	ldrb	r7, [r3, #-18]	; 0xffffffee
     ea0:	e5427032 	strb	r7, [r2, #-50]	; 0xffffffce
     ea4:	e5537011 	ldrb	r7, [r3, #-17]	; 0xffffffef
     ea8:	e5427031 	strb	r7, [r2, #-49]	; 0xffffffcf
     eac:	e5537010 	ldrb	r7, [r3, #-16]
     eb0:	e5427030 	strb	r7, [r2, #-48]	; 0xffffffd0
     eb4:	e553700f 	ldrb	r7, [r3, #-15]
     eb8:	e542702f 	strb	r7, [r2, #-47]	; 0xffffffd1
     ebc:	e553700e 	ldrb	r7, [r3, #-14]
     ec0:	e542702e 	strb	r7, [r2, #-46]	; 0xffffffd2
     ec4:	e553700d 	ldrb	r7, [r3, #-13]
     ec8:	e542702d 	strb	r7, [r2, #-45]	; 0xffffffd3
     ecc:	e553700c 	ldrb	r7, [r3, #-12]
     ed0:	e542702c 	strb	r7, [r2, #-44]	; 0xffffffd4
     ed4:	e553700b 	ldrb	r7, [r3, #-11]
     ed8:	e542702b 	strb	r7, [r2, #-43]	; 0xffffffd5
     edc:	e553700a 	ldrb	r7, [r3, #-10]
     ee0:	e542702a 	strb	r7, [r2, #-42]	; 0xffffffd6
     ee4:	e5537009 	ldrb	r7, [r3, #-9]
     ee8:	e5427029 	strb	r7, [r2, #-41]	; 0xffffffd7
     eec:	e5537008 	ldrb	r7, [r3, #-8]
     ef0:	e5427028 	strb	r7, [r2, #-40]	; 0xffffffd8
     ef4:	e5537007 	ldrb	r7, [r3, #-7]
     ef8:	e5427027 	strb	r7, [r2, #-39]	; 0xffffffd9
     efc:	e5537006 	ldrb	r7, [r3, #-6]
     f00:	e5427026 	strb	r7, [r2, #-38]	; 0xffffffda
     f04:	e5537005 	ldrb	r7, [r3, #-5]
     f08:	e5427025 	strb	r7, [r2, #-37]	; 0xffffffdb
     f0c:	e5537004 	ldrb	r7, [r3, #-4]
     f10:	e5427024 	strb	r7, [r2, #-36]	; 0xffffffdc
     f14:	e5538003 	ldrb	r8, [r3, #-3]
     f18:	e0857003 	add	r7, r5, r3
     f1c:	e2833020 	add	r3, r3, #32
     f20:	e5428023 	strb	r8, [r2, #-35]	; 0xffffffdd
     f24:	e08c8003 	add	r8, ip, r3
     f28:	e1560008 	cmp	r6, r8
     f2c:	8affffb7 	bhi	e10 <RDMHandler::GetDeviceLabel(unsigned short)+0x6c>
     f30:	e2472001 	sub	r2, r7, #1
     f34:	e2877018 	add	r7, r7, #24
     f38:	e0811007 	add	r1, r1, r7
     f3c:	e0802002 	add	r2, r0, r2
     f40:	e1a03002 	mov	r3, r2
     f44:	e5f2c001 	ldrb	ip, [r2, #1]!
     f48:	e2833002 	add	r3, r3, #2
     f4c:	e0433000 	sub	r3, r3, r0
     f50:	e15e0003 	cmp	lr, r3
     f54:	e4c1c001 	strb	ip, [r1], #1
     f58:	8afffff8 	bhi	f40 <RDMHandler::GetDeviceLabel(unsigned short)+0x19c>
     f5c:	e5943004 	ldr	r3, [r4, #4]
     f60:	e1a00004 	mov	r0, r4
     f64:	e5d32016 	ldrb	r2, [r3, #22]
     f68:	e3520000 	cmp	r2, #0
     f6c:	03a02018 	moveq	r2, #24
     f70:	05c32001 	strbeq	r2, [r3, #1]
     f74:	e3a02000 	mov	r2, #0
     f78:	e1a01002 	mov	r1, r2
     f7c:	ebfffffe 	bl	1ac <RDMHandler::CreateRespondMessage(unsigned char, unsigned short)>
     f80:	e28dd008 	add	sp, sp, #8
     f84:	e8bd81f0 	pop	{r4, r5, r6, r7, r8, pc}
     f88:	e283008c 	add	r0, r3, #140	; 0x8c
     f8c:	e1a0200d 	mov	r2, sp
     f90:	ebfffffe 	bl	0 <RDMSubDevices::GetLabel(unsigned short, TRDMDeviceInfoData*)>
     f94:	e59d0000 	ldr	r0, [sp]
     f98:	e5dde004 	ldrb	lr, [sp, #4]
     f9c:	eaffff8c 	b	dd4 <RDMHandler::GetDeviceLabel(unsigned short)+0x30>
     fa0:	e3a07000 	mov	r7, #0
     fa4:	eaffffe1 	b	f30 <RDMHandler::GetDeviceLabel(unsigned short)+0x18c>

00000fa8 <RDMHandler::GetRealTimeClock(unsigned short)>:
     fa8:	e3003000 	movw	r3, #0
     fac:	e3403000 	movt	r3, #0
     fb0:	e92d4010 	push	{r4, lr}
     fb4:	e24dd028 	sub	sp, sp, #40	; 0x28
     fb8:	e1a04000 	mov	r4, r0
     fbc:	e28d1004 	add	r1, sp, #4
     fc0:	e5930000 	ldr	r0, [r3]
     fc4:	ebfffffe 	bl	0 <Hardware::GetTime(tm*)>
     fc8:	e59d3018 	ldr	r3, [sp, #24]
     fcc:	e5942008 	ldr	r2, [r4, #8]
     fd0:	e59d1014 	ldr	r1, [sp, #20]
     fd4:	e2833e76 	add	r3, r3, #1888	; 0x760
     fd8:	e59d0010 	ldr	r0, [sp, #16]
     fdc:	e283300c 	add	r3, r3, #12
     fe0:	e6ff3073 	uxth	r3, r3
     fe4:	e2811001 	add	r1, r1, #1
     fe8:	e5c23019 	strb	r3, [r2, #25]
     fec:	e1a03423 	lsr	r3, r3, #8
     ff0:	e5c2101a 	strb	r1, [r2, #26]
     ff4:	e5c23018 	strb	r3, [r2, #24]
     ff8:	e99d000a 	ldmib	sp, {r1, r3}
     ffc:	e5c2001b 	strb	r0, [r2, #27]
    1000:	e59d000c 	ldr	r0, [sp, #12]
    1004:	e5c2301d 	strb	r3, [r2, #29]
    1008:	e3a03007 	mov	r3, #7
    100c:	e5c2001c 	strb	r0, [r2, #28]
    1010:	e1a00004 	mov	r0, r4
    1014:	e5c2101e 	strb	r1, [r2, #30]
    1018:	e5c23017 	strb	r3, [r2, #23]
    101c:	e5943004 	ldr	r3, [r4, #4]
    1020:	e5d32016 	ldrb	r2, [r3, #22]
    1024:	e3520000 	cmp	r2, #0
    1028:	03a02018 	moveq	r2, #24
    102c:	05c32001 	strbeq	r2, [r3, #1]
    1030:	e3a02000 	mov	r2, #0
    1034:	e1a01002 	mov	r1, r2
    1038:	ebfffffe 	bl	1ac <RDMHandler::CreateRespondMessage(unsigned char, unsigned short)>
    103c:	e28dd028 	add	sp, sp, #40	; 0x28
    1040:	e8bd8010 	pop	{r4, pc}

00001044 <RDMHandler::GetSupportedParameters(unsigned short)>:
    1044:	e3003000 	movw	r3, #0
    1048:	e3510000 	cmp	r1, #0
    104c:	e3403000 	movt	r3, #0
    1050:	13a01008 	movne	r1, #8
    1054:	e28320c0 	add	r2, r3, #192	; 0xc0
    1058:	03a0101c 	moveq	r1, #28
    105c:	11a02003 	movne	r2, r3
    1060:	e3a0c018 	mov	ip, #24
    1064:	e2823015 	add	r3, r2, #21
    1068:	e022219c 	mla	r2, ip, r1, r2
    106c:	e3a01000 	mov	r1, #0
    1070:	e92d4070 	push	{r4, r5, r6, lr}
    1074:	e2822015 	add	r2, r2, #21
    1078:	e5906008 	ldr	r6, [r0, #8]
    107c:	e1a04001 	mov	r4, r1
    1080:	e5d3e000 	ldrb	lr, [r3]
    1084:	e2845001 	add	r5, r4, #1
    1088:	e086c081 	add	ip, r6, r1, lsl #1
    108c:	e35e0000 	cmp	lr, #0
    1090:	0a000006 	beq	10b0 <RDMHandler::GetSupportedParameters(unsigned short)+0x6c>
    1094:	e153e1b5 	ldrh	lr, [r3, #-21]	; 0xffffffeb
    1098:	e6ef4075 	uxtb	r4, r5
    109c:	e2811001 	add	r1, r1, #1
    10a0:	e1a0e42e 	lsr	lr, lr, #8
    10a4:	e5cce018 	strb	lr, [ip, #24]
    10a8:	e153e1b5 	ldrh	lr, [r3, #-21]	; 0xffffffeb
    10ac:	e5cce019 	strb	lr, [ip, #25]
    10b0:	e2833018 	add	r3, r3, #24
    10b4:	e1530002 	cmp	r3, r2
    10b8:	1afffff0 	bne	1080 <RDMHandler::GetSupportedParameters(unsigned short)+0x3c>
    10bc:	e1a04084 	lsl	r4, r4, #1
    10c0:	e5c64017 	strb	r4, [r6, #23]
    10c4:	e5903004 	ldr	r3, [r0, #4]
    10c8:	e5d32016 	ldrb	r2, [r3, #22]
    10cc:	e3520000 	cmp	r2, #0
    10d0:	03a02018 	moveq	r2, #24
    10d4:	05c32001 	strbeq	r2, [r3, #1]
    10d8:	e3a02000 	mov	r2, #0
    10dc:	e8bd4070 	pop	{r4, r5, r6, lr}
    10e0:	e1a01002 	mov	r1, r2
    10e4:	eafffffe 	b	1ac <RDMHandler::CreateRespondMessage(unsigned char, unsigned short)>

000010e8 <RDMHandler::GetFactoryDefaults(unsigned short)>:
    10e8:	e3003000 	movw	r3, #0
    10ec:	e3403000 	movt	r3, #0
    10f0:	e92d4070 	push	{r4, r5, r6, lr}
    10f4:	e1a04000 	mov	r4, r0
    10f8:	e5936000 	ldr	r6, [r3]
    10fc:	e3a03001 	mov	r3, #1
    1100:	e5905008 	ldr	r5, [r0, #8]
    1104:	e5c53017 	strb	r3, [r5, #23]
    1108:	e5d630c5 	ldrb	r3, [r6, #197]	; 0xc5
    110c:	e3530000 	cmp	r3, #0
    1110:	0a00000f 	beq	1154 <RDMHandler::GetFactoryDefaults(unsigned short)+0x6c>
    1114:	e5d6002f 	ldrb	r0, [r6, #47]	; 0x2f
    1118:	e1d6c7b8 	ldrh	ip, [r6, #120]	; 0x78
    111c:	e5d63076 	ldrb	r3, [r6, #118]	; 0x76
    1120:	e3500000 	cmp	r0, #0
    1124:	0a000006 	beq	1144 <RDMHandler::GetFactoryDefaults(unsigned short)+0x5c>
    1128:	e286200e 	add	r2, r6, #14
    112c:	e0820000 	add	r0, r2, r0
    1130:	e5f21001 	ldrb	r1, [r2, #1]!
    1134:	e1520000 	cmp	r2, r0
    1138:	e0833001 	add	r3, r3, r1
    113c:	e6ff3073 	uxth	r3, r3
    1140:	1afffffa 	bne	1130 <RDMHandler::GetFactoryDefaults(unsigned short)+0x48>
    1144:	e15c0003 	cmp	ip, r3
    1148:	0a00000c 	beq	1180 <RDMHandler::GetFactoryDefaults(unsigned short)+0x98>
    114c:	e3a03000 	mov	r3, #0
    1150:	e5c630c5 	strb	r3, [r6, #197]	; 0xc5
    1154:	e5c53018 	strb	r3, [r5, #24]
    1158:	e1a00004 	mov	r0, r4
    115c:	e5943004 	ldr	r3, [r4, #4]
    1160:	e5d32016 	ldrb	r2, [r3, #22]
    1164:	e3520000 	cmp	r2, #0
    1168:	03a02018 	moveq	r2, #24
    116c:	05c32001 	strbeq	r2, [r3, #1]
    1170:	e3a02000 	mov	r2, #0
    1174:	e8bd4070 	pop	{r4, r5, r6, lr}
    1178:	e1a01002 	mov	r1, r2
    117c:	eafffffe 	b	1ac <RDMHandler::CreateRespondMessage(unsigned char, unsigned short)>
    1180:	e5d620a9 	ldrb	r2, [r6, #169]	; 0xa9
    1184:	e5d630ac 	ldrb	r3, [r6, #172]	; 0xac
    1188:	e0833002 	add	r3, r3, r2
    118c:	e1d62cb6 	ldrh	r2, [r6, #198]	; 0xc6
    1190:	e1520003 	cmp	r2, r3
    1194:	1affffec 	bne	114c <RDMHandler::GetFactoryDefaults(unsigned short)+0x64>
    1198:	e286008c 	add	r0, r6, #140	; 0x8c
    119c:	ebfffffe 	bl	0 <RDMSubDevices::GetFactoryDefaults()>
    11a0:	e2503000 	subs	r3, r0, #0
    11a4:	05c630c5 	strbeq	r3, [r6, #197]	; 0xc5
    11a8:	15d630c5 	ldrbne	r3, [r6, #197]	; 0xc5
    11ac:	eaffffe8 	b	1154 <RDMHandler::GetFactoryDefaults(unsigned short)+0x6c>

000011b0 <RDMHandler::GetDeviceInfo(unsigned short)>:
    11b0:	e3003000 	movw	r3, #0
    11b4:	e3510000 	cmp	r1, #0
    11b8:	e3403000 	movt	r3, #0
    11bc:	e92d4070 	push	{r4, r5, r6, lr}
    11c0:	e1a05000 	mov	r5, r0
    11c4:	e5934000 	ldr	r4, [r3]
    11c8:	0284309d 	addeq	r3, r4, #157	; 0x9d
    11cc:	1a000011 	bne	1218 <RDMHandler::GetDeviceInfo(unsigned short)+0x68>
    11d0:	e5952008 	ldr	r2, [r5, #8]
    11d4:	e283c013 	add	ip, r3, #19
    11d8:	e3a01013 	mov	r1, #19
    11dc:	e5e21017 	strb	r1, [r2, #23]!
    11e0:	e4d31001 	ldrb	r1, [r3], #1
    11e4:	e153000c 	cmp	r3, ip
    11e8:	e5e21001 	strb	r1, [r2, #1]!
    11ec:	1afffffb 	bne	11e0 <RDMHandler::GetDeviceInfo(unsigned short)+0x30>
    11f0:	e5953004 	ldr	r3, [r5, #4]
    11f4:	e1a00005 	mov	r0, r5
    11f8:	e5d32016 	ldrb	r2, [r3, #22]
    11fc:	e3520000 	cmp	r2, #0
    1200:	03a02018 	moveq	r2, #24
    1204:	05c32001 	strbeq	r2, [r3, #1]
    1208:	e3a02000 	mov	r2, #0
    120c:	e8bd4070 	pop	{r4, r5, r6, lr}
    1210:	e1a01002 	mov	r1, r2
    1214:	eafffffe 	b	1ac <RDMHandler::CreateRespondMessage(unsigned char, unsigned short)>
    1218:	e284008c 	add	r0, r4, #140	; 0x8c
    121c:	ebfffffe 	bl	0 <RDMSubDevices::GetInfo(unsigned short)>
    1220:	e3500000 	cmp	r0, #0
    1224:	0a00000f 	beq	1268 <RDMHandler::GetDeviceInfo(unsigned short)+0xb8>
    1228:	e1d030b0 	ldrh	r3, [r0]
    122c:	e1a03423 	lsr	r3, r3, #8
    1230:	e5c430ba 	strb	r3, [r4, #186]	; 0xba
    1234:	e1d030b0 	ldrh	r3, [r0]
    1238:	e5c430bb 	strb	r3, [r4, #187]	; 0xbb
    123c:	e5d03004 	ldrb	r3, [r0, #4]
    1240:	e5c430bc 	strb	r3, [r4, #188]	; 0xbc
    1244:	e5d03005 	ldrb	r3, [r0, #5]
    1248:	e5c430bd 	strb	r3, [r4, #189]	; 0xbd
    124c:	e1d030b2 	ldrh	r3, [r0, #2]
    1250:	e1a03423 	lsr	r3, r3, #8
    1254:	e5c430be 	strb	r3, [r4, #190]	; 0xbe
    1258:	e1d030b2 	ldrh	r3, [r0, #2]
    125c:	e5c430bf 	strb	r3, [r4, #191]	; 0xbf
    1260:	e5d03027 	ldrb	r3, [r0, #39]	; 0x27
    1264:	e5c430c2 	strb	r3, [r4, #194]	; 0xc2
    1268:	e28430b0 	add	r3, r4, #176	; 0xb0
    126c:	eaffffd7 	b	11d0 <RDMHandler::GetDeviceInfo(unsigned short)+0x20>

00001270 <RDMHandler::GetBootSoftwareVersionId(unsigned short)>:
    1270:	e5903004 	ldr	r3, [r0, #4]
    1274:	e5d33016 	ldrb	r3, [r3, #22]
    1278:	e3530000 	cmp	r3, #0
    127c:	1a000016 	bne	12dc <RDMHandler::GetBootSoftwareVersionId(unsigned short)+0x6c>
    1280:	e92d4010 	push	{r4, lr}
    1284:	e1a04000 	mov	r4, r0
    1288:	ebfffffe 	bl	0 <bcm2835_vc_get_get_firmware_revision>
    128c:	e5943008 	ldr	r3, [r4, #8]
    1290:	e3a01004 	mov	r1, #4
    1294:	e1a02c20 	lsr	r2, r0, #24
    1298:	e5c3001b 	strb	r0, [r3, #27]
    129c:	e5c32018 	strb	r2, [r3, #24]
    12a0:	e1a02820 	lsr	r2, r0, #16
    12a4:	e1a00420 	lsr	r0, r0, #8
    12a8:	e5c31017 	strb	r1, [r3, #23]
    12ac:	e5c32019 	strb	r2, [r3, #25]
    12b0:	e5c3001a 	strb	r0, [r3, #26]
    12b4:	e1a00004 	mov	r0, r4
    12b8:	e5943004 	ldr	r3, [r4, #4]
    12bc:	e5d32016 	ldrb	r2, [r3, #22]
    12c0:	e3520000 	cmp	r2, #0
    12c4:	03a02018 	moveq	r2, #24
    12c8:	05c32001 	strbeq	r2, [r3, #1]
    12cc:	e3a02000 	mov	r2, #0
    12d0:	e8bd4010 	pop	{r4, lr}
    12d4:	e1a01002 	mov	r1, r2
    12d8:	eafffffe 	b	1ac <RDMHandler::CreateRespondMessage(unsigned char, unsigned short)>
    12dc:	e3a02001 	mov	r2, #1
    12e0:	e3a01002 	mov	r1, #2
    12e4:	eafffffe 	b	1ac <RDMHandler::CreateRespondMessage(unsigned char, unsigned short)>

000012e8 <RDMHandler::SetDisplayInvert(bool, unsigned short)>:
    12e8:	e5903004 	ldr	r3, [r0, #4]
    12ec:	e5d32016 	ldrb	r2, [r3, #22]
    12f0:	e3520001 	cmp	r2, #1
    12f4:	1a000021 	bne	1380 <RDMHandler::SetDisplayInvert(bool, unsigned short)+0x98>
    12f8:	e92d4070 	push	{r4, r5, r6, lr}
    12fc:	e1a04000 	mov	r4, r0
    1300:	e5d35017 	ldrb	r5, [r3, #23]
    1304:	e3550002 	cmp	r5, #2
    1308:	0a000021 	beq	1394 <RDMHandler::SetDisplayInvert(bool, unsigned short)+0xac>
    130c:	e3003000 	movw	r3, #0
    1310:	e2451001 	sub	r1, r5, #1
    1314:	e3403000 	movt	r3, #0
    1318:	e16f1f11 	clz	r1, r1
    131c:	e5933000 	ldr	r3, [r3]
    1320:	e1a012a1 	lsr	r1, r1, #5
    1324:	e593001c 	ldr	r0, [r3, #28]
    1328:	e5c31019 	strb	r1, [r3, #25]
    132c:	e3500000 	cmp	r0, #0
    1330:	0a000005 	beq	134c <RDMHandler::SetDisplayInvert(bool, unsigned short)+0x64>
    1334:	e5902000 	ldr	r2, [r0]
    1338:	e3003000 	movw	r3, #0
    133c:	e3403000 	movt	r3, #0
    1340:	e5922030 	ldr	r2, [r2, #48]	; 0x30
    1344:	e1520003 	cmp	r2, r3
    1348:	1a00000f 	bne	138c <RDMHandler::SetDisplayInvert(bool, unsigned short)+0xa4>
    134c:	e5943008 	ldr	r3, [r4, #8]
    1350:	e3a02000 	mov	r2, #0
    1354:	e1a00004 	mov	r0, r4
    1358:	e5c32017 	strb	r2, [r3, #23]
    135c:	e5943004 	ldr	r3, [r4, #4]
    1360:	e5d32016 	ldrb	r2, [r3, #22]
    1364:	e3520000 	cmp	r2, #0
    1368:	03a02018 	moveq	r2, #24
    136c:	05c32001 	strbeq	r2, [r3, #1]
    1370:	e3a02000 	mov	r2, #0
    1374:	e8bd4070 	pop	{r4, r5, r6, lr}
    1378:	e1a01002 	mov	r1, r2
    137c:	eafffffe 	b	1ac <RDMHandler::CreateRespondMessage(unsigned char, unsigned short)>
    1380:	e3a02001 	mov	r2, #1
    1384:	e3a01002 	mov	r1, #2
    1388:	eafffffe 	b	1ac <RDMHandler::CreateRespondMessage(unsigned char, unsigned short)>
    138c:	e12fff32 	blx	r2
    1390:	eaffffed 	b	134c <RDMHandler::SetDisplayInvert(bool, unsigned short)+0x64>
    1394:	e3a02006 	mov	r2, #6
    1398:	e1a01005 	mov	r1, r5
    139c:	ebfffffe 	bl	1ac <RDMHandler::CreateRespondMessage(unsigned char, unsigned short)>
    13a0:	eaffffd9 	b	130c <RDMHandler::SetDisplayInvert(bool, unsigned short)+0x24>

000013a4 <RDMHandler::GetSlotInfo(unsigned short)>:
    13a4:	e92d47f0 	push	{r4, r5, r6, r7, r8, r9, sl, lr}
    13a8:	e300a000 	movw	sl, #0
    13ac:	e340a000 	movt	sl, #0
    13b0:	e2519000 	subs	r9, r1, #0
    13b4:	e5908008 	ldr	r8, [r0, #8]
    13b8:	e1a07000 	mov	r7, r0
    13bc:	e59a0000 	ldr	r0, [sl]
    13c0:	e24dd008 	sub	sp, sp, #8
    13c4:	1a000036 	bne	14a4 <RDMHandler::GetSlotInfo(unsigned short)+0x100>
    13c8:	e5d060a7 	ldrb	r6, [r0, #167]	; 0xa7
    13cc:	e5d000a8 	ldrb	r0, [r0, #168]	; 0xa8
    13d0:	e0800406 	add	r0, r0, r6, lsl #8
    13d4:	e6ff0070 	uxth	r0, r0
    13d8:	e350002e 	cmp	r0, #46	; 0x2e
    13dc:	e3a04000 	mov	r4, #0
    13e0:	31a06000 	movcc	r6, r0
    13e4:	23a0602e 	movcs	r6, #46	; 0x2e
    13e8:	e1a05004 	mov	r5, r4
    13ec:	ea000019 	b	1458 <RDMHandler::GetSlotInfo(unsigned short)+0xb4>
    13f0:	e3590000 	cmp	r9, #0
    13f4:	1a000016 	bne	1454 <RDMHandler::GetSlotInfo(unsigned short)+0xb0>
    13f8:	e59a0000 	ldr	r0, [sl]
    13fc:	e5d030a9 	ldrb	r3, [r0, #169]	; 0xa9
    1400:	e5900094 	ldr	r0, [r0, #148]	; 0x94
    1404:	e2433107 	sub	r3, r3, #-1073741823	; 0xc0000001
    1408:	e7903103 	ldr	r3, [r0, r3, lsl #2]
    140c:	e5930004 	ldr	r0, [r3, #4]
    1410:	e5903000 	ldr	r3, [r0]
    1414:	e5933034 	ldr	r3, [r3, #52]	; 0x34
    1418:	e12fff33 	blx	r3
    141c:	e0882005 	add	r2, r8, r5
    1420:	e3500000 	cmp	r0, #0
    1424:	e2853004 	add	r3, r5, #4
    1428:	e0883003 	add	r3, r8, r3
    142c:	0a000008 	beq	1454 <RDMHandler::GetSlotInfo(unsigned short)+0xb0>
    1430:	e1dd10b4 	ldrh	r1, [sp, #4]
    1434:	e2855005 	add	r5, r5, #5
    1438:	e5ddc006 	ldrb	ip, [sp, #6]
    143c:	e1a00421 	lsr	r0, r1, #8
    1440:	e5c24019 	strb	r4, [r2, #25]
    1444:	e5c29018 	strb	r9, [r2, #24]
    1448:	e5c2c01a 	strb	ip, [r2, #26]
    144c:	e5c2001b 	strb	r0, [r2, #27]
    1450:	e5c31018 	strb	r1, [r3, #24]
    1454:	e2844001 	add	r4, r4, #1
    1458:	e1540006 	cmp	r4, r6
    145c:	e6ff1074 	uxth	r1, r4
    1460:	e28d2004 	add	r2, sp, #4
    1464:	1affffe1 	bne	13f0 <RDMHandler::GetSlotInfo(unsigned short)+0x4c>
    1468:	e6ef5075 	uxtb	r5, r5
    146c:	e1a00007 	mov	r0, r7
    1470:	e5c85017 	strb	r5, [r8, #23]
    1474:	e2855018 	add	r5, r5, #24
    1478:	e5c85002 	strb	r5, [r8, #2]
    147c:	e5973004 	ldr	r3, [r7, #4]
    1480:	e5d32016 	ldrb	r2, [r3, #22]
    1484:	e3520000 	cmp	r2, #0
    1488:	03a02018 	moveq	r2, #24
    148c:	05c32001 	strbeq	r2, [r3, #1]
    1490:	e3a02000 	mov	r2, #0
    1494:	e1a01002 	mov	r1, r2
    1498:	ebfffffe 	bl	1ac <RDMHandler::CreateRespondMessage(unsigned char, unsigned short)>
    149c:	e28dd008 	add	sp, sp, #8
    14a0:	e8bd87f0 	pop	{r4, r5, r6, r7, r8, r9, sl, pc}
    14a4:	e280008c 	add	r0, r0, #140	; 0x8c
    14a8:	ebfffffe 	bl	0 <RDMSubDevices::GetDmxFootPrint(unsigned short)>
    14ac:	eaffffc9 	b	13d8 <RDMHandler::GetSlotInfo(unsigned short)+0x34>

000014b0 <RDMHandler::SetDisplayLevel(bool, unsigned short)>:
    14b0:	e5903004 	ldr	r3, [r0, #4]
    14b4:	e5d31016 	ldrb	r1, [r3, #22]
    14b8:	e3510001 	cmp	r1, #1
    14bc:	1a000037 	bne	15a0 <RDMHandler::SetDisplayLevel(bool, unsigned short)+0xf0>
    14c0:	e92d41f0 	push	{r4, r5, r6, r7, r8, lr}
    14c4:	e3005000 	movw	r5, #0
    14c8:	e5d37017 	ldrb	r7, [r3, #23]
    14cc:	e1a04000 	mov	r4, r0
    14d0:	e3405000 	movt	r5, #0
    14d4:	e3570000 	cmp	r7, #0
    14d8:	e5956000 	ldr	r6, [r5]
    14dc:	e596001c 	ldr	r0, [r6, #28]
    14e0:	0a000011 	beq	152c <RDMHandler::SetDisplayLevel(bool, unsigned short)+0x7c>
    14e4:	e3500000 	cmp	r0, #0
    14e8:	0a00002f 	beq	15ac <RDMHandler::SetDisplayLevel(bool, unsigned short)+0xfc>
    14ec:	e5903000 	ldr	r3, [r0]
    14f0:	e3a01000 	mov	r1, #0
    14f4:	e5932028 	ldr	r2, [r3, #40]	; 0x28
    14f8:	e3003000 	movw	r3, #0
    14fc:	e3403000 	movt	r3, #0
    1500:	e1520003 	cmp	r2, r3
    1504:	e5c61010 	strb	r1, [r6, #16]
    1508:	1a00002c 	bne	15c0 <RDMHandler::SetDisplayLevel(bool, unsigned short)+0x110>
    150c:	ebfffffe 	bl	0 <millis>
    1510:	e5953000 	ldr	r3, [r5]
    1514:	e5860004 	str	r0, [r6, #4]
    1518:	e593001c 	ldr	r0, [r3, #28]
    151c:	e5c37018 	strb	r7, [r3, #24]
    1520:	e3500000 	cmp	r0, #0
    1524:	1a00000a 	bne	1554 <RDMHandler::SetDisplayLevel(bool, unsigned short)+0xa4>
    1528:	ea00000f 	b	156c <RDMHandler::SetDisplayLevel(bool, unsigned short)+0xbc>
    152c:	e3500000 	cmp	r0, #0
    1530:	0a00001d 	beq	15ac <RDMHandler::SetDisplayLevel(bool, unsigned short)+0xfc>
    1534:	e5903000 	ldr	r3, [r0]
    1538:	e5c61010 	strb	r1, [r6, #16]
    153c:	e5932028 	ldr	r2, [r3, #40]	; 0x28
    1540:	e3003000 	movw	r3, #0
    1544:	e3403000 	movt	r3, #0
    1548:	e1520003 	cmp	r2, r3
    154c:	05c67018 	strbeq	r7, [r6, #24]
    1550:	1a00001c 	bne	15c8 <RDMHandler::SetDisplayLevel(bool, unsigned short)+0x118>
    1554:	e5902000 	ldr	r2, [r0]
    1558:	e3003000 	movw	r3, #0
    155c:	e3403000 	movt	r3, #0
    1560:	e592202c 	ldr	r2, [r2, #44]	; 0x2c
    1564:	e1520003 	cmp	r2, r3
    1568:	1a000011 	bne	15b4 <RDMHandler::SetDisplayLevel(bool, unsigned short)+0x104>
    156c:	e5943008 	ldr	r3, [r4, #8]
    1570:	e3a02000 	mov	r2, #0
    1574:	e1a00004 	mov	r0, r4
    1578:	e5c32017 	strb	r2, [r3, #23]
    157c:	e5943004 	ldr	r3, [r4, #4]
    1580:	e5d32016 	ldrb	r2, [r3, #22]
    1584:	e3520000 	cmp	r2, #0
    1588:	03a02018 	moveq	r2, #24
    158c:	05c32001 	strbeq	r2, [r3, #1]
    1590:	e3a02000 	mov	r2, #0
    1594:	e8bd41f0 	pop	{r4, r5, r6, r7, r8, lr}
    1598:	e1a01002 	mov	r1, r2
    159c:	eafffffe 	b	1ac <RDMHandler::CreateRespondMessage(unsigned char, unsigned short)>
    15a0:	e3a02001 	mov	r2, #1
    15a4:	e3a01002 	mov	r1, #2
    15a8:	eafffffe 	b	1ac <RDMHandler::CreateRespondMessage(unsigned char, unsigned short)>
    15ac:	e5c67018 	strb	r7, [r6, #24]
    15b0:	eaffffed 	b	156c <RDMHandler::SetDisplayLevel(bool, unsigned short)+0xbc>
    15b4:	e1a01007 	mov	r1, r7
    15b8:	e12fff32 	blx	r2
    15bc:	eaffffea 	b	156c <RDMHandler::SetDisplayLevel(bool, unsigned short)+0xbc>
    15c0:	e12fff32 	blx	r2
    15c4:	eaffffd0 	b	150c <RDMHandler::SetDisplayLevel(bool, unsigned short)+0x5c>
    15c8:	e12fff32 	blx	r2
    15cc:	e5953000 	ldr	r3, [r5]
    15d0:	e593001c 	ldr	r0, [r3, #28]
    15d4:	eaffffd0 	b	151c <RDMHandler::SetDisplayLevel(bool, unsigned short)+0x6c>

000015d8 <RDMHandler::GetPersonalityDescription(unsigned short)>:
    15d8:	e5903004 	ldr	r3, [r0, #4]
    15dc:	e92d41f0 	push	{r4, r5, r6, r7, r8, lr}
    15e0:	e3008000 	movw	r8, #0
    15e4:	e5d36017 	ldrb	r6, [r3, #23]
    15e8:	e2517000 	subs	r7, r1, #0
    15ec:	e3408000 	movt	r8, #0
    15f0:	e1a04000 	mov	r4, r0
    15f4:	e16f5f16 	clz	r5, r6
    15f8:	e5980000 	ldr	r0, [r8]
    15fc:	e1a052a5 	lsr	r5, r5, #5
    1600:	1a000032 	bne	16d0 <RDMHandler::GetPersonalityDescription(unsigned short)+0xf8>
    1604:	e5d030aa 	ldrb	r3, [r0, #170]	; 0xaa
    1608:	e1530006 	cmp	r3, r6
    160c:	33855001 	orrcc	r5, r5, #1
    1610:	e3550000 	cmp	r5, #0
    1614:	1a000028 	bne	16bc <RDMHandler::GetPersonalityDescription(unsigned short)+0xe4>
    1618:	e5903094 	ldr	r3, [r0, #148]	; 0x94
    161c:	e2462107 	sub	r2, r6, #-1073741823	; 0xc0000001
    1620:	e5945008 	ldr	r5, [r4, #8]
    1624:	e7933102 	ldr	r3, [r3, r2, lsl #2]
    1628:	e285101b 	add	r1, r5, #27
    162c:	e1d330b0 	ldrh	r3, [r3]
    1630:	e5c56018 	strb	r6, [r5, #24]
    1634:	e5c5301a 	strb	r3, [r5, #26]
    1638:	e1a03423 	lsr	r3, r3, #8
    163c:	e5c53019 	strb	r3, [r5, #25]
    1640:	e5903094 	ldr	r3, [r0, #148]	; 0x94
    1644:	e793e102 	ldr	lr, [r3, r2, lsl #2]
    1648:	e59e3028 	ldr	r3, [lr, #40]	; 0x28
    164c:	e3530000 	cmp	r3, #0
    1650:	0a000039 	beq	173c <RDMHandler::GetPersonalityDescription(unsigned short)+0x164>
    1654:	e28e2007 	add	r2, lr, #7
    1658:	e28e6027 	add	r6, lr, #39	; 0x27
    165c:	e3a03001 	mov	r3, #1
    1660:	ea000001 	b	166c <RDMHandler::GetPersonalityDescription(unsigned short)+0x94>
    1664:	e1520006 	cmp	r2, r6
    1668:	0a000031 	beq	1734 <RDMHandler::GetPersonalityDescription(unsigned short)+0x15c>
    166c:	e5f2c001 	ldrb	ip, [r2, #1]!
    1670:	e6ef0073 	uxtb	r0, r3
    1674:	e4c1c001 	strb	ip, [r1], #1
    1678:	e59ec028 	ldr	ip, [lr, #40]	; 0x28
    167c:	e153000c 	cmp	r3, ip
    1680:	e2833001 	add	r3, r3, #1
    1684:	3afffff6 	bcc	1664 <RDMHandler::GetPersonalityDescription(unsigned short)+0x8c>
    1688:	e2800003 	add	r0, r0, #3
    168c:	e6ef0070 	uxtb	r0, r0
    1690:	e5c50017 	strb	r0, [r5, #23]
    1694:	e1a00004 	mov	r0, r4
    1698:	e5943004 	ldr	r3, [r4, #4]
    169c:	e5d32016 	ldrb	r2, [r3, #22]
    16a0:	e3520000 	cmp	r2, #0
    16a4:	03a02018 	moveq	r2, #24
    16a8:	05c32001 	strbeq	r2, [r3, #1]
    16ac:	e3a02000 	mov	r2, #0
    16b0:	e8bd41f0 	pop	{r4, r5, r6, r7, r8, lr}
    16b4:	e1a01002 	mov	r1, r2
    16b8:	eafffffe 	b	1ac <RDMHandler::CreateRespondMessage(unsigned char, unsigned short)>
    16bc:	e1a00004 	mov	r0, r4
    16c0:	e3a02006 	mov	r2, #6
    16c4:	e8bd41f0 	pop	{r4, r5, r6, r7, r8, lr}
    16c8:	e3a01002 	mov	r1, #2
    16cc:	eafffffe 	b	1ac <RDMHandler::CreateRespondMessage(unsigned char, unsigned short)>
    16d0:	e280008c 	add	r0, r0, #140	; 0x8c
    16d4:	ebfffffe 	bl	0 <RDMSubDevices::GetPersonalityCount(unsigned short)>
    16d8:	e1560000 	cmp	r6, r0
    16dc:	83855001 	orrhi	r5, r5, #1
    16e0:	e3550000 	cmp	r5, #0
    16e4:	1afffff4 	bne	16bc <RDMHandler::GetPersonalityDescription(unsigned short)+0xe4>
    16e8:	e5980000 	ldr	r0, [r8]
    16ec:	e1a02006 	mov	r2, r6
    16f0:	e1a01007 	mov	r1, r7
    16f4:	e280008c 	add	r0, r0, #140	; 0x8c
    16f8:	ebfffffe 	bl	0 <RDMSubDevices::GetPersonality(unsigned short, unsigned char)>
    16fc:	e1d030b0 	ldrh	r3, [r0]
    1700:	e1a01007 	mov	r1, r7
    1704:	e5945008 	ldr	r5, [r4, #8]
    1708:	e5982000 	ldr	r2, [r8]
    170c:	e5c5301a 	strb	r3, [r5, #26]
    1710:	e1a03423 	lsr	r3, r3, #8
    1714:	e282008c 	add	r0, r2, #140	; 0x8c
    1718:	e5c56018 	strb	r6, [r5, #24]
    171c:	e1a02006 	mov	r2, r6
    1720:	e5c53019 	strb	r3, [r5, #25]
    1724:	ebfffffe 	bl	0 <RDMSubDevices::GetPersonality(unsigned short, unsigned char)>
    1728:	e1a0e000 	mov	lr, r0
    172c:	e285101b 	add	r1, r5, #27
    1730:	eaffffc4 	b	1648 <RDMHandler::GetPersonalityDescription(unsigned short)+0x70>
    1734:	e3a00023 	mov	r0, #35	; 0x23
    1738:	eaffffd4 	b	1690 <RDMHandler::GetPersonalityDescription(unsigned short)+0xb8>
    173c:	e3a00003 	mov	r0, #3
    1740:	eaffffd2 	b	1690 <RDMHandler::GetPersonalityDescription(unsigned short)+0xb8>

00001744 <RDMHandler::SetRealTimeClock(bool, unsigned short)>:
    1744:	e5903004 	ldr	r3, [r0, #4]
    1748:	e5d32016 	ldrb	r2, [r3, #22]
    174c:	e3520007 	cmp	r2, #7
    1750:	1a00002c 	bne	1808 <RDMHandler::SetRealTimeClock(bool, unsigned short)+0xc4>
    1754:	e92d4010 	push	{r4, lr}
    1758:	e1a04000 	mov	r4, r0
    175c:	e5d3c017 	ldrb	ip, [r3, #23]
    1760:	e24dd028 	sub	sp, sp, #40	; 0x28
    1764:	e5d32018 	ldrb	r2, [r3, #24]
    1768:	e3510000 	cmp	r1, #0
    176c:	e5d30019 	ldrb	r0, [r3, #25]
    1770:	e082240c 	add	r2, r2, ip, lsl #8
    1774:	e5d3101a 	ldrb	r1, [r3, #26]
    1778:	e2422e76 	sub	r2, r2, #1888	; 0x760
    177c:	e242200c 	sub	r2, r2, #12
    1780:	e58d2018 	str	r2, [sp, #24]
    1784:	e2402001 	sub	r2, r0, #1
    1788:	e58d1010 	str	r1, [sp, #16]
    178c:	e58d2014 	str	r2, [sp, #20]
    1790:	e5d3101b 	ldrb	r1, [r3, #27]
    1794:	e5d3201c 	ldrb	r2, [r3, #28]
    1798:	e5d3301d 	ldrb	r3, [r3, #29]
    179c:	e58d100c 	str	r1, [sp, #12]
    17a0:	e58d2008 	str	r2, [sp, #8]
    17a4:	e58d3004 	str	r3, [sp, #4]
    17a8:	0a000001 	beq	17b4 <RDMHandler::SetRealTimeClock(bool, unsigned short)+0x70>
    17ac:	e28dd028 	add	sp, sp, #40	; 0x28
    17b0:	e8bd8010 	pop	{r4, pc}
    17b4:	e3003000 	movw	r3, #0
    17b8:	e28d1004 	add	r1, sp, #4
    17bc:	e3403000 	movt	r3, #0
    17c0:	e5930000 	ldr	r0, [r3]
    17c4:	ebfffffe 	bl	0 <Hardware::SetTime(tm const*)>
    17c8:	e3500000 	cmp	r0, #0
    17cc:	0a000010 	beq	1814 <RDMHandler::SetRealTimeClock(bool, unsigned short)+0xd0>
    17d0:	e5943008 	ldr	r3, [r4, #8]
    17d4:	e3a02000 	mov	r2, #0
    17d8:	e1a00004 	mov	r0, r4
    17dc:	e5c32017 	strb	r2, [r3, #23]
    17e0:	e5943004 	ldr	r3, [r4, #4]
    17e4:	e5d32016 	ldrb	r2, [r3, #22]
    17e8:	e3520000 	cmp	r2, #0
    17ec:	03a02018 	moveq	r2, #24
    17f0:	05c32001 	strbeq	r2, [r3, #1]
    17f4:	e3a02000 	mov	r2, #0
    17f8:	e1a01002 	mov	r1, r2
    17fc:	ebfffffe 	bl	1ac <RDMHandler::CreateRespondMessage(unsigned char, unsigned short)>
    1800:	e28dd028 	add	sp, sp, #40	; 0x28
    1804:	e8bd8010 	pop	{r4, pc}
    1808:	e3a02001 	mov	r2, #1
    180c:	e3a01002 	mov	r1, #2
    1810:	eafffffe 	b	1ac <RDMHandler::CreateRespondMessage(unsigned char, unsigned short)>
    1814:	e3a02004 	mov	r2, #4
    1818:	e3a01002 	mov	r1, #2
    181c:	e1a00004 	mov	r0, r4
    1820:	ebfffffe 	bl	1ac <RDMHandler::CreateRespondMessage(unsigned char, unsigned short)>
    1824:	eaffffe9 	b	17d0 <RDMHandler::SetRealTimeClock(bool, unsigned short)+0x8c>

00001828 <RDMHandler::SetRecordSensors(bool, unsigned short)>:
    1828:	e5903004 	ldr	r3, [r0, #4]
    182c:	e5d32016 	ldrb	r2, [r3, #22]
    1830:	e3520001 	cmp	r2, #1
    1834:	1a000021 	bne	18c0 <RDMHandler::SetRecordSensors(bool, unsigned short)+0x98>
    1838:	e92d4070 	push	{r4, r5, r6, lr}
    183c:	e1a05001 	mov	r5, r1
    1840:	e5d31017 	ldrb	r1, [r3, #23]
    1844:	e3003000 	movw	r3, #0
    1848:	e3403000 	movt	r3, #0
    184c:	e1a04000 	mov	r4, r0
    1850:	e35100ff 	cmp	r1, #255	; 0xff
    1854:	e5930000 	ldr	r0, [r3]
    1858:	e5d03004 	ldrb	r3, [r0, #4]
    185c:	0a000010 	beq	18a4 <RDMHandler::SetRecordSensors(bool, unsigned short)+0x7c>
    1860:	e1510003 	cmp	r1, r3
    1864:	2a000010 	bcs	18ac <RDMHandler::SetRecordSensors(bool, unsigned short)+0x84>
    1868:	ebfffffe 	bl	0 <RDMSensors::SetRecord(unsigned char)>
    186c:	e3550000 	cmp	r5, #0
    1870:	18bd8070 	popne	{r4, r5, r6, pc}
    1874:	e5943008 	ldr	r3, [r4, #8]
    1878:	e1a00004 	mov	r0, r4
    187c:	e5c35017 	strb	r5, [r3, #23]
    1880:	e5943004 	ldr	r3, [r4, #4]
    1884:	e5d32016 	ldrb	r2, [r3, #22]
    1888:	e3520000 	cmp	r2, #0
    188c:	03a02018 	moveq	r2, #24
    1890:	05c32001 	strbeq	r2, [r3, #1]
    1894:	e3a02000 	mov	r2, #0
    1898:	e8bd4070 	pop	{r4, r5, r6, lr}
    189c:	e1a01002 	mov	r1, r2
    18a0:	eafffffe 	b	1ac <RDMHandler::CreateRespondMessage(unsigned char, unsigned short)>
    18a4:	e3530000 	cmp	r3, #0
    18a8:	1affffee 	bne	1868 <RDMHandler::SetRecordSensors(bool, unsigned short)+0x40>
    18ac:	e1a00004 	mov	r0, r4
    18b0:	e3a02006 	mov	r2, #6
    18b4:	e8bd4070 	pop	{r4, r5, r6, lr}
    18b8:	e3a01002 	mov	r1, #2
    18bc:	eafffffe 	b	1ac <RDMHandler::CreateRespondMessage(unsigned char, unsigned short)>
    18c0:	e3a02001 	mov	r2, #1
    18c4:	e3a01002 	mov	r1, #2
    18c8:	eafffffe 	b	1ac <RDMHandler::CreateRespondMessage(unsigned char, unsigned short)>

000018cc <RDMHandler::SetDeviceLabel(bool, unsigned short)>:
    18cc:	e92d4070 	push	{r4, r5, r6, lr}
    18d0:	e590e004 	ldr	lr, [r0, #4]
    18d4:	e5de3016 	ldrb	r3, [lr, #22]
    18d8:	e3530020 	cmp	r3, #32
    18dc:	8a000031 	bhi	19a8 <RDMHandler::SetDeviceLabel(bool, unsigned short)+0xdc>
    18e0:	e1a05001 	mov	r5, r1
    18e4:	e3520000 	cmp	r2, #0
    18e8:	e1a01002 	mov	r1, r2
    18ec:	e3002000 	movw	r2, #0
    18f0:	e3402000 	movt	r2, #0
    18f4:	e1a04000 	mov	r4, r0
    18f8:	e28ec017 	add	ip, lr, #23
    18fc:	e5920000 	ldr	r0, [r2]
    1900:	1a000017 	bne	1964 <RDMHandler::SetDeviceLabel(bool, unsigned short)+0x98>
    1904:	e5d02004 	ldrb	r2, [r0, #4]
    1908:	e3520000 	cmp	r2, #0
    190c:	0a000029 	beq	19b8 <RDMHandler::SetDeviceLabel(bool, unsigned short)+0xec>
    1910:	e3530000 	cmp	r3, #0
    1914:	e280100f 	add	r1, r0, #15
    1918:	12836017 	addne	r6, r3, #23
    191c:	108e6006 	addne	r6, lr, r6
    1920:	1280e00e 	addne	lr, r0, #14
    1924:	0a000003 	beq	1938 <RDMHandler::SetDeviceLabel(bool, unsigned short)+0x6c>
    1928:	e4dc2001 	ldrb	r2, [ip], #1
    192c:	e15c0006 	cmp	ip, r6
    1930:	e5ee2001 	strb	r2, [lr, #1]!
    1934:	1afffffb 	bne	1928 <RDMHandler::SetDeviceLabel(bool, unsigned short)+0x5c>
    1938:	e5c0302f 	strb	r3, [r0, #47]	; 0x2f
    193c:	e590007c 	ldr	r0, [r0, #124]	; 0x7c
    1940:	e3500000 	cmp	r0, #0
    1944:	0a000009 	beq	1970 <RDMHandler::SetDeviceLabel(bool, unsigned short)+0xa4>
    1948:	e590c000 	ldr	ip, [r0]
    194c:	e1a02003 	mov	r2, r3
    1950:	e59c3008 	ldr	r3, [ip, #8]
    1954:	e12fff33 	blx	r3
    1958:	e3550000 	cmp	r5, #0
    195c:	18bd8070 	popne	{r4, r5, r6, pc}
    1960:	ea000004 	b	1978 <RDMHandler::SetDeviceLabel(bool, unsigned short)+0xac>
    1964:	e1a0200c 	mov	r2, ip
    1968:	e280008c 	add	r0, r0, #140	; 0x8c
    196c:	ebfffffe 	bl	0 <RDMSubDevices::SetLabel(unsigned short, char const*, unsigned char)>
    1970:	e3550000 	cmp	r5, #0
    1974:	18bd8070 	popne	{r4, r5, r6, pc}
    1978:	e5943008 	ldr	r3, [r4, #8]
    197c:	e1a00004 	mov	r0, r4
    1980:	e5c35017 	strb	r5, [r3, #23]
    1984:	e5943004 	ldr	r3, [r4, #4]
    1988:	e5d32016 	ldrb	r2, [r3, #22]
    198c:	e3520000 	cmp	r2, #0
    1990:	03a02018 	moveq	r2, #24
    1994:	05c32001 	strbeq	r2, [r3, #1]
    1998:	e3a02000 	mov	r2, #0
    199c:	e8bd4070 	pop	{r4, r5, r6, lr}
    19a0:	e1a01002 	mov	r1, r2
    19a4:	eafffffe 	b	1ac <RDMHandler::CreateRespondMessage(unsigned char, unsigned short)>
    19a8:	e8bd4070 	pop	{r4, r5, r6, lr}
    19ac:	e3a02001 	mov	r2, #1
    19b0:	e3a01002 	mov	r1, #2
    19b4:	eafffffe 	b	1ac <RDMHandler::CreateRespondMessage(unsigned char, unsigned short)>
    19b8:	e3530000 	cmp	r3, #0
    19bc:	12832017 	addne	r2, r3, #23
    19c0:	12801055 	addne	r1, r0, #85	; 0x55
    19c4:	108ee002 	addne	lr, lr, r2
    19c8:	0a000003 	beq	19dc <RDMHandler::SetDeviceLabel(bool, unsigned short)+0x110>
    19cc:	e4dc2001 	ldrb	r2, [ip], #1
    19d0:	e15c000e 	cmp	ip, lr
    19d4:	e5e12001 	strb	r2, [r1, #1]!
    19d8:	1afffffb 	bne	19cc <RDMHandler::SetDeviceLabel(bool, unsigned short)+0x100>
    19dc:	e5c03076 	strb	r3, [r0, #118]	; 0x76
    19e0:	e3550000 	cmp	r5, #0
    19e4:	18bd8070 	popne	{r4, r5, r6, pc}
    19e8:	eaffffe2 	b	1978 <RDMHandler::SetDeviceLabel(bool, unsigned short)+0xac>

000019ec <RDMHandler::SetPersonality(bool, unsigned short)>:
    19ec:	e5903004 	ldr	r3, [r0, #4]
    19f0:	e5d3c016 	ldrb	ip, [r3, #22]
    19f4:	e35c0001 	cmp	ip, #1
    19f8:	1a00004c 	bne	1b30 <RDMHandler::SetPersonality(bool, unsigned short)+0x144>
    19fc:	e92d47f0 	push	{r4, r5, r6, r7, r8, r9, sl, lr}
    1a00:	e3006000 	movw	r6, #0
    1a04:	e5d39017 	ldrb	r9, [r3, #23]
    1a08:	e3520000 	cmp	r2, #0
    1a0c:	e3406000 	movt	r6, #0
    1a10:	e1a04000 	mov	r4, r0
    1a14:	e16f5f19 	clz	r5, r9
    1a18:	e1a07002 	mov	r7, r2
    1a1c:	e5968000 	ldr	r8, [r6]
    1a20:	e1a052a5 	lsr	r5, r5, #5
    1a24:	1a000035 	bne	1b00 <RDMHandler::SetPersonality(bool, unsigned short)+0x114>
    1a28:	e5d830aa 	ldrb	r3, [r8, #170]	; 0xaa
    1a2c:	e1530009 	cmp	r3, r9
    1a30:	33855001 	orrcc	r5, r5, #1
    1a34:	e3550000 	cmp	r5, #0
    1a38:	1a000037 	bne	1b1c <RDMHandler::SetPersonality(bool, unsigned short)+0x130>
    1a3c:	e5983094 	ldr	r3, [r8, #148]	; 0x94
    1a40:	e2492107 	sub	r2, r9, #-1073741823	; 0xc0000001
    1a44:	e5c890a9 	strb	r9, [r8, #169]	; 0xa9
    1a48:	e7933102 	ldr	r3, [r3, r2, lsl #2]
    1a4c:	e5935004 	ldr	r5, [r3, #4]
    1a50:	e3550000 	cmp	r5, #0
    1a54:	0a00001c 	beq	1acc <RDMHandler::SetPersonality(bool, unsigned short)+0xe0>
    1a58:	e5953000 	ldr	r3, [r5]
    1a5c:	e1a00005 	mov	r0, r5
    1a60:	e5933030 	ldr	r3, [r3, #48]	; 0x30
    1a64:	e12fff33 	blx	r3
    1a68:	e1a03000 	mov	r3, r0
    1a6c:	e1a00005 	mov	r0, r5
    1a70:	e1a03423 	lsr	r3, r3, #8
    1a74:	e5c830a7 	strb	r3, [r8, #167]	; 0xa7
    1a78:	e5953000 	ldr	r3, [r5]
    1a7c:	e5933030 	ldr	r3, [r3, #48]	; 0x30
    1a80:	e12fff33 	blx	r3
    1a84:	e5c800a8 	strb	r0, [r8, #168]	; 0xa8
    1a88:	e1a00005 	mov	r0, r5
    1a8c:	e5953000 	ldr	r3, [r5]
    1a90:	e593302c 	ldr	r3, [r3, #44]	; 0x2c
    1a94:	e12fff33 	blx	r3
    1a98:	e1a03000 	mov	r3, r0
    1a9c:	e1a00005 	mov	r0, r5
    1aa0:	e1a03423 	lsr	r3, r3, #8
    1aa4:	e5c830ab 	strb	r3, [r8, #171]	; 0xab
    1aa8:	e5953000 	ldr	r3, [r5]
    1aac:	e593302c 	ldr	r3, [r3, #44]	; 0x2c
    1ab0:	e12fff33 	blx	r3
    1ab4:	e5983000 	ldr	r3, [r8]
    1ab8:	e1a01005 	mov	r1, r5
    1abc:	e5c800ac 	strb	r0, [r8, #172]	; 0xac
    1ac0:	e1a00008 	mov	r0, r8
    1ac4:	e5933008 	ldr	r3, [r3, #8]
    1ac8:	e12fff33 	blx	r3
    1acc:	e5943008 	ldr	r3, [r4, #8]
    1ad0:	e3a02000 	mov	r2, #0
    1ad4:	e1a00004 	mov	r0, r4
    1ad8:	e5c32017 	strb	r2, [r3, #23]
    1adc:	e5943004 	ldr	r3, [r4, #4]
    1ae0:	e5d32016 	ldrb	r2, [r3, #22]
    1ae4:	e3520000 	cmp	r2, #0
    1ae8:	03a02018 	moveq	r2, #24
    1aec:	05c32001 	strbeq	r2, [r3, #1]
    1af0:	e3a02000 	mov	r2, #0
    1af4:	e8bd47f0 	pop	{r4, r5, r6, r7, r8, r9, sl, lr}
    1af8:	e1a01002 	mov	r1, r2
    1afc:	eafffffe 	b	1ac <RDMHandler::CreateRespondMessage(unsigned char, unsigned short)>
    1b00:	e288008c 	add	r0, r8, #140	; 0x8c
    1b04:	e1a01002 	mov	r1, r2
    1b08:	ebfffffe 	bl	0 <RDMSubDevices::GetPersonalityCount(unsigned short)>
    1b0c:	e1590000 	cmp	r9, r0
    1b10:	83855001 	orrhi	r5, r5, #1
    1b14:	e3550000 	cmp	r5, #0
    1b18:	0a000007 	beq	1b3c <RDMHandler::SetPersonality(bool, unsigned short)+0x150>
    1b1c:	e1a00004 	mov	r0, r4
    1b20:	e3a02006 	mov	r2, #6
    1b24:	e8bd47f0 	pop	{r4, r5, r6, r7, r8, r9, sl, lr}
    1b28:	e3a01002 	mov	r1, #2
    1b2c:	eafffffe 	b	1ac <RDMHandler::CreateRespondMessage(unsigned char, unsigned short)>
    1b30:	e3a02001 	mov	r2, #1
    1b34:	e3a01002 	mov	r1, #2
    1b38:	eafffffe 	b	1ac <RDMHandler::CreateRespondMessage(unsigned char, unsigned short)>
    1b3c:	e5960000 	ldr	r0, [r6]
    1b40:	e1a02009 	mov	r2, r9
    1b44:	e1a01007 	mov	r1, r7
    1b48:	e280008c 	add	r0, r0, #140	; 0x8c
    1b4c:	ebfffffe 	bl	0 <RDMSubDevices::SetPersonalityCurrent(unsigned short, unsigned char)>
    1b50:	eaffffdd 	b	1acc <RDMHandler::SetPersonality(bool, unsigned short)+0xe0>

00001b54 <RDMHandler::SetIdentifyDevice(bool, unsigned short)>:
    1b54:	e5903004 	ldr	r3, [r0, #4]
    1b58:	e5d32016 	ldrb	r2, [r3, #22]
    1b5c:	e3520001 	cmp	r2, #1
    1b60:	1a000026 	bne	1c00 <RDMHandler::SetIdentifyDevice(bool, unsigned short)+0xac>
    1b64:	e5d33017 	ldrb	r3, [r3, #23]
    1b68:	e3530001 	cmp	r3, #1
    1b6c:	8a000033 	bhi	1c40 <RDMHandler::SetIdentifyDevice(bool, unsigned short)+0xec>
    1b70:	e92d4070 	push	{r4, r5, r6, lr}
    1b74:	e1a05001 	mov	r5, r1
    1b78:	e3001000 	movw	r1, #0
    1b7c:	e3530000 	cmp	r3, #0
    1b80:	e3401000 	movt	r1, #0
    1b84:	e1a04000 	mov	r4, r0
    1b88:	e5916000 	ldr	r6, [r1]
    1b8c:	e3001000 	movw	r1, #0
    1b90:	e3401000 	movt	r1, #0
    1b94:	e5910000 	ldr	r0, [r1]
    1b98:	1a00001b 	bne	1c0c <RDMHandler::SetIdentifyDevice(bool, unsigned short)+0xb8>
    1b9c:	e3002000 	movw	r2, #0
    1ba0:	e3a01002 	mov	r1, #2
    1ba4:	e3402000 	movt	r2, #0
    1ba8:	e5c23000 	strb	r3, [r2]
    1bac:	e1a02003 	mov	r2, r3
    1bb0:	ebfffffe 	bl	0 <Hardware::SetModeWithLock(hardware::ledblink::Mode, bool)>
    1bb4:	e3003000 	movw	r3, #0
    1bb8:	e3403000 	movt	r3, #0
    1bbc:	e5d31000 	ldrb	r1, [r3]
    1bc0:	e3510000 	cmp	r1, #0
    1bc4:	1a000020 	bne	1c4c <RDMHandler::SetIdentifyDevice(bool, unsigned short)+0xf8>
    1bc8:	e3550000 	cmp	r5, #0
    1bcc:	18bd8070 	popne	{r4, r5, r6, pc}
    1bd0:	e5943008 	ldr	r3, [r4, #8]
    1bd4:	e1a00004 	mov	r0, r4
    1bd8:	e5c35017 	strb	r5, [r3, #23]
    1bdc:	e5943004 	ldr	r3, [r4, #4]
    1be0:	e5d32016 	ldrb	r2, [r3, #22]
    1be4:	e3520000 	cmp	r2, #0
    1be8:	03a02018 	moveq	r2, #24
    1bec:	05c32001 	strbeq	r2, [r3, #1]
    1bf0:	e3a02000 	mov	r2, #0
    1bf4:	e8bd4070 	pop	{r4, r5, r6, lr}
    1bf8:	e1a01002 	mov	r1, r2
    1bfc:	eafffffe 	b	1ac <RDMHandler::CreateRespondMessage(unsigned char, unsigned short)>
    1c00:	e3a02001 	mov	r2, #1
    1c04:	e3a01002 	mov	r1, #2
    1c08:	eafffffe 	b	1ac <RDMHandler::CreateRespondMessage(unsigned char, unsigned short)>
    1c0c:	e3003000 	movw	r3, #0
    1c10:	e3a01004 	mov	r1, #4
    1c14:	e3403000 	movt	r3, #0
    1c18:	e5c32000 	strb	r2, [r3]
    1c1c:	ebfffffe 	bl	0 <Hardware::SetModeWithLock(hardware::ledblink::Mode, bool)>
    1c20:	e3003000 	movw	r3, #0
    1c24:	e3403000 	movt	r3, #0
    1c28:	e5d31000 	ldrb	r1, [r3]
    1c2c:	e3510000 	cmp	r1, #0
    1c30:	0affffe4 	beq	1bc8 <RDMHandler::SetIdentifyDevice(bool, unsigned short)+0x74>
    1c34:	e1a00006 	mov	r0, r6
    1c38:	ebfffffe 	bl	0 <RDMIdentify::On(rdm::identify::Mode)>
    1c3c:	eaffffe1 	b	1bc8 <RDMHandler::SetIdentifyDevice(bool, unsigned short)+0x74>
    1c40:	e3a02006 	mov	r2, #6
    1c44:	e3a01002 	mov	r1, #2
    1c48:	eafffffe 	b	1ac <RDMHandler::CreateRespondMessage(unsigned char, unsigned short)>
    1c4c:	e1a00006 	mov	r0, r6
    1c50:	ebfffffe 	bl	0 <RDMIdentify::Off(rdm::identify::Mode)>
    1c54:	eaffffdb 	b	1bc8 <RDMHandler::SetIdentifyDevice(bool, unsigned short)+0x74>

00001c58 <RDMHandler::GetSlotDescription(unsigned short)>:
    1c58:	e3510000 	cmp	r1, #0
    1c5c:	e92d4070 	push	{r4, r5, r6, lr}
    1c60:	e1a04000 	mov	r4, r0
    1c64:	e24dd008 	sub	sp, sp, #8
    1c68:	1a000013 	bne	1cbc <RDMHandler::GetSlotDescription(unsigned short)+0x64>
    1c6c:	e5906004 	ldr	r6, [r0, #4]
    1c70:	e3003000 	movw	r3, #0
    1c74:	e3403000 	movt	r3, #0
    1c78:	e5d61017 	ldrb	r1, [r6, #23]
    1c7c:	e5932000 	ldr	r2, [r3]
    1c80:	e5d65018 	ldrb	r5, [r6, #24]
    1c84:	e5d230a9 	ldrb	r3, [r2, #169]	; 0xa9
    1c88:	e5922094 	ldr	r2, [r2, #148]	; 0x94
    1c8c:	e0855401 	add	r5, r5, r1, lsl #8
    1c90:	e2433107 	sub	r3, r3, #-1073741823	; 0xc0000001
    1c94:	e6ff5075 	uxth	r5, r5
    1c98:	e7923103 	ldr	r3, [r2, r3, lsl #2]
    1c9c:	e1a01005 	mov	r1, r5
    1ca0:	e1a0200d 	mov	r2, sp
    1ca4:	e5930004 	ldr	r0, [r3, #4]
    1ca8:	e5903000 	ldr	r3, [r0]
    1cac:	e5933034 	ldr	r3, [r3, #52]	; 0x34
    1cb0:	e12fff33 	blx	r3
    1cb4:	e3500000 	cmp	r0, #0
    1cb8:	1a000005 	bne	1cd4 <RDMHandler::GetSlotDescription(unsigned short)+0x7c>
    1cbc:	e3a02006 	mov	r2, #6
    1cc0:	e3a01002 	mov	r1, #2
    1cc4:	e1a00004 	mov	r0, r4
    1cc8:	ebfffffe 	bl	1ac <RDMHandler::CreateRespondMessage(unsigned char, unsigned short)>
    1ccc:	e28dd008 	add	sp, sp, #8
    1cd0:	e8bd8070 	pop	{r4, r5, r6, pc}
    1cd4:	e1dd10b0 	ldrh	r1, [sp]
    1cd8:	e28d2004 	add	r2, sp, #4
    1cdc:	e1a00005 	mov	r0, r5
    1ce0:	ebfffffe 	bl	0 <RDMSlotInfo::GetCategoryText(unsigned short, unsigned short, unsigned long&)>
    1ce4:	e3500000 	cmp	r0, #0
    1ce8:	0afffff3 	beq	1cbc <RDMHandler::GetSlotDescription(unsigned short)+0x64>
    1cec:	e59de004 	ldr	lr, [sp, #4]
    1cf0:	e5941008 	ldr	r1, [r4, #8]
    1cf4:	e35e0020 	cmp	lr, #32
    1cf8:	8a00001b 	bhi	1d6c <RDMHandler::GetSlotDescription(unsigned short)+0x114>
    1cfc:	e28e3002 	add	r3, lr, #2
    1d00:	e35e0000 	cmp	lr, #0
    1d04:	e5c13017 	strb	r3, [r1, #23]
    1d08:	e5d63017 	ldrb	r3, [r6, #23]
    1d0c:	e5c13018 	strb	r3, [r1, #24]
    1d10:	e5d63018 	ldrb	r3, [r6, #24]
    1d14:	e5c13019 	strb	r3, [r1, #25]
    1d18:	0a000008 	beq	1d40 <RDMHandler::GetSlotDescription(unsigned short)+0xe8>
    1d1c:	e2402001 	sub	r2, r0, #1
    1d20:	e2811019 	add	r1, r1, #25
    1d24:	e1a03002 	mov	r3, r2
    1d28:	e5f2c001 	ldrb	ip, [r2, #1]!
    1d2c:	e2833002 	add	r3, r3, #2
    1d30:	e0433000 	sub	r3, r3, r0
    1d34:	e153000e 	cmp	r3, lr
    1d38:	e5e1c001 	strb	ip, [r1, #1]!
    1d3c:	3afffff8 	bcc	1d24 <RDMHandler::GetSlotDescription(unsigned short)+0xcc>
    1d40:	e5943004 	ldr	r3, [r4, #4]
    1d44:	e1a00004 	mov	r0, r4
    1d48:	e5d32016 	ldrb	r2, [r3, #22]
    1d4c:	e3520000 	cmp	r2, #0
    1d50:	03a02018 	moveq	r2, #24
    1d54:	05c32001 	strbeq	r2, [r3, #1]
    1d58:	e3a02000 	mov	r2, #0
    1d5c:	e1a01002 	mov	r1, r2
    1d60:	ebfffffe 	bl	1ac <RDMHandler::CreateRespondMessage(unsigned char, unsigned short)>
    1d64:	e28dd008 	add	sp, sp, #8
    1d68:	e8bd8070 	pop	{r4, r5, r6, pc}
    1d6c:	e3a03022 	mov	r3, #34	; 0x22
    1d70:	e3a0e020 	mov	lr, #32
    1d74:	e5c13017 	strb	r3, [r1, #23]
    1d78:	e5d63017 	ldrb	r3, [r6, #23]
    1d7c:	e58de004 	str	lr, [sp, #4]
    1d80:	e5c13018 	strb	r3, [r1, #24]
    1d84:	e5d63018 	ldrb	r3, [r6, #24]
    1d88:	e5c13019 	strb	r3, [r1, #25]
    1d8c:	eaffffe2 	b	1d1c <RDMHandler::GetSlotDescription(unsigned short)+0xc4>

00001d90 <RDMHandler::GetSensorDefinition(unsigned short)>:
    1d90:	e5903004 	ldr	r3, [r0, #4]
    1d94:	e92d4070 	push	{r4, r5, r6, lr}
    1d98:	e1a04000 	mov	r4, r0
    1d9c:	e5d36017 	ldrb	r6, [r3, #23]
    1da0:	e35600ff 	cmp	r6, #255	; 0xff
    1da4:	0a000005 	beq	1dc0 <RDMHandler::GetSensorDefinition(unsigned short)+0x30>
    1da8:	e3003000 	movw	r3, #0
    1dac:	e3403000 	movt	r3, #0
    1db0:	e5930000 	ldr	r0, [r3]
    1db4:	e5d03004 	ldrb	r3, [r0, #4]
    1db8:	e1530006 	cmp	r3, r6
    1dbc:	8a000004 	bhi	1dd4 <RDMHandler::GetSensorDefinition(unsigned short)+0x44>
    1dc0:	e1a00004 	mov	r0, r4
    1dc4:	e3a02006 	mov	r2, #6
    1dc8:	e8bd4070 	pop	{r4, r5, r6, lr}
    1dcc:	e3a01002 	mov	r1, #2
    1dd0:	eafffffe 	b	1ac <RDMHandler::CreateRespondMessage(unsigned char, unsigned short)>
    1dd4:	e5945008 	ldr	r5, [r4, #8]
    1dd8:	e1a01006 	mov	r1, r6
    1ddc:	ebfffffe 	bl	0 <RDMSensors::GetDefintion(unsigned char)>
    1de0:	e5d03000 	ldrb	r3, [r0]
    1de4:	e1a0c000 	mov	ip, r0
    1de8:	e1530006 	cmp	r3, r6
    1dec:	1afffff3 	bne	1dc0 <RDMHandler::GetSensorDefinition(unsigned short)+0x30>
    1df0:	e5c53018 	strb	r3, [r5, #24]
    1df4:	e5d03001 	ldrb	r3, [r0, #1]
    1df8:	e5c53019 	strb	r3, [r5, #25]
    1dfc:	e5d03002 	ldrb	r3, [r0, #2]
    1e00:	e5c5301a 	strb	r3, [r5, #26]
    1e04:	e5d03003 	ldrb	r3, [r0, #3]
    1e08:	e5c5301b 	strb	r3, [r5, #27]
    1e0c:	e1d030d5 	ldrsb	r3, [r0, #5]
    1e10:	e5c5301c 	strb	r3, [r5, #28]
    1e14:	e1d030b4 	ldrh	r3, [r0, #4]
    1e18:	e5c5301d 	strb	r3, [r5, #29]
    1e1c:	e1d030d7 	ldrsb	r3, [r0, #7]
    1e20:	e5c5301e 	strb	r3, [r5, #30]
    1e24:	e1d030b6 	ldrh	r3, [r0, #6]
    1e28:	e5c5301f 	strb	r3, [r5, #31]
    1e2c:	e1d030d9 	ldrsb	r3, [r0, #9]
    1e30:	e5c53020 	strb	r3, [r5, #32]
    1e34:	e1d030b8 	ldrh	r3, [r0, #8]
    1e38:	e5c53021 	strb	r3, [r5, #33]	; 0x21
    1e3c:	e1d030db 	ldrsb	r3, [r0, #11]
    1e40:	e5c53022 	strb	r3, [r5, #34]	; 0x22
    1e44:	e1d030ba 	ldrh	r3, [r0, #10]
    1e48:	e5c53023 	strb	r3, [r5, #35]	; 0x23
    1e4c:	e5d0302d 	ldrb	r3, [r0, #45]	; 0x2d
    1e50:	e5c53024 	strb	r3, [r5, #36]	; 0x24
    1e54:	e5d0302c 	ldrb	r3, [r0, #44]	; 0x2c
    1e58:	e3530000 	cmp	r3, #0
    1e5c:	0a000015 	beq	1eb8 <RDMHandler::GetSensorDefinition(unsigned short)+0x128>
    1e60:	e280000b 	add	r0, r0, #11
    1e64:	e2851024 	add	r1, r5, #36	; 0x24
    1e68:	e3a0200d 	mov	r2, #13
    1e6c:	e5f0e001 	ldrb	lr, [r0, #1]!
    1e70:	e242300c 	sub	r3, r2, #12
    1e74:	e2822001 	add	r2, r2, #1
    1e78:	e5e1e001 	strb	lr, [r1, #1]!
    1e7c:	e5dce02c 	ldrb	lr, [ip, #44]	; 0x2c
    1e80:	e15e0003 	cmp	lr, r3
    1e84:	cafffff8 	bgt	1e6c <RDMHandler::GetSensorDefinition(unsigned short)+0xdc>
    1e88:	e6ef2072 	uxtb	r2, r2
    1e8c:	e5c52017 	strb	r2, [r5, #23]
    1e90:	e1a00004 	mov	r0, r4
    1e94:	e5943004 	ldr	r3, [r4, #4]
    1e98:	e5d32016 	ldrb	r2, [r3, #22]
    1e9c:	e3520000 	cmp	r2, #0
    1ea0:	03a02018 	moveq	r2, #24
    1ea4:	05c32001 	strbeq	r2, [r3, #1]
    1ea8:	e3a02000 	mov	r2, #0
    1eac:	e8bd4070 	pop	{r4, r5, r6, lr}
    1eb0:	e1a01002 	mov	r1, r2
    1eb4:	eafffffe 	b	1ac <RDMHandler::CreateRespondMessage(unsigned char, unsigned short)>
    1eb8:	e3a0200d 	mov	r2, #13
    1ebc:	eafffff2 	b	1e8c <RDMHandler::GetSensorDefinition(unsigned short)+0xfc>

00001ec0 <RDMHandler::SetPowerState(bool, unsigned short)>:
    1ec0:	e5902004 	ldr	r2, [r0, #4]
    1ec4:	e5d21016 	ldrb	r1, [r2, #22]
    1ec8:	e3510001 	cmp	r1, #1
    1ecc:	1a000009 	bne	1ef8 <RDMHandler::SetPowerState(bool, unsigned short)+0x38>
    1ed0:	e5d21017 	ldrb	r1, [r2, #23]
    1ed4:	e2412003 	sub	r2, r1, #3
    1ed8:	e6ef2072 	uxtb	r2, r2
    1edc:	e35200fb 	cmp	r2, #251	; 0xfb
    1ee0:	9a000012 	bls	1f30 <RDMHandler::SetPowerState(bool, unsigned short)+0x70>
    1ee4:	e35100ff 	cmp	r1, #255	; 0xff
    1ee8:	0a000005 	beq	1f04 <RDMHandler::SetPowerState(bool, unsigned short)+0x44>
    1eec:	e3a02004 	mov	r2, #4
    1ef0:	e3a01002 	mov	r1, #2
    1ef4:	eafffffe 	b	1ac <RDMHandler::CreateRespondMessage(unsigned char, unsigned short)>
    1ef8:	e3a02001 	mov	r2, #1
    1efc:	e3a01002 	mov	r1, #2
    1f00:	eafffffe 	b	1ac <RDMHandler::CreateRespondMessage(unsigned char, unsigned short)>
    1f04:	e5902008 	ldr	r2, [r0, #8]
    1f08:	e3a01000 	mov	r1, #0
    1f0c:	e5c21017 	strb	r1, [r2, #23]
    1f10:	e5902004 	ldr	r2, [r0, #4]
    1f14:	e5d21016 	ldrb	r1, [r2, #22]
    1f18:	e3510000 	cmp	r1, #0
    1f1c:	03a01018 	moveq	r1, #24
    1f20:	05c21001 	strbeq	r1, [r2, #1]
    1f24:	e3a02000 	mov	r2, #0
    1f28:	e1a01002 	mov	r1, r2
    1f2c:	eafffffe 	b	1ac <RDMHandler::CreateRespondMessage(unsigned char, unsigned short)>
    1f30:	e3a02006 	mov	r2, #6
    1f34:	e3a01002 	mov	r1, #2
    1f38:	eafffffe 	b	1ac <RDMHandler::CreateRespondMessage(unsigned char, unsigned short)>

00001f3c <RDMHandler::SetDmxStartAddress(bool, unsigned short)>:
    1f3c:	e590c004 	ldr	ip, [r0, #4]
    1f40:	e92d41f0 	push	{r4, r5, r6, r7, r8, lr}
    1f44:	e1a06001 	mov	r6, r1
    1f48:	e5dc1016 	ldrb	r1, [ip, #22]
    1f4c:	e3510002 	cmp	r1, #2
    1f50:	1a000031 	bne	201c <RDMHandler::SetDmxStartAddress(bool, unsigned short)+0xe0>
    1f54:	e5dc5018 	ldrb	r5, [ip, #24]
    1f58:	e1a03002 	mov	r3, r2
    1f5c:	e5dc2017 	ldrb	r2, [ip, #23]
    1f60:	e0855402 	add	r5, r5, r2, lsl #8
    1f64:	e6ff5075 	uxth	r5, r5
    1f68:	e2452001 	sub	r2, r5, #1
    1f6c:	e3520c02 	cmp	r2, #512	; 0x200
    1f70:	2a000026 	bcs	2010 <RDMHandler::SetDmxStartAddress(bool, unsigned short)+0xd4>
    1f74:	e3002000 	movw	r2, #0
    1f78:	e3530000 	cmp	r3, #0
    1f7c:	e3402000 	movt	r2, #0
    1f80:	e1a04000 	mov	r4, r0
    1f84:	e5927000 	ldr	r7, [r2]
    1f88:	1a000027 	bne	202c <RDMHandler::SetDmxStartAddress(bool, unsigned short)+0xf0>
    1f8c:	e5d730a9 	ldrb	r3, [r7, #169]	; 0xa9
    1f90:	e5972094 	ldr	r2, [r7, #148]	; 0x94
    1f94:	e2433107 	sub	r3, r3, #-1073741823	; 0xc0000001
    1f98:	e7923103 	ldr	r3, [r2, r3, lsl #2]
    1f9c:	e5930004 	ldr	r0, [r3, #4]
    1fa0:	e3500000 	cmp	r0, #0
    1fa4:	0a00000b 	beq	1fd8 <RDMHandler::SetDmxStartAddress(bool, unsigned short)+0x9c>
    1fa8:	e5903000 	ldr	r3, [r0]
    1fac:	e1a01005 	mov	r1, r5
    1fb0:	e5933028 	ldr	r3, [r3, #40]	; 0x28
    1fb4:	e12fff33 	blx	r3
    1fb8:	e3500000 	cmp	r0, #0
    1fbc:	e1a00007 	mov	r0, r7
    1fc0:	11a03425 	lsrne	r3, r5, #8
    1fc4:	15c730ab 	strbne	r3, [r7, #171]	; 0xab
    1fc8:	e5973000 	ldr	r3, [r7]
    1fcc:	15c750ac 	strbne	r5, [r7, #172]	; 0xac
    1fd0:	e593300c 	ldr	r3, [r3, #12]
    1fd4:	e12fff33 	blx	r3
    1fd8:	e3560000 	cmp	r6, #0
    1fdc:	18bd81f0 	popne	{r4, r5, r6, r7, r8, pc}
    1fe0:	e5943008 	ldr	r3, [r4, #8]
    1fe4:	e1a00004 	mov	r0, r4
    1fe8:	e5c36017 	strb	r6, [r3, #23]
    1fec:	e5943004 	ldr	r3, [r4, #4]
    1ff0:	e5d32016 	ldrb	r2, [r3, #22]
    1ff4:	e3520000 	cmp	r2, #0
    1ff8:	03a02018 	moveq	r2, #24
    1ffc:	05c32001 	strbeq	r2, [r3, #1]
    2000:	e3a02000 	mov	r2, #0
    2004:	e8bd41f0 	pop	{r4, r5, r6, r7, r8, lr}
    2008:	e1a01002 	mov	r1, r2
    200c:	eafffffe 	b	1ac <RDMHandler::CreateRespondMessage(unsigned char, unsigned short)>
    2010:	e8bd41f0 	pop	{r4, r5, r6, r7, r8, lr}
    2014:	e3a02006 	mov	r2, #6
    2018:	eafffffe 	b	1ac <RDMHandler::CreateRespondMessage(unsigned char, unsigned short)>
    201c:	e8bd41f0 	pop	{r4, r5, r6, r7, r8, lr}
    2020:	e3a02001 	mov	r2, #1
    2024:	e3a01002 	mov	r1, #2
    2028:	eafffffe 	b	1ac <RDMHandler::CreateRespondMessage(unsigned char, unsigned short)>
    202c:	e1a02005 	mov	r2, r5
    2030:	e1a01003 	mov	r1, r3
    2034:	e287008c 	add	r0, r7, #140	; 0x8c
    2038:	ebfffffe 	bl	0 <RDMSubDevices::SetDmxStartAddress(unsigned short, unsigned short)>
    203c:	eaffffe5 	b	1fd8 <RDMHandler::SetDmxStartAddress(bool, unsigned short)+0x9c>

00002040 <RDMHandler::SetLanguage(bool, unsigned short)>:
    2040:	e5902004 	ldr	r2, [r0, #4]
    2044:	e5d2c016 	ldrb	ip, [r2, #22]
    2048:	e35c0002 	cmp	ip, #2
    204c:	1a00001f 	bne	20d0 <RDMHandler::SetLanguage(bool, unsigned short)+0x90>
    2050:	e1a03000 	mov	r3, r0
    2054:	e3000000 	movw	r0, #0
    2058:	e3400000 	movt	r0, #0
    205c:	e52de004 	push	{lr}		; (str lr, [sp, #-4]!)
    2060:	e5900000 	ldr	r0, [r0]
    2064:	e5d2e017 	ldrb	lr, [r2, #23]
    2068:	e5d0c0c3 	ldrb	ip, [r0, #195]	; 0xc3
    206c:	e15e000c 	cmp	lr, ip
    2070:	1a000011 	bne	20bc <RDMHandler::SetLanguage(bool, unsigned short)+0x7c>
    2074:	e5d2c018 	ldrb	ip, [r2, #24]
    2078:	e5d020c4 	ldrb	r2, [r0, #196]	; 0xc4
    207c:	e15c0002 	cmp	ip, r2
    2080:	1a00000d 	bne	20bc <RDMHandler::SetLanguage(bool, unsigned short)+0x7c>
    2084:	e3510000 	cmp	r1, #0
    2088:	149df004 	popne	{pc}		; (ldrne pc, [sp], #4)
    208c:	e5932008 	ldr	r2, [r3, #8]
    2090:	e1a00003 	mov	r0, r3
    2094:	e5c21017 	strb	r1, [r2, #23]
    2098:	e5932004 	ldr	r2, [r3, #4]
    209c:	e5d21016 	ldrb	r1, [r2, #22]
    20a0:	e3510000 	cmp	r1, #0
    20a4:	03a01018 	moveq	r1, #24
    20a8:	05c21001 	strbeq	r1, [r2, #1]
    20ac:	e3a02000 	mov	r2, #0
    20b0:	e49de004 	pop	{lr}		; (ldr lr, [sp], #4)
    20b4:	e1a01002 	mov	r1, r2
    20b8:	eafffffe 	b	1ac <RDMHandler::CreateRespondMessage(unsigned char, unsigned short)>
    20bc:	e49de004 	pop	{lr}		; (ldr lr, [sp], #4)
    20c0:	e3a02006 	mov	r2, #6
    20c4:	e3a01002 	mov	r1, #2
    20c8:	e1a00003 	mov	r0, r3
    20cc:	eafffffe 	b	1ac <RDMHandler::CreateRespondMessage(unsigned char, unsigned short)>
    20d0:	e3a02001 	mov	r2, #1
    20d4:	e3a01002 	mov	r1, #2
    20d8:	eafffffe 	b	1ac <RDMHandler::CreateRespondMessage(unsigned char, unsigned short)>

000020dc <RDMHandler::GetSensorValue(unsigned short)>:
    20dc:	e5903004 	ldr	r3, [r0, #4]
    20e0:	e5d32016 	ldrb	r2, [r3, #22]
    20e4:	e3520001 	cmp	r2, #1
    20e8:	1a000035 	bne	21c4 <RDMHandler::GetSensorValue(unsigned short)+0xe8>
    20ec:	e92d4070 	push	{r4, r5, r6, lr}
    20f0:	e1a04000 	mov	r4, r0
    20f4:	e5d35017 	ldrb	r5, [r3, #23]
    20f8:	e35500ff 	cmp	r5, #255	; 0xff
    20fc:	0a000005 	beq	2118 <RDMHandler::GetSensorValue(unsigned short)+0x3c>
    2100:	e3003000 	movw	r3, #0
    2104:	e3403000 	movt	r3, #0
    2108:	e5930000 	ldr	r0, [r3]
    210c:	e5d03004 	ldrb	r3, [r0, #4]
    2110:	e1530005 	cmp	r3, r5
    2114:	8a000004 	bhi	212c <RDMHandler::GetSensorValue(unsigned short)+0x50>
    2118:	e1a00004 	mov	r0, r4
    211c:	e3a02006 	mov	r2, #6
    2120:	e8bd4070 	pop	{r4, r5, r6, lr}
    2124:	e3a01002 	mov	r1, #2
    2128:	eafffffe 	b	1ac <RDMHandler::CreateRespondMessage(unsigned char, unsigned short)>
    212c:	e5946008 	ldr	r6, [r4, #8]
    2130:	e1a01005 	mov	r1, r5
    2134:	ebfffffe 	bl	0 <RDMSensors::GetValues(unsigned char)>
    2138:	e5d03008 	ldrb	r3, [r0, #8]
    213c:	e1530005 	cmp	r3, r5
    2140:	1afffff4 	bne	2118 <RDMHandler::GetSensorValue(unsigned short)+0x3c>
    2144:	e3a02009 	mov	r2, #9
    2148:	e3a03021 	mov	r3, #33	; 0x21
    214c:	e5c62017 	strb	r2, [r6, #23]
    2150:	e5c63002 	strb	r3, [r6, #2]
    2154:	e5d03008 	ldrb	r3, [r0, #8]
    2158:	e5c63018 	strb	r3, [r6, #24]
    215c:	e1d030d1 	ldrsb	r3, [r0, #1]
    2160:	e5c63019 	strb	r3, [r6, #25]
    2164:	e1d030b0 	ldrh	r3, [r0]
    2168:	e5c6301a 	strb	r3, [r6, #26]
    216c:	e1d030d3 	ldrsb	r3, [r0, #3]
    2170:	e5c6301b 	strb	r3, [r6, #27]
    2174:	e1d030b2 	ldrh	r3, [r0, #2]
    2178:	e5c6301c 	strb	r3, [r6, #28]
    217c:	e1d030d5 	ldrsb	r3, [r0, #5]
    2180:	e5c6301d 	strb	r3, [r6, #29]
    2184:	e1d030b4 	ldrh	r3, [r0, #4]
    2188:	e5c6301e 	strb	r3, [r6, #30]
    218c:	e1d030d7 	ldrsb	r3, [r0, #7]
    2190:	e5c6301f 	strb	r3, [r6, #31]
    2194:	e1d030b6 	ldrh	r3, [r0, #6]
    2198:	e1a00004 	mov	r0, r4
    219c:	e5c63020 	strb	r3, [r6, #32]
    21a0:	e5943004 	ldr	r3, [r4, #4]
    21a4:	e5d32016 	ldrb	r2, [r3, #22]
    21a8:	e3520000 	cmp	r2, #0
    21ac:	03a02018 	moveq	r2, #24
    21b0:	05c32001 	strbeq	r2, [r3, #1]
    21b4:	e3a02000 	mov	r2, #0
    21b8:	e8bd4070 	pop	{r4, r5, r6, lr}
    21bc:	e1a01002 	mov	r1, r2
    21c0:	eafffffe 	b	1ac <RDMHandler::CreateRespondMessage(unsigned char, unsigned short)>
    21c4:	e3a02001 	mov	r2, #1
    21c8:	e3a01002 	mov	r1, #2
    21cc:	eafffffe 	b	1ac <RDMHandler::CreateRespondMessage(unsigned char, unsigned short)>

000021d0 <RDMHandler::SetFactoryDefaults(bool, unsigned short)>:
    21d0:	e5903004 	ldr	r3, [r0, #4]
    21d4:	e5d33016 	ldrb	r3, [r3, #22]
    21d8:	e3530000 	cmp	r3, #0
    21dc:	1a000084 	bne	23f4 <RDMHandler::SetFactoryDefaults(bool, unsigned short)+0x224>
    21e0:	e3003000 	movw	r3, #0
    21e4:	e3403000 	movt	r3, #0
    21e8:	e92d41f0 	push	{r4, r5, r6, r7, r8, lr}
    21ec:	e1a05001 	mov	r5, r1
    21f0:	e5934000 	ldr	r4, [r3]
    21f4:	e1a06000 	mov	r6, r0
    21f8:	e5d43076 	ldrb	r3, [r4, #118]	; 0x76
    21fc:	e5d41004 	ldrb	r1, [r4, #4]
    2200:	e3530020 	cmp	r3, #32
    2204:	31a02003 	movcc	r2, r3
    2208:	23a02020 	movcs	r2, #32
    220c:	e3510000 	cmp	r1, #0
    2210:	e1a0c002 	mov	ip, r2
    2214:	1a000062 	bne	23a4 <RDMHandler::SetFactoryDefaults(bool, unsigned short)+0x1d4>
    2218:	e5d4c02f 	ldrb	ip, [r4, #47]	; 0x2f
    221c:	e5c42076 	strb	r2, [r4, #118]	; 0x76
    2220:	e35c0000 	cmp	ip, #0
    2224:	e6ff2072 	uxth	r2, r2
    2228:	0a000006 	beq	2248 <RDMHandler::SetFactoryDefaults(bool, unsigned short)+0x78>
    222c:	e284300e 	add	r3, r4, #14
    2230:	e083000c 	add	r0, r3, ip
    2234:	e5f31001 	ldrb	r1, [r3, #1]!
    2238:	e1500003 	cmp	r0, r3
    223c:	e0822001 	add	r2, r2, r1
    2240:	e6ff2072 	uxth	r2, r2
    2244:	1afffffa 	bne	2234 <RDMHandler::SetFactoryDefaults(bool, unsigned short)+0x64>
    2248:	e5943094 	ldr	r3, [r4, #148]	; 0x94
    224c:	e3a01001 	mov	r1, #1
    2250:	e5c410a9 	strb	r1, [r4, #169]	; 0xa9
    2254:	e5933000 	ldr	r3, [r3]
    2258:	e1c427b8 	strh	r2, [r4, #120]	; 0x78
    225c:	e5937004 	ldr	r7, [r3, #4]
    2260:	e3570000 	cmp	r7, #0
    2264:	0a000031 	beq	2330 <RDMHandler::SetFactoryDefaults(bool, unsigned short)+0x160>
    2268:	e5973000 	ldr	r3, [r7]
    226c:	e1a00007 	mov	r0, r7
    2270:	e5933030 	ldr	r3, [r3, #48]	; 0x30
    2274:	e12fff33 	blx	r3
    2278:	e1a00420 	lsr	r0, r0, #8
    227c:	e5c400a7 	strb	r0, [r4, #167]	; 0xa7
    2280:	e1a00007 	mov	r0, r7
    2284:	e5973000 	ldr	r3, [r7]
    2288:	e5933030 	ldr	r3, [r3, #48]	; 0x30
    228c:	e12fff33 	blx	r3
    2290:	e5c400a8 	strb	r0, [r4, #168]	; 0xa8
    2294:	e1a00007 	mov	r0, r7
    2298:	e5973000 	ldr	r3, [r7]
    229c:	e593302c 	ldr	r3, [r3, #44]	; 0x2c
    22a0:	e12fff33 	blx	r3
    22a4:	e1a00420 	lsr	r0, r0, #8
    22a8:	e5c400ab 	strb	r0, [r4, #171]	; 0xab
    22ac:	e1a00007 	mov	r0, r7
    22b0:	e5973000 	ldr	r3, [r7]
    22b4:	e593302c 	ldr	r3, [r3, #44]	; 0x2c
    22b8:	e12fff33 	blx	r3
    22bc:	e5943000 	ldr	r3, [r4]
    22c0:	e1a01007 	mov	r1, r7
    22c4:	e5c400ac 	strb	r0, [r4, #172]	; 0xac
    22c8:	e1a00004 	mov	r0, r4
    22cc:	e5933008 	ldr	r3, [r3, #8]
    22d0:	e12fff33 	blx	r3
    22d4:	e1d47cb8 	ldrh	r7, [r4, #200]	; 0xc8
    22d8:	e2473001 	sub	r3, r7, #1
    22dc:	e3530c02 	cmp	r3, #512	; 0x200
    22e0:	2a000012 	bcs	2330 <RDMHandler::SetFactoryDefaults(bool, unsigned short)+0x160>
    22e4:	e5d430a9 	ldrb	r3, [r4, #169]	; 0xa9
    22e8:	e5942094 	ldr	r2, [r4, #148]	; 0x94
    22ec:	e2433107 	sub	r3, r3, #-1073741823	; 0xc0000001
    22f0:	e7923103 	ldr	r3, [r2, r3, lsl #2]
    22f4:	e5930004 	ldr	r0, [r3, #4]
    22f8:	e3500000 	cmp	r0, #0
    22fc:	0a00000b 	beq	2330 <RDMHandler::SetFactoryDefaults(bool, unsigned short)+0x160>
    2300:	e5903000 	ldr	r3, [r0]
    2304:	e1a01007 	mov	r1, r7
    2308:	e5933028 	ldr	r3, [r3, #40]	; 0x28
    230c:	e12fff33 	blx	r3
    2310:	e3500000 	cmp	r0, #0
    2314:	e1a00004 	mov	r0, r4
    2318:	11a03427 	lsrne	r3, r7, #8
    231c:	15c430ab 	strbne	r3, [r4, #171]	; 0xab
    2320:	e5943000 	ldr	r3, [r4]
    2324:	15c470ac 	strbne	r7, [r4, #172]	; 0xac
    2328:	e593300c 	ldr	r3, [r3, #12]
    232c:	e12fff33 	blx	r3
    2330:	e284309d 	add	r3, r4, #157	; 0x9d
    2334:	e28410b0 	add	r1, r4, #176	; 0xb0
    2338:	e4d32001 	ldrb	r2, [r3], #1
    233c:	e1530001 	cmp	r3, r1
    2340:	e5c32012 	strb	r2, [r3, #18]
    2344:	1afffffb 	bne	2338 <RDMHandler::SetFactoryDefaults(bool, unsigned short)+0x168>
    2348:	e284008c 	add	r0, r4, #140	; 0x8c
    234c:	ebfffffe 	bl	0 <RDMSubDevices::SetFactoryDefaults()>
    2350:	e5d420a9 	ldrb	r2, [r4, #169]	; 0xa9
    2354:	e5d430ac 	ldrb	r3, [r4, #172]	; 0xac
    2358:	e0833002 	add	r3, r3, r2
    235c:	e3a02001 	mov	r2, #1
    2360:	e1c43cb6 	strh	r3, [r4, #198]	; 0xc6
    2364:	e5c420c5 	strb	r2, [r4, #197]	; 0xc5
    2368:	ebfffffe 	bl	0 <rdm::device::responder::factorydefaults()>
    236c:	e3550000 	cmp	r5, #0
    2370:	18bd81f0 	popne	{r4, r5, r6, r7, r8, pc}
    2374:	e5963008 	ldr	r3, [r6, #8]
    2378:	e1a00006 	mov	r0, r6
    237c:	e5c35017 	strb	r5, [r3, #23]
    2380:	e5963004 	ldr	r3, [r6, #4]
    2384:	e5d32016 	ldrb	r2, [r3, #22]
    2388:	e3520000 	cmp	r2, #0
    238c:	03a02018 	moveq	r2, #24
    2390:	05c32001 	strbeq	r2, [r3, #1]
    2394:	e3a02000 	mov	r2, #0
    2398:	e8bd41f0 	pop	{r4, r5, r6, r7, r8, lr}
    239c:	e1a01002 	mov	r1, r2
    23a0:	eafffffe 	b	1ac <RDMHandler::CreateRespondMessage(unsigned char, unsigned short)>
    23a4:	e3530000 	cmp	r3, #0
    23a8:	e284100f 	add	r1, r4, #15
    23ac:	1282e056 	addne	lr, r2, #86	; 0x56
    23b0:	12843056 	addne	r3, r4, #86	; 0x56
    23b4:	16e4e07e 	uxtabne	lr, r4, lr
    23b8:	0a000003 	beq	23cc <RDMHandler::SetFactoryDefaults(bool, unsigned short)+0x1fc>
    23bc:	e4d30001 	ldrb	r0, [r3], #1
    23c0:	e153000e 	cmp	r3, lr
    23c4:	e5430048 	strb	r0, [r3, #-72]	; 0xffffffb8
    23c8:	1afffffb 	bne	23bc <RDMHandler::SetFactoryDefaults(bool, unsigned short)+0x1ec>
    23cc:	e594007c 	ldr	r0, [r4, #124]	; 0x7c
    23d0:	e5c4202f 	strb	r2, [r4, #47]	; 0x2f
    23d4:	e3500000 	cmp	r0, #0
    23d8:	0a000008 	beq	2400 <RDMHandler::SetFactoryDefaults(bool, unsigned short)+0x230>
    23dc:	e5903000 	ldr	r3, [r0]
    23e0:	e5933008 	ldr	r3, [r3, #8]
    23e4:	e12fff33 	blx	r3
    23e8:	e5d42076 	ldrb	r2, [r4, #118]	; 0x76
    23ec:	e5d4c02f 	ldrb	ip, [r4, #47]	; 0x2f
    23f0:	eaffff8a 	b	2220 <RDMHandler::SetFactoryDefaults(bool, unsigned short)+0x50>
    23f4:	e3a02001 	mov	r2, #1
    23f8:	e3a01002 	mov	r1, #2
    23fc:	eafffffe 	b	1ac <RDMHandler::CreateRespondMessage(unsigned char, unsigned short)>
    2400:	e5d42076 	ldrb	r2, [r4, #118]	; 0x76
    2404:	eaffff85 	b	2220 <RDMHandler::SetFactoryDefaults(bool, unsigned short)+0x50>

00002408 <RDMHandler::SetSensorValue(bool, unsigned short)>:
    2408:	e5903004 	ldr	r3, [r0, #4]
    240c:	e5d32016 	ldrb	r2, [r3, #22]
    2410:	e3520001 	cmp	r2, #1
    2414:	1a000035 	bne	24f0 <RDMHandler::SetSensorValue(bool, unsigned short)+0xe8>
    2418:	e92d41f0 	push	{r4, r5, r6, r7, r8, lr}
    241c:	e3006000 	movw	r6, #0
    2420:	e5d37017 	ldrb	r7, [r3, #23]
    2424:	e1a04000 	mov	r4, r0
    2428:	e3406000 	movt	r6, #0
    242c:	e1a05001 	mov	r5, r1
    2430:	e35700ff 	cmp	r7, #255	; 0xff
    2434:	e5963000 	ldr	r3, [r6]
    2438:	0a000033 	beq	250c <RDMHandler::SetSensorValue(bool, unsigned short)+0x104>
    243c:	e5d32004 	ldrb	r2, [r3, #4]
    2440:	e1520007 	cmp	r2, r7
    2444:	9a00002c 	bls	24fc <RDMHandler::SetSensorValue(bool, unsigned short)+0xf4>
    2448:	e1a00003 	mov	r0, r3
    244c:	e1a01007 	mov	r1, r7
    2450:	ebfffffe 	bl	0 <RDMSensors::SetValues(unsigned char)>
    2454:	e3550000 	cmp	r5, #0
    2458:	18bd81f0 	popne	{r4, r5, r6, r7, r8, pc}
    245c:	e5945008 	ldr	r5, [r4, #8]
    2460:	e1a01007 	mov	r1, r7
    2464:	e5960000 	ldr	r0, [r6]
    2468:	ebfffffe 	bl	0 <RDMSensors::GetValues(unsigned char)>
    246c:	e3a03009 	mov	r3, #9
    2470:	e5c53017 	strb	r3, [r5, #23]
    2474:	e3a03021 	mov	r3, #33	; 0x21
    2478:	e5c53002 	strb	r3, [r5, #2]
    247c:	e5d03008 	ldrb	r3, [r0, #8]
    2480:	e5c53018 	strb	r3, [r5, #24]
    2484:	e1d030d1 	ldrsb	r3, [r0, #1]
    2488:	e5c53019 	strb	r3, [r5, #25]
    248c:	e1d030b0 	ldrh	r3, [r0]
    2490:	e5c5301a 	strb	r3, [r5, #26]
    2494:	e1d030d3 	ldrsb	r3, [r0, #3]
    2498:	e5c5301b 	strb	r3, [r5, #27]
    249c:	e1d030b2 	ldrh	r3, [r0, #2]
    24a0:	e5c5301c 	strb	r3, [r5, #28]
    24a4:	e1d030d5 	ldrsb	r3, [r0, #5]
    24a8:	e5c5301d 	strb	r3, [r5, #29]
    24ac:	e1d030b4 	ldrh	r3, [r0, #4]
    24b0:	e5c5301e 	strb	r3, [r5, #30]
    24b4:	e1d030d7 	ldrsb	r3, [r0, #7]
    24b8:	e5c5301f 	strb	r3, [r5, #31]
    24bc:	e1d030b6 	ldrh	r3, [r0, #6]
    24c0:	e5c53020 	strb	r3, [r5, #32]
    24c4:	e5943004 	ldr	r3, [r4, #4]
    24c8:	e5d32016 	ldrb	r2, [r3, #22]
    24cc:	e3520000 	cmp	r2, #0
    24d0:	1a000001 	bne	24dc <RDMHandler::SetSensorValue(bool, unsigned short)+0xd4>
    24d4:	e3a02018 	mov	r2, #24
    24d8:	e5c32001 	strb	r2, [r3, #1]
    24dc:	e3a02000 	mov	r2, #0
    24e0:	e1a00004 	mov	r0, r4
    24e4:	e1a01002 	mov	r1, r2
    24e8:	e8bd41f0 	pop	{r4, r5, r6, r7, r8, lr}
    24ec:	eafffffe 	b	1ac <RDMHandler::CreateRespondMessage(unsigned char, unsigned short)>
    24f0:	e3a02001 	mov	r2, #1
    24f4:	e3a01002 	mov	r1, #2
    24f8:	eafffffe 	b	1ac <RDMHandler::CreateRespondMessage(unsigned char, unsigned short)>
    24fc:	e8bd41f0 	pop	{r4, r5, r6, r7, r8, lr}
    2500:	e3a02006 	mov	r2, #6
    2504:	e3a01002 	mov	r1, #2
    2508:	eafffffe 	b	1ac <RDMHandler::CreateRespondMessage(unsigned char, unsigned short)>
    250c:	e1a01007 	mov	r1, r7
    2510:	e1a00003 	mov	r0, r3
    2514:	ebfffffe 	bl	0 <RDMSensors::SetValues(unsigned char)>
    2518:	e3550000 	cmp	r5, #0
    251c:	18bd81f0 	popne	{r4, r5, r6, r7, r8, pc}
    2520:	e5943008 	ldr	r3, [r4, #8]
    2524:	e3a02009 	mov	r2, #9
    2528:	e5c32017 	strb	r2, [r3, #23]
    252c:	e3a02021 	mov	r2, #33	; 0x21
    2530:	e5c32002 	strb	r2, [r3, #2]
    2534:	e5c35018 	strb	r5, [r3, #24]
    2538:	e5c35019 	strb	r5, [r3, #25]
    253c:	e5c3501a 	strb	r5, [r3, #26]
    2540:	e5c3501b 	strb	r5, [r3, #27]
    2544:	e5c3501c 	strb	r5, [r3, #28]
    2548:	e5c3501d 	strb	r5, [r3, #29]
    254c:	e5c3501e 	strb	r5, [r3, #30]
    2550:	e5c3501f 	strb	r5, [r3, #31]
    2554:	e5c35020 	strb	r5, [r3, #32]
    2558:	e5943004 	ldr	r3, [r4, #4]
    255c:	e5d32016 	ldrb	r2, [r3, #22]
    2560:	e3520000 	cmp	r2, #0
    2564:	0affffda 	beq	24d4 <RDMHandler::SetSensorValue(bool, unsigned short)+0xcc>
    2568:	eaffffdb 	b	24dc <RDMHandler::SetSensorValue(bool, unsigned short)+0xd4>

0000256c <RDMHandler::RespondMessageAck()>:
    256c:	e5903004 	ldr	r3, [r0, #4]
    2570:	e5d32016 	ldrb	r2, [r3, #22]
    2574:	e3520000 	cmp	r2, #0
    2578:	03a02018 	moveq	r2, #24
    257c:	05c32001 	strbeq	r2, [r3, #1]
    2580:	e3a02000 	mov	r2, #0
    2584:	e1a01002 	mov	r1, r2
    2588:	eafffffe 	b	1ac <RDMHandler::CreateRespondMessage(unsigned char, unsigned short)>

0000258c <RDMHandler::RespondMessageNack(unsigned short)>:
    258c:	e1a02001 	mov	r2, r1
    2590:	e3a01002 	mov	r1, #2
    2594:	eafffffe 	b	1ac <RDMHandler::CreateRespondMessage(unsigned char, unsigned short)>

00002598 <RDMHandler::Handlers(bool, unsigned char, unsigned short, unsigned char, unsigned short)>:
    2598:	e92d40f0 	push	{r4, r5, r6, r7, lr}
    259c:	e1a05002 	mov	r5, r2
    25a0:	e5dd7014 	ldrb	r7, [sp, #20]
    25a4:	e20220ef 	and	r2, r2, #239	; 0xef
    25a8:	e1dd61b8 	ldrh	r6, [sp, #24]
    25ac:	e3520020 	cmp	r2, #32
    25b0:	1a00002d 	bne	266c <RDMHandler::Handlers(bool, unsigned char, unsigned short, unsigned char, unsigned short)+0xd4>
    25b4:	e300c000 	movw	ip, #0
    25b8:	e340c000 	movt	ip, #0
    25bc:	e59c2000 	ldr	r2, [ip]
    25c0:	e1d2c0b4 	ldrh	ip, [r2, #4]
    25c4:	e30f2fff 	movw	r2, #65535	; 0xffff
    25c8:	e1560002 	cmp	r6, r2
    25cc:	115c0006 	cmpne	ip, r6
    25d0:	3a00002e 	bcc	2690 <RDMHandler::Handlers(bool, unsigned char, unsigned short, unsigned char, unsigned short)+0xf8>
    25d4:	e59fc144 	ldr	ip, [pc, #324]	; 2720 <RDMHandler::Handlers(bool, unsigned char, unsigned short, unsigned char, unsigned short)+0x188>
    25d8:	e3a0e060 	mov	lr, #96	; 0x60
    25dc:	e28c4fa2 	add	r4, ip, #648	; 0x288
    25e0:	ea000002 	b	25f0 <RDMHandler::Handlers(bool, unsigned char, unsigned short, unsigned char, unsigned short)+0x58>
    25e4:	e154000c 	cmp	r4, ip
    25e8:	0a000018 	beq	2650 <RDMHandler::Handlers(bool, unsigned char, unsigned short, unsigned char, unsigned short)+0xb8>
    25ec:	e1fce1b8 	ldrh	lr, [ip, #24]!
    25f0:	e15e0003 	cmp	lr, r3
    25f4:	1afffffa 	bne	25e4 <RDMHandler::Handlers(bool, unsigned char, unsigned short, unsigned char, unsigned short)+0x4c>
    25f8:	e5d03000 	ldrb	r3, [r0]
    25fc:	e5dce016 	ldrb	lr, [ip, #22]
    2600:	e5dc2017 	ldrb	r2, [ip, #23]
    2604:	e3530000 	cmp	r3, #0
    2608:	1a00000e 	bne	2648 <RDMHandler::Handlers(bool, unsigned char, unsigned short, unsigned char, unsigned short)+0xb0>
    260c:	e3520000 	cmp	r2, #0
    2610:	0a00000e 	beq	2650 <RDMHandler::Handlers(bool, unsigned char, unsigned short, unsigned char, unsigned short)+0xb8>
    2614:	e3550020 	cmp	r5, #32
    2618:	0a000020 	beq	26a0 <RDMHandler::Handlers(bool, unsigned char, unsigned short, unsigned char, unsigned short)+0x108>
    261c:	e59c300c 	ldr	r3, [ip, #12]
    2620:	e59c2010 	ldr	r2, [ip, #16]
    2624:	e3530000 	cmp	r3, #0
    2628:	e202c001 	and	ip, r2, #1
    262c:	0a00000b 	beq	2660 <RDMHandler::Handlers(bool, unsigned char, unsigned short, unsigned char, unsigned short)+0xc8>
    2630:	e08000c2 	add	r0, r0, r2, asr #1
    2634:	e35c0000 	cmp	ip, #0
    2638:	1a00000f 	bne	267c <RDMHandler::Handlers(bool, unsigned char, unsigned short, unsigned char, unsigned short)+0xe4>
    263c:	e1a02006 	mov	r2, r6
    2640:	e8bd40f0 	pop	{r4, r5, r6, r7, lr}
    2644:	e12fff13 	bx	r3
    2648:	e35e0000 	cmp	lr, #0
    264c:	1afffff0 	bne	2614 <RDMHandler::Handlers(bool, unsigned char, unsigned short, unsigned char, unsigned short)+0x7c>
    2650:	e8bd40f0 	pop	{r4, r5, r6, r7, lr}
    2654:	e3a02000 	mov	r2, #0
    2658:	e3a01002 	mov	r1, #2
    265c:	eafffffe 	b	1ac <RDMHandler::CreateRespondMessage(unsigned char, unsigned short)>
    2660:	e35c0000 	cmp	ip, #0
    2664:	108000c2 	addne	r0, r0, r2, asr #1
    2668:	1a000003 	bne	267c <RDMHandler::Handlers(bool, unsigned char, unsigned short, unsigned char, unsigned short)+0xe4>
    266c:	e8bd40f0 	pop	{r4, r5, r6, r7, lr}
    2670:	e3a02005 	mov	r2, #5
    2674:	e3a01002 	mov	r1, #2
    2678:	eafffffe 	b	1ac <RDMHandler::CreateRespondMessage(unsigned char, unsigned short)>
    267c:	e5902000 	ldr	r2, [r0]
    2680:	e7923003 	ldr	r3, [r2, r3]
    2684:	e1a02006 	mov	r2, r6
    2688:	e8bd40f0 	pop	{r4, r5, r6, r7, lr}
    268c:	e12fff13 	bx	r3
    2690:	e8bd40f0 	pop	{r4, r5, r6, r7, lr}
    2694:	e3a02009 	mov	r2, #9
    2698:	e3a01002 	mov	r1, #2
    269c:	eafffffe 	b	1ac <RDMHandler::CreateRespondMessage(unsigned char, unsigned short)>
    26a0:	e3510000 	cmp	r1, #0
    26a4:	18bd80f0 	popne	{r4, r5, r6, r7, pc}
    26a8:	e30f3fff 	movw	r3, #65535	; 0xffff
    26ac:	e1560003 	cmp	r6, r3
    26b0:	0afffff6 	beq	2690 <RDMHandler::Handlers(bool, unsigned char, unsigned short, unsigned char, unsigned short)+0xf8>
    26b4:	e59c2004 	ldr	r2, [ip, #4]
    26b8:	e3520000 	cmp	r2, #0
    26bc:	0a000009 	beq	26e8 <RDMHandler::Handlers(bool, unsigned char, unsigned short, unsigned char, unsigned short)+0x150>
    26c0:	e5dc3014 	ldrb	r3, [ip, #20]
    26c4:	e1530007 	cmp	r3, r7
    26c8:	1a00000d 	bne	2704 <RDMHandler::Handlers(bool, unsigned char, unsigned short, unsigned char, unsigned short)+0x16c>
    26cc:	e59c3008 	ldr	r3, [ip, #8]
    26d0:	e08000c3 	add	r0, r0, r3, asr #1
    26d4:	e3130001 	tst	r3, #1
    26d8:	1a00000d 	bne	2714 <RDMHandler::Handlers(bool, unsigned char, unsigned short, unsigned char, unsigned short)+0x17c>
    26dc:	e1a01006 	mov	r1, r6
    26e0:	e8bd40f0 	pop	{r4, r5, r6, r7, lr}
    26e4:	e12fff12 	bx	r2
    26e8:	e59c3008 	ldr	r3, [ip, #8]
    26ec:	e3130001 	tst	r3, #1
    26f0:	0affffdd 	beq	266c <RDMHandler::Handlers(bool, unsigned char, unsigned short, unsigned char, unsigned short)+0xd4>
    26f4:	e5dc1014 	ldrb	r1, [ip, #20]
    26f8:	e1510007 	cmp	r1, r7
    26fc:	008000c3 	addeq	r0, r0, r3, asr #1
    2700:	0a000003 	beq	2714 <RDMHandler::Handlers(bool, unsigned char, unsigned short, unsigned char, unsigned short)+0x17c>
    2704:	e8bd40f0 	pop	{r4, r5, r6, r7, lr}
    2708:	e3a02001 	mov	r2, #1
    270c:	e3a01002 	mov	r1, #2
    2710:	eafffffe 	b	1ac <RDMHandler::CreateRespondMessage(unsigned char, unsigned short)>
    2714:	e5903000 	ldr	r3, [r0]
    2718:	e7932002 	ldr	r2, [r3, r2]
    271c:	eaffffee 	b	26dc <RDMHandler::Handlers(bool, unsigned char, unsigned short, unsigned char, unsigned short)+0x144>
    2720:	000000c0 	andeq	r0, r0, r0, asr #1

00002724 <RDMHandler::HandleData(unsigned char const*, unsigned char*)>:
    2724:	e3e03000 	mvn	r3, #0
    2728:	e5c23000 	strb	r3, [r2]
    272c:	e5d1300f 	ldrb	r3, [r1, #15]
    2730:	e5801004 	str	r1, [r0, #4]
    2734:	e5802008 	str	r2, [r0, #8]
    2738:	e3530000 	cmp	r3, #0
    273c:	012fff1e 	bxeq	lr
    2740:	e5d13010 	ldrb	r3, [r1, #16]
    2744:	e3530000 	cmp	r3, #0
    2748:	112fff1e 	bxne	lr
    274c:	e3003000 	movw	r3, #0
    2750:	e3a0c0ff 	mov	ip, #255	; 0xff
    2754:	e92d40f0 	push	{r4, r5, r6, r7, lr}
    2758:	e2815008 	add	r5, r1, #8
    275c:	e3403000 	movt	r3, #0
    2760:	e24dd00c 	sub	sp, sp, #12
    2764:	e59f62dc 	ldr	r6, [pc, #732]	; 2a48 <RDMHandler::HandleData(unsigned char const*, unsigned char*)+0x324>
    2768:	e5937000 	ldr	r7, [r3]
    276c:	e2813002 	add	r3, r1, #2
    2770:	e1a04006 	mov	r4, r6
    2774:	ea000002 	b	2784 <RDMHandler::HandleData(unsigned char const*, unsigned char*)+0x60>
    2778:	e1530005 	cmp	r3, r5
    277c:	0a000025 	beq	2818 <RDMHandler::HandleData(unsigned char const*, unsigned char*)+0xf4>
    2780:	e5f4c001 	ldrb	ip, [r4, #1]!
    2784:	e4d3e001 	ldrb	lr, [r3], #1
    2788:	e15e000c 	cmp	lr, ip
    278c:	0afffff9 	beq	2778 <RDMHandler::HandleData(unsigned char const*, unsigned char*)+0x54>
    2790:	e5d7c005 	ldrb	ip, [r7, #5]
    2794:	e5d13002 	ldrb	r3, [r1, #2]
    2798:	e15c0003 	cmp	ip, r3
    279c:	1a000030 	bne	2864 <RDMHandler::HandleData(unsigned char const*, unsigned char*)+0x140>
    27a0:	e5d1c003 	ldrb	ip, [r1, #3]
    27a4:	e5d73006 	ldrb	r3, [r7, #6]
    27a8:	e15c0003 	cmp	ip, r3
    27ac:	1a00002c 	bne	2864 <RDMHandler::HandleData(unsigned char const*, unsigned char*)+0x140>
    27b0:	e286c001 	add	ip, r6, #1
    27b4:	e2816004 	add	r6, r1, #4
    27b8:	e1a03006 	mov	r3, r6
    27bc:	e3a040ff 	mov	r4, #255	; 0xff
    27c0:	ea000002 	b	27d0 <RDMHandler::HandleData(unsigned char const*, unsigned char*)+0xac>
    27c4:	e1530005 	cmp	r3, r5
    27c8:	0a000012 	beq	2818 <RDMHandler::HandleData(unsigned char const*, unsigned char*)+0xf4>
    27cc:	e4dc4001 	ldrb	r4, [ip], #1
    27d0:	e4d3e001 	ldrb	lr, [r3], #1
    27d4:	e15e0004 	cmp	lr, r4
    27d8:	0afffff9 	beq	27c4 <RDMHandler::HandleData(unsigned char const*, unsigned char*)+0xa0>
    27dc:	e04ee004 	sub	lr, lr, r4
    27e0:	e35e0000 	cmp	lr, #0
    27e4:	03a04001 	moveq	r4, #1
    27e8:	13a04000 	movne	r4, #0
    27ec:	12873007 	addne	r3, r7, #7
    27f0:	1a000002 	bne	2800 <RDMHandler::HandleData(unsigned char const*, unsigned char*)+0xdc>
    27f4:	ea000005 	b	2810 <RDMHandler::HandleData(unsigned char const*, unsigned char*)+0xec>
    27f8:	e1560005 	cmp	r6, r5
    27fc:	0a00008f 	beq	2a40 <RDMHandler::HandleData(unsigned char const*, unsigned char*)+0x31c>
    2800:	e4d6e001 	ldrb	lr, [r6], #1
    2804:	e4d3c001 	ldrb	ip, [r3], #1
    2808:	e15e000c 	cmp	lr, ip
    280c:	0afffff9 	beq	27f8 <RDMHandler::HandleData(unsigned char const*, unsigned char*)+0xd4>
    2810:	e3a0c000 	mov	ip, #0
    2814:	ea000001 	b	2820 <RDMHandler::HandleData(unsigned char const*, unsigned char*)+0xfc>
    2818:	e3a0c000 	mov	ip, #0
    281c:	e3a04001 	mov	r4, #1
    2820:	e5d1e013 	ldrb	lr, [r1, #19]
    2824:	e5d15014 	ldrb	r5, [r1, #20]
    2828:	e5d13015 	ldrb	r3, [r1, #21]
    282c:	e35e0010 	cmp	lr, #16
    2830:	e0833405 	add	r3, r3, r5, lsl #8
    2834:	e6ff3073 	uxth	r3, r3
    2838:	0a00000b 	beq	286c <RDMHandler::HandleData(unsigned char const*, unsigned char*)+0x148>
    283c:	e5d12011 	ldrb	r2, [r1, #17]
    2840:	e5d1c012 	ldrb	ip, [r1, #18]
    2844:	e08cc402 	add	ip, ip, r2, lsl #8
    2848:	e5d12016 	ldrb	r2, [r1, #22]
    284c:	e6ff107c 	uxth	r1, ip
    2850:	e58d1004 	str	r1, [sp, #4]
    2854:	e1a01004 	mov	r1, r4
    2858:	e58d2000 	str	r2, [sp]
    285c:	e1a0200e 	mov	r2, lr
    2860:	ebfffffe 	bl	2598 <RDMHandler::Handlers(bool, unsigned char, unsigned short, unsigned char, unsigned short)>
    2864:	e28dd00c 	add	sp, sp, #12
    2868:	e8bd80f0 	pop	{r4, r5, r6, r7, pc}
    286c:	e3530001 	cmp	r3, #1
    2870:	0a00001f 	beq	28f4 <RDMHandler::HandleData(unsigned char const*, unsigned char*)+0x1d0>
    2874:	e3530003 	cmp	r3, #3
    2878:	0a00005e 	beq	29f8 <RDMHandler::HandleData(unsigned char const*, unsigned char*)+0x2d4>
    287c:	e3530002 	cmp	r3, #2
    2880:	1afffff7 	bne	2864 <RDMHandler::HandleData(unsigned char const*, unsigned char*)+0x140>
    2884:	e5d11016 	ldrb	r1, [r1, #22]
    2888:	e3510000 	cmp	r1, #0
    288c:	1afffff4 	bne	2864 <RDMHandler::HandleData(unsigned char const*, unsigned char*)+0x140>
    2890:	e2244001 	eor	r4, r4, #1
    2894:	e11c0004 	tst	ip, r4
    2898:	e3a0c001 	mov	ip, #1
    289c:	e5c0c001 	strb	ip, [r0, #1]
    28a0:	0affffef 	beq	2864 <RDMHandler::HandleData(unsigned char const*, unsigned char*)+0x140>
    28a4:	e5c23017 	strb	r3, [r2, #23]
    28a8:	e300c000 	movw	ip, #0
    28ac:	e340c000 	movt	ip, #0
    28b0:	e5c21019 	strb	r1, [r2, #25]
    28b4:	e59cc000 	ldr	ip, [ip]
    28b8:	e5c21018 	strb	r1, [r2, #24]
    28bc:	e1dcc0b4 	ldrh	ip, [ip, #4]
    28c0:	e35c0000 	cmp	ip, #0
    28c4:	01a03001 	moveq	r3, r1
    28c8:	e5c23019 	strb	r3, [r2, #25]
    28cc:	e5903004 	ldr	r3, [r0, #4]
    28d0:	e5d32016 	ldrb	r2, [r3, #22]
    28d4:	e3520000 	cmp	r2, #0
    28d8:	03a02018 	moveq	r2, #24
    28dc:	05c32001 	strbeq	r2, [r3, #1]
    28e0:	e3a02000 	mov	r2, #0
    28e4:	e1a01002 	mov	r1, r2
    28e8:	e28dd00c 	add	sp, sp, #12
    28ec:	e8bd40f0 	pop	{r4, r5, r6, r7, lr}
    28f0:	eafffffe 	b	1ac <RDMHandler::CreateRespondMessage(unsigned char, unsigned short)>
    28f4:	e5d03001 	ldrb	r3, [r0, #1]
    28f8:	e3530000 	cmp	r3, #0
    28fc:	1affffd8 	bne	2864 <RDMHandler::HandleData(unsigned char const*, unsigned char*)+0x140>
    2900:	e2874005 	add	r4, r7, #5
    2904:	e2813017 	add	r3, r1, #23
    2908:	e1a0c004 	mov	ip, r4
    290c:	e281101d 	add	r1, r1, #29
    2910:	ea000001 	b	291c <RDMHandler::HandleData(unsigned char const*, unsigned char*)+0x1f8>
    2914:	e1510003 	cmp	r1, r3
    2918:	0a000006 	beq	2938 <RDMHandler::HandleData(unsigned char const*, unsigned char*)+0x214>
    291c:	e4d30001 	ldrb	r0, [r3], #1
    2920:	e4dce001 	ldrb	lr, [ip], #1
    2924:	e150000e 	cmp	r0, lr
    2928:	0afffff9 	beq	2914 <RDMHandler::HandleData(unsigned char const*, unsigned char*)+0x1f0>
    292c:	e040000e 	sub	r0, r0, lr
    2930:	e3500000 	cmp	r0, #0
    2934:	caffffca 	bgt	2864 <RDMHandler::HandleData(unsigned char const*, unsigned char*)+0x140>
    2938:	e287700b 	add	r7, r7, #11
    293c:	e1a03004 	mov	r3, r4
    2940:	ea000001 	b	294c <RDMHandler::HandleData(unsigned char const*, unsigned char*)+0x228>
    2944:	e1530007 	cmp	r3, r7
    2948:	0a000006 	beq	2968 <RDMHandler::HandleData(unsigned char const*, unsigned char*)+0x244>
    294c:	e4d30001 	ldrb	r0, [r3], #1
    2950:	e4d1c001 	ldrb	ip, [r1], #1
    2954:	e150000c 	cmp	r0, ip
    2958:	0afffff9 	beq	2944 <RDMHandler::HandleData(unsigned char const*, unsigned char*)+0x220>
    295c:	e040000c 	sub	r0, r0, ip
    2960:	e3500000 	cmp	r0, #0
    2964:	caffffbe 	bgt	2864 <RDMHandler::HandleData(unsigned char const*, unsigned char*)+0x140>
    2968:	e3e03001 	mvn	r3, #1
    296c:	e1a01002 	mov	r1, r2
    2970:	e5c23000 	strb	r3, [r2]
    2974:	e3e0c055 	mvn	ip, #85	; 0x55
    2978:	e5c23001 	strb	r3, [r2, #1]
    297c:	e5c23002 	strb	r3, [r2, #2]
    2980:	e5c23003 	strb	r3, [r2, #3]
    2984:	e5c23004 	strb	r3, [r2, #4]
    2988:	e5c23005 	strb	r3, [r2, #5]
    298c:	e5c23006 	strb	r3, [r2, #6]
    2990:	e30035fa 	movw	r3, #1530	; 0x5fa
    2994:	e5c2c007 	strb	ip, [r2, #7]
    2998:	e5d40000 	ldrb	r0, [r4]
    299c:	e2811002 	add	r1, r1, #2
    29a0:	e180000c 	orr	r0, r0, ip
    29a4:	e5c10006 	strb	r0, [r1, #6]
    29a8:	e4d40001 	ldrb	r0, [r4], #1
    29ac:	e1540007 	cmp	r4, r7
    29b0:	e3800055 	orr	r0, r0, #85	; 0x55
    29b4:	e5c10007 	strb	r0, [r1, #7]
    29b8:	e5540001 	ldrb	r0, [r4, #-1]
    29bc:	e0833000 	add	r3, r3, r0
    29c0:	e3e00055 	mvn	r0, #85	; 0x55
    29c4:	e6ff3073 	uxth	r3, r3
    29c8:	1afffff2 	bne	2998 <RDMHandler::HandleData(unsigned char const*, unsigned char*)+0x274>
    29cc:	e1a01423 	lsr	r1, r3, #8
    29d0:	e6ef3073 	uxtb	r3, r3
    29d4:	e181c000 	orr	ip, r1, r0
    29d8:	e3811055 	orr	r1, r1, #85	; 0x55
    29dc:	e1830000 	orr	r0, r3, r0
    29e0:	e3833055 	orr	r3, r3, #85	; 0x55
    29e4:	e5c20016 	strb	r0, [r2, #22]
    29e8:	e5c2c014 	strb	ip, [r2, #20]
    29ec:	e5c21015 	strb	r1, [r2, #21]
    29f0:	e5c23017 	strb	r3, [r2, #23]
    29f4:	eaffff9a 	b	2864 <RDMHandler::HandleData(unsigned char const*, unsigned char*)+0x140>
    29f8:	e5d13016 	ldrb	r3, [r1, #22]
    29fc:	e3530000 	cmp	r3, #0
    2a00:	1affff97 	bne	2864 <RDMHandler::HandleData(unsigned char const*, unsigned char*)+0x140>
    2a04:	e5c03001 	strb	r3, [r0, #1]
    2a08:	e2244001 	eor	r4, r4, #1
    2a0c:	e11c0004 	tst	ip, r4
    2a10:	0affff93 	beq	2864 <RDMHandler::HandleData(unsigned char const*, unsigned char*)+0x140>
    2a14:	e5c23019 	strb	r3, [r2, #25]
    2a18:	e3001000 	movw	r1, #0
    2a1c:	e3401000 	movt	r1, #0
    2a20:	e3a0c002 	mov	ip, #2
    2a24:	e5c23018 	strb	r3, [r2, #24]
    2a28:	e5911000 	ldr	r1, [r1]
    2a2c:	e5c2c017 	strb	ip, [r2, #23]
    2a30:	e1d110b4 	ldrh	r1, [r1, #4]
    2a34:	e3510000 	cmp	r1, #0
    2a38:	11a0300c 	movne	r3, ip
    2a3c:	eaffffa1 	b	28c8 <RDMHandler::HandleData(unsigned char const*, unsigned char*)+0x1a4>
    2a40:	e3a0c001 	mov	ip, #1
    2a44:	eaffff75 	b	2820 <RDMHandler::HandleData(unsigned char const*, unsigned char*)+0xfc>
    2a48:	00000360 	andeq	r0, r0, r0, ror #6

Disassembly of section .text._ZN10DisplaySet8SetSleepEb:

00000000 <DisplaySet::SetSleep(bool)>:
   0:	e12fff1e 	bx	lr

Disassembly of section .text._ZN10DisplaySet11SetContrastEh:

00000000 <DisplaySet::SetContrast(unsigned char)>:
   0:	e12fff1e 	bx	lr

Disassembly of section .text._ZN10DisplaySet17SetFlipVerticallyEb:

00000000 <DisplaySet::SetFlipVertically(bool)>:
   0:	e12fff1e 	bx	lr

Disassembly of section .rodata:

00000000 <RDMHandler::PID_DEFINITIONS_SUB_DEVICES>:
   0:	00000060 	andeq	r0, r0, r0, rrx
	...
  14:	00010100 	andeq	r0, r1, r0, lsl #2
  18:	000000c0 	andeq	r0, r0, r0, asr #1
	...
  2c:	00010100 	andeq	r0, r1, r0, lsl #2
  30:	00001000 	andeq	r1, r0, r0
	...
  44:	00010100 	andeq	r0, r1, r0, lsl #2
  48:	00000050 	andeq	r0, r0, r0, asr r0
	...
  5c:	00010100 	andeq	r0, r1, r0, lsl #2
  60:	00000070 	andeq	r0, r0, r0, ror r0
	...
  74:	00010100 	andeq	r0, r1, r0, lsl #2
  78:	000000e0 	andeq	r0, r0, r0, ror #1
	...
  8c:	00010100 	andeq	r0, r1, r0, lsl #2
  90:	000000e1 	andeq	r0, r0, r1, ror #1
	...
  a4:	00010101 	andeq	r0, r1, r1, lsl #2
  a8:	000000f0 	strdeq	r0, [r0], -r0	; <UNPREDICTABLE>
	...
  bc:	00010100 	andeq	r0, r1, r0, lsl #2

000000c0 <RDMHandler::PID_DEFINITIONS>:
  c0:	00000060 	andeq	r0, r0, r0, rrx
	...
  d4:	01010000 	mrseq	r0, (UNDEF: 1)
  d8:	00000080 	andeq	r0, r0, r0, lsl #1
	...
  ec:	01010100 	mrseq	r0, (UNDEF: 17)
  f0:	00000081 	andeq	r0, r0, r1, lsl #1
	...
 104:	01010100 	mrseq	r0, (UNDEF: 17)
 108:	00000082 	andeq	r0, r0, r2, lsl #1
	...
 11c:	01010100 	mrseq	r0, (UNDEF: 17)
 120:	00000090 	muleq	r0, r0, r0
	...
 134:	01010100 	mrseq	r0, (UNDEF: 17)
 138:	00001000 	andeq	r1, r0, r0
	...
 14c:	01010000 	mrseq	r0, (UNDEF: 1)
 150:	00001001 	andeq	r1, r0, r1
	...
 164:	01010100 	mrseq	r0, (UNDEF: 17)
 168:	00000050 	andeq	r0, r0, r0, asr r0
	...
 17c:	00010000 	andeq	r0, r1, r0
 180:	00000070 	andeq	r0, r0, r0, ror r0
	...
 194:	00010100 	andeq	r0, r1, r0, lsl #2
 198:	000000a0 	andeq	r0, r0, r0, lsr #1
	...
 1ac:	00010100 	andeq	r0, r1, r0, lsl #2
 1b0:	000000b0 	strheq	r0, [r0], -r0	; <UNPREDICTABLE>
	...
 1c4:	00010100 	andeq	r0, r1, r0, lsl #2
 1c8:	000000c0 	andeq	r0, r0, r0, asr #1
	...
 1dc:	00010000 	andeq	r0, r1, r0
 1e0:	000000c1 	andeq	r0, r0, r1, asr #1
	...
 1f4:	00010100 	andeq	r0, r1, r0, lsl #2
 1f8:	000000c2 	andeq	r0, r0, r2, asr #1
	...
 20c:	00010100 	andeq	r0, r1, r0, lsl #2
 210:	000000e0 	andeq	r0, r0, r0, ror #1
	...
 224:	00010100 	andeq	r0, r1, r0, lsl #2
 228:	000000e1 	andeq	r0, r0, r1, ror #1
	...
 23c:	00010101 	andeq	r0, r1, r1, lsl #2
 240:	000000f0 	strdeq	r0, [r0], -r0	; <UNPREDICTABLE>
	...
 254:	00010000 	andeq	r0, r1, r0
 258:	00000120 	andeq	r0, r0, r0, lsr #2
	...
 26c:	00010100 	andeq	r0, r1, r0, lsl #2
 270:	00000121 	andeq	r0, r0, r1, lsr #2
	...
 284:	00010102 	andeq	r0, r1, r2, lsl #2
 288:	00000200 	andeq	r0, r0, r0, lsl #4
	...
 29c:	00010101 	andeq	r0, r1, r1, lsl #2
 2a0:	00000201 	andeq	r0, r0, r1, lsl #4
	...
 2b4:	00010101 	andeq	r0, r1, r1, lsl #2
 2b8:	00000202 	andeq	r0, r0, r2, lsl #4
	...
 2cc:	00010100 	andeq	r0, r1, r0, lsl #2
 2d0:	00000400 	andeq	r0, r0, r0, lsl #8
	...
 2e4:	00010100 	andeq	r0, r1, r0, lsl #2
 2e8:	00000500 	andeq	r0, r0, r0, lsl #10
	...
 2fc:	00010100 	andeq	r0, r1, r0, lsl #2
 300:	00000501 	andeq	r0, r0, r1, lsl #10
	...
 314:	00010100 	andeq	r0, r1, r0, lsl #2
 318:	00000603 	andeq	r0, r0, r3, lsl #12
	...
 32c:	00010100 	andeq	r0, r1, r0, lsl #2
 330:	00001010 	andeq	r1, r0, r0, lsl r0
	...
 344:	00010100 	andeq	r0, r1, r0, lsl #2
 348:	00001040 	andeq	r1, r0, r0, asr #32
	...
 35c:	00010100 	andeq	r0, r1, r0, lsl #2

00000360 <UID_ALL>:
 360:	ffffffff 			; <UNDEFINED> instruction: 0xffffffff
 364:	Address 0x0000000000000364 is out of bounds.


Disassembly of section .comment:

00000000 <.comment>:
   0:	43434700 	movtmi	r4, #14080	; 0x3700
   4:	4728203a 			; <UNDEFINED> instruction: 0x4728203a
   8:	2029554e 	eorcs	r5, r9, lr, asr #10
   c:	332e3031 			; <UNDEFINED> instruction: 0x332e3031
  10:	Address 0x0000000000000010 is out of bounds.


Disassembly of section .ARM.attributes:

00000000 <.ARM.attributes>:
   0:	00003441 	andeq	r3, r0, r1, asr #8
   4:	61656100 	cmnvs	r5, r0, lsl #2
   8:	01006962 	tsteq	r0, r2, ror #18
   c:	0000002a 	andeq	r0, r0, sl, lsr #32
  10:	412d3705 			; <UNDEFINED> instruction: 0x412d3705
  14:	070a0600 	streq	r0, [sl, -r0, lsl #12]
  18:	09010841 	stmdbeq	r1, {r0, r6, fp}
  1c:	0c050a02 			; <UNDEFINED> instruction: 0x0c050a02
  20:	14041202 	strne	r1, [r4], #-514	; 0xfffffdfe
  24:	17011501 	strne	r1, [r1, -r1, lsl #10]
  28:	19011803 	stmdbne	r1, {r0, r1, fp, ip}
  2c:	1c011a01 			; <UNDEFINED> instruction: 0x1c011a01
  30:	22021e01 	andcs	r1, r2, #1, 28
  34:	Address 0x0000000000000034 is out of bounds.


rdmhandlere1371.o:     file format elf32-littlearm


Disassembly of section .text:

00000000 <RDMHandler::GetIdentifyMode(unsigned short)>:
   0:	e5902008 	ldr	r2, [r0, #8]
   4:	e3003000 	movw	r3, #0
   8:	e3403000 	movt	r3, #0
   c:	e3a01001 	mov	r1, #1
  10:	e5c21017 	strb	r1, [r2, #23]
  14:	e5d33000 	ldrb	r3, [r3]
  18:	e5c23018 	strb	r3, [r2, #24]
  1c:	eafffffe 	b	0 <RDMHandler::RespondMessageAck()>

00000020 <RDMHandler::SetIdentifyMode(bool, unsigned short)>:
  20:	e5903004 	ldr	r3, [r0, #4]
  24:	e5d32016 	ldrb	r2, [r3, #22]
  28:	e3520001 	cmp	r2, #1
  2c:	1a00001f 	bne	b0 <RDMHandler::SetIdentifyMode(bool, unsigned short)+0x90>
  30:	e92d4070 	push	{r4, r5, r6, lr}
  34:	e1a05001 	mov	r5, r1
  38:	e5d31017 	ldrb	r1, [r3, #23]
  3c:	e2413001 	sub	r3, r1, #1
  40:	e6ef3073 	uxtb	r3, r3
  44:	e35300fd 	cmp	r3, #253	; 0xfd
  48:	9a000015 	bls	a4 <RDMHandler::SetIdentifyMode(bool, unsigned short)+0x84>
  4c:	e3003000 	movw	r3, #0
  50:	e3002000 	movw	r2, #0
  54:	e3403000 	movt	r3, #0
  58:	e1a04000 	mov	r4, r0
  5c:	e3402000 	movt	r2, #0
  60:	e5c31000 	strb	r1, [r3]
  64:	e3003000 	movw	r3, #0
  68:	e3403000 	movt	r3, #0
  6c:	e5920000 	ldr	r0, [r2]
  70:	e5d33000 	ldrb	r3, [r3]
  74:	e3530000 	cmp	r3, #0
  78:	0a000001 	beq	84 <RDMHandler::SetIdentifyMode(bool, unsigned short)+0x64>
  7c:	e3510000 	cmp	r1, #0
  80:	1a00000c 	bne	b8 <RDMHandler::SetIdentifyMode(bool, unsigned short)+0x98>
  84:	ebfffffe 	bl	0 <RDMIdentify::Off(rdm::identify::Mode)>
  88:	e3550000 	cmp	r5, #0
  8c:	18bd8070 	popne	{r4, r5, r6, pc}
  90:	e5943008 	ldr	r3, [r4, #8]
  94:	e1a00004 	mov	r0, r4
  98:	e5c35017 	strb	r5, [r3, #23]
  9c:	e8bd4070 	pop	{r4, r5, r6, lr}
  a0:	eafffffe 	b	0 <RDMHandler::RespondMessageAck()>
  a4:	e8bd4070 	pop	{r4, r5, r6, lr}
  a8:	e3a01006 	mov	r1, #6
  ac:	eafffffe 	b	0 <RDMHandler::RespondMessageNack(unsigned short)>
  b0:	e3a01001 	mov	r1, #1
  b4:	eafffffe 	b	0 <RDMHandler::RespondMessageNack(unsigned short)>
  b8:	e3a010ff 	mov	r1, #255	; 0xff
  bc:	ebfffffe 	bl	0 <RDMIdentify::On(rdm::identify::Mode)>
  c0:	eafffff0 	b	88 <RDMHandler::SetIdentifyMode(bool, unsigned short)+0x68>

Disassembly of section .comment:

00000000 <.comment>:
   0:	43434700 	movtmi	r4, #14080	; 0x3700
   4:	4728203a 			; <UNDEFINED> instruction: 0x4728203a
   8:	2029554e 	eorcs	r5, r9, lr, asr #10
   c:	332e3031 			; <UNDEFINED> instruction: 0x332e3031
  10:	Address 0x0000000000000010 is out of bounds.


Disassembly of section .ARM.attributes:

00000000 <.ARM.attributes>:
   0:	00003441 	andeq	r3, r0, r1, asr #8
   4:	61656100 	cmnvs	r5, r0, lsl #2
   8:	01006962 	tsteq	r0, r2, ror #18
   c:	0000002a 	andeq	r0, r0, sl, lsr #32
  10:	412d3705 			; <UNDEFINED> instruction: 0x412d3705
  14:	070a0600 	streq	r0, [sl, -r0, lsl #12]
  18:	09010841 	stmdbeq	r1, {r0, r6, fp}
  1c:	0c050a02 			; <UNDEFINED> instruction: 0x0c050a02
  20:	14041202 	strne	r1, [r4], #-514	; 0xfffffdfe
  24:	17011501 	strne	r1, [r1, -r1, lsl #10]
  28:	19011803 	stmdbne	r1, {r0, r1, fp, ip}
  2c:	1c011a01 			; <UNDEFINED> instruction: 0x1c011a01
  30:	22021e01 	andcs	r1, r2, #1, 28
  34:	Address 0x0000000000000034 is out of bounds.


rdmidentify.o:     file format elf32-littlearm


Disassembly of section .text:

00000000 <RDMIdentify::RDMIdentify()>:
   0:	e3003000 	movw	r3, #0
   4:	e3403000 	movt	r3, #0
   8:	e5830000 	str	r0, [r3]
   c:	e12fff1e 	bx	lr

00000010 <RDMIdentify::On(rdm::identify::Mode)>:
  10:	e12fff1e 	bx	lr

00000014 <RDMIdentify::Off(rdm::identify::Mode)>:
  14:	e12fff1e 	bx	lr

Disassembly of section .bss:

00000000 <RDMIdentify::s_pThis>:
   0:	00000000 	andeq	r0, r0, r0

00000004 <RDMIdentify::m_nMode>:
	...

00000005 <RDMIdentify::m_bIsEnabled>:
	...

Disassembly of section .comment:

00000000 <.comment>:
   0:	43434700 	movtmi	r4, #14080	; 0x3700
   4:	4728203a 			; <UNDEFINED> instruction: 0x4728203a
   8:	2029554e 	eorcs	r5, r9, lr, asr #10
   c:	332e3031 			; <UNDEFINED> instruction: 0x332e3031
  10:	Address 0x0000000000000010 is out of bounds.


Disassembly of section .ARM.attributes:

00000000 <.ARM.attributes>:
   0:	00003441 	andeq	r3, r0, r1, asr #8
   4:	61656100 	cmnvs	r5, r0, lsl #2
   8:	01006962 	tsteq	r0, r2, ror #18
   c:	0000002a 	andeq	r0, r0, sl, lsr #32
  10:	412d3705 			; <UNDEFINED> instruction: 0x412d3705
  14:	070a0600 	streq	r0, [sl, -r0, lsl #12]
  18:	09010841 	stmdbeq	r1, {r0, r6, fp}
  1c:	0c050a02 			; <UNDEFINED> instruction: 0x0c050a02
  20:	14041202 	strne	r1, [r4], #-514	; 0xfffffdfe
  24:	17011501 	strne	r1, [r1, -r1, lsl #10]
  28:	19011803 	stmdbne	r1, {r0, r1, fp, ip}
  2c:	1c011a01 			; <UNDEFINED> instruction: 0x1c011a01
  30:	22021e01 	andcs	r1, r2, #1, 28
  34:	Address 0x0000000000000034 is out of bounds.


rdmmessageprint.o:     file format elf32-littlearm


Disassembly of section .text:

00000000 <RDMMessage::Print(unsigned char const*)>:
   0:	e92d4070 	push	{r4, r5, r6, lr}
   4:	e2504000 	subs	r4, r0, #0
   8:	e24dd010 	sub	sp, sp, #16
   c:	0a000019 	beq	78 <RDMMessage::Print(unsigned char const*)+0x78>
  10:	e5d41000 	ldrb	r1, [r4]
  14:	e35100cc 	cmp	r1, #204	; 0xcc
  18:	0a000018 	beq	80 <RDMMessage::Print(unsigned char const*)+0x80>
  1c:	e35100fe 	cmp	r1, #254	; 0xfe
  20:	1a00000d 	bne	5c <RDMMessage::Print(unsigned char const*)+0x5c>
  24:	e3005000 	movw	r5, #0
  28:	e2846017 	add	r6, r4, #23
  2c:	e3405000 	movt	r5, #0
  30:	ea000000 	b	38 <RDMMessage::Print(unsigned char const*)+0x38>
  34:	e5f41001 	ldrb	r1, [r4, #1]!
  38:	e1a00005 	mov	r0, r5
  3c:	ebfffffe 	bl	0 <printf>
  40:	e1560004 	cmp	r6, r4
  44:	1afffffa 	bne	34 <RDMMessage::Print(unsigned char const*)+0x34>
  48:	e3000000 	movw	r0, #0
  4c:	e3400000 	movt	r0, #0
  50:	e28dd010 	add	sp, sp, #16
  54:	e8bd4070 	pop	{r4, r5, r6, lr}
  58:	eafffffe 	b	0 <printf>
  5c:	e5d4c003 	ldrb	ip, [r4, #3]
  60:	e3000000 	movw	r0, #0
  64:	e5d43002 	ldrb	r3, [r4, #2]
  68:	e5d42001 	ldrb	r2, [r4, #1]
  6c:	e3400000 	movt	r0, #0
  70:	e58dc000 	str	ip, [sp]
  74:	ebfffffe 	bl	0 <printf>
  78:	e28dd010 	add	sp, sp, #16
  7c:	e8bd8070 	pop	{r4, r5, r6, pc}
  80:	e5d4100e 	ldrb	r1, [r4, #14]
  84:	e5d4200d 	ldrb	r2, [r4, #13]
  88:	e5d4000c 	ldrb	r0, [r4, #12]
  8c:	e5d4300b 	ldrb	r3, [r4, #11]
  90:	e58d1008 	str	r1, [sp, #8]
  94:	e58d2004 	str	r2, [sp, #4]
  98:	e5d4200a 	ldrb	r2, [r4, #10]
  9c:	e5d41009 	ldrb	r1, [r4, #9]
  a0:	e58d0000 	str	r0, [sp]
  a4:	e3000000 	movw	r0, #0
  a8:	e3400000 	movt	r0, #0
  ac:	ebfffffe 	bl	0 <printf>
  b0:	e5d40008 	ldrb	r0, [r4, #8]
  b4:	e5d42007 	ldrb	r2, [r4, #7]
  b8:	e5d41006 	ldrb	r1, [r4, #6]
  bc:	e5d43005 	ldrb	r3, [r4, #5]
  c0:	e58d0008 	str	r0, [sp, #8]
  c4:	e3000000 	movw	r0, #0
  c8:	e58d2004 	str	r2, [sp, #4]
  cc:	e3400000 	movt	r0, #0
  d0:	e5d42004 	ldrb	r2, [r4, #4]
  d4:	e58d1000 	str	r1, [sp]
  d8:	e5d41003 	ldrb	r1, [r4, #3]
  dc:	ebfffffe 	bl	0 <printf>
  e0:	e5d41014 	ldrb	r1, [r4, #20]
  e4:	e2413010 	sub	r3, r1, #16
  e8:	e3530021 	cmp	r3, #33	; 0x21
  ec:	979ff103 	ldrls	pc, [pc, r3, lsl #2]
  f0:	ea000021 	b	17c <RDMMessage::Print(unsigned char const*)+0x17c>
  f4:	00000214 	andeq	r0, r0, r4, lsl r2
  f8:	00000204 	andeq	r0, r0, r4, lsl #4
  fc:	0000017c 	andeq	r0, r0, ip, ror r1
 100:	0000017c 	andeq	r0, r0, ip, ror r1
 104:	0000017c 	andeq	r0, r0, ip, ror r1
 108:	0000017c 	andeq	r0, r0, ip, ror r1
 10c:	0000017c 	andeq	r0, r0, ip, ror r1
 110:	0000017c 	andeq	r0, r0, ip, ror r1
 114:	0000017c 	andeq	r0, r0, ip, ror r1
 118:	0000017c 	andeq	r0, r0, ip, ror r1
 11c:	0000017c 	andeq	r0, r0, ip, ror r1
 120:	0000017c 	andeq	r0, r0, ip, ror r1
 124:	0000017c 	andeq	r0, r0, ip, ror r1
 128:	0000017c 	andeq	r0, r0, ip, ror r1
 12c:	0000017c 	andeq	r0, r0, ip, ror r1
 130:	0000017c 	andeq	r0, r0, ip, ror r1
 134:	000001f4 	strdeq	r0, [r0], -r4
 138:	000001e4 	andeq	r0, r0, r4, ror #3
 13c:	0000017c 	andeq	r0, r0, ip, ror r1
 140:	0000017c 	andeq	r0, r0, ip, ror r1
 144:	0000017c 	andeq	r0, r0, ip, ror r1
 148:	0000017c 	andeq	r0, r0, ip, ror r1
 14c:	0000017c 	andeq	r0, r0, ip, ror r1
 150:	0000017c 	andeq	r0, r0, ip, ror r1
 154:	0000017c 	andeq	r0, r0, ip, ror r1
 158:	0000017c 	andeq	r0, r0, ip, ror r1
 15c:	0000017c 	andeq	r0, r0, ip, ror r1
 160:	0000017c 	andeq	r0, r0, ip, ror r1
 164:	0000017c 	andeq	r0, r0, ip, ror r1
 168:	0000017c 	andeq	r0, r0, ip, ror r1
 16c:	0000017c 	andeq	r0, r0, ip, ror r1
 170:	0000017c 	andeq	r0, r0, ip, ror r1
 174:	000001d4 	ldrdeq	r0, [r0], -r4
 178:	000001c4 	andeq	r0, r0, r4, asr #3
 17c:	e3000000 	movw	r0, #0
 180:	e3400000 	movt	r0, #0
 184:	ebfffffe 	bl	0 <printf>
 188:	e5d42012 	ldrb	r2, [r4, #18]
 18c:	e3000000 	movw	r0, #0
 190:	e5d41013 	ldrb	r1, [r4, #19]
 194:	e5d43017 	ldrb	r3, [r4, #23]
 198:	e5d4c016 	ldrb	ip, [r4, #22]
 19c:	e0811402 	add	r1, r1, r2, lsl #8
 1a0:	e58d3004 	str	r3, [sp, #4]
 1a4:	e6ff1071 	uxth	r1, r1
 1a8:	e5d43015 	ldrb	r3, [r4, #21]
 1ac:	e5d4200f 	ldrb	r2, [r4, #15]
 1b0:	e3400000 	movt	r0, #0
 1b4:	e58dc000 	str	ip, [sp]
 1b8:	ebfffffe 	bl	0 <printf>
 1bc:	e28dd010 	add	sp, sp, #16
 1c0:	e8bd8070 	pop	{r4, r5, r6, pc}
 1c4:	e3000000 	movw	r0, #0
 1c8:	e3400000 	movt	r0, #0
 1cc:	ebfffffe 	bl	0 <printf>
 1d0:	eaffffec 	b	188 <RDMMessage::Print(unsigned char const*)+0x188>
 1d4:	e3000000 	movw	r0, #0
 1d8:	e3400000 	movt	r0, #0
 1dc:	ebfffffe 	bl	0 <printf>
 1e0:	eaffffe8 	b	188 <RDMMessage::Print(unsigned char const*)+0x188>
 1e4:	e3000000 	movw	r0, #0
 1e8:	e3400000 	movt	r0, #0
 1ec:	ebfffffe 	bl	0 <printf>
 1f0:	eaffffe4 	b	188 <RDMMessage::Print(unsigned char const*)+0x188>
 1f4:	e3000000 	movw	r0, #0
 1f8:	e3400000 	movt	r0, #0
 1fc:	ebfffffe 	bl	0 <printf>
 200:	eaffffe0 	b	188 <RDMMessage::Print(unsigned char const*)+0x188>
 204:	e3000000 	movw	r0, #0
 208:	e3400000 	movt	r0, #0
 20c:	ebfffffe 	bl	0 <printf>
 210:	eaffffdc 	b	188 <RDMMessage::Print(unsigned char const*)+0x188>
 214:	e3000000 	movw	r0, #0
 218:	e3400000 	movt	r0, #0
 21c:	ebfffffe 	bl	0 <printf>
 220:	eaffffd8 	b	188 <RDMMessage::Print(unsigned char const*)+0x188>

00000224 <RDMMessage::PrintNoSc(unsigned char const*)>:
 224:	e52de004 	push	{lr}		; (str lr, [sp, #-4]!)
 228:	e24ddf43 	sub	sp, sp, #268	; 0x10c
 22c:	e5d0c001 	ldrb	ip, [r0, #1]
 230:	e3e03033 	mvn	r3, #51	; 0x33
 234:	e5cd3004 	strb	r3, [sp, #4]
 238:	e35c0001 	cmp	ip, #1
 23c:	028d0004 	addeq	r0, sp, #4
 240:	0a000008 	beq	268 <RDMMessage::PrintNoSc(unsigned char const*)+0x44>
 244:	e1a03000 	mov	r3, r0
 248:	e24cc001 	sub	ip, ip, #1
 24c:	e083c00c 	add	ip, r3, ip
 250:	e28d0004 	add	r0, sp, #4
 254:	e1a02000 	mov	r2, r0
 258:	e4d31001 	ldrb	r1, [r3], #1
 25c:	e153000c 	cmp	r3, ip
 260:	e5e21001 	strb	r1, [r2, #1]!
 264:	1afffffb 	bne	258 <RDMMessage::PrintNoSc(unsigned char const*)+0x34>
 268:	ebfffffe 	bl	0 <RDMMessage::Print(unsigned char const*)>
 26c:	e28ddf43 	add	sp, sp, #268	; 0x10c
 270:	e49df004 	pop	{pc}		; (ldr pc, [sp], #4)

Disassembly of section .rodata.str1.4:

00000000 <.LC0>:
   0:	78322e25 	ldmdavc	r2!, {r0, r2, r5, r9, sl, fp, sp}
   4:	78322e25 	ldmdavc	r2!, {r0, r2, r5, r9, sl, fp, sp}
   8:	322e253a 	eorcc	r2, lr, #243269632	; 0xe800000
   c:	322e2578 	eorcc	r2, lr, #120, 10	; 0x1e000000
  10:	322e2578 	eorcc	r2, lr, #120, 10	; 0x1e000000
  14:	322e2578 	eorcc	r2, lr, #120, 10	; 0x1e000000
  18:	3e2d2078 	mcrcc	0, 1, r2, cr13, cr8, {3}
  1c:	00000020 	andeq	r0, r0, r0, lsr #32

00000020 <.LC1>:
  20:	78322e25 	ldmdavc	r2!, {r0, r2, r5, r9, sl, fp, sp}
  24:	78322e25 	ldmdavc	r2!, {r0, r2, r5, r9, sl, fp, sp}
  28:	322e253a 	eorcc	r2, lr, #243269632	; 0xe800000
  2c:	322e2578 	eorcc	r2, lr, #120, 10	; 0x1e000000
  30:	322e2578 	eorcc	r2, lr, #120, 10	; 0x1e000000
  34:	322e2578 	eorcc	r2, lr, #120, 10	; 0x1e000000
  38:	00002078 	andeq	r2, r0, r8, ror r0

0000003c <.LC2>:
  3c:	43534944 	cmpmi	r3, #68, 18	; 0x110000
  40:	5245564f 	subpl	r5, r5, #82837504	; 0x4f00000
  44:	4f435f59 	svcmi	0x00435f59
  48:	4e414d4d 	cdpmi	13, 4, cr4, cr1, cr13, {2}
  4c:	00000044 	andeq	r0, r0, r4, asr #32

00000050 <.LC3>:
  50:	43534944 	cmpmi	r3, #68, 18	; 0x110000
  54:	5245564f 	subpl	r5, r5, #82837504	; 0x4f00000
  58:	4f435f59 	svcmi	0x00435f59
  5c:	4e414d4d 	cdpmi	13, 4, cr4, cr1, cr13, {2}
  60:	45525f44 	ldrbmi	r5, [r2, #-3908]	; 0xfffff0bc
  64:	4e4f5053 	mcrmi	0, 2, r5, cr15, cr3, {2}
  68:	00004553 	andeq	r4, r0, r3, asr r5

0000006c <.LC4>:
  6c:	5f544547 	svcpl	0x00544547
  70:	4d4d4f43 	stclmi	15, cr4, [sp, #-268]	; 0xfffffef4
  74:	00444e41 	subeq	r4, r4, r1, asr #28

00000078 <.LC5>:
  78:	5f544547 	svcpl	0x00544547
  7c:	4d4d4f43 	stclmi	15, cr4, [sp, #-268]	; 0xfffffef4
  80:	5f444e41 	svcpl	0x00444e41
  84:	50534552 	subspl	r4, r3, r2, asr r5
  88:	45534e4f 	ldrbmi	r4, [r3, #-3663]	; 0xfffff1b1
  8c:	00000000 	andeq	r0, r0, r0

00000090 <.LC6>:
  90:	5f544553 	svcpl	0x00544553
  94:	4d4d4f43 	stclmi	15, cr4, [sp, #-268]	; 0xfffffef4
  98:	00444e41 	subeq	r4, r4, r1, asr #28

0000009c <.LC7>:
  9c:	5f544553 	svcpl	0x00544553
  a0:	4d4d4f43 	stclmi	15, cr4, [sp, #-268]	; 0xfffffef4
  a4:	5f444e41 	svcpl	0x00444e41
  a8:	50534552 	subspl	r4, r3, r2, asr r5
  ac:	45534e4f 	ldrbmi	r4, [r3, #-3663]	; 0xfffff1b1
  b0:	00000000 	andeq	r0, r0, r0

000000b4 <.LC8>:
  b4:	7b204343 	blvc	810dc8 <RDMMessage::PrintNoSc(unsigned char const*)+0x810ba4>
  b8:	78322e25 	ldmdavc	r2!, {r0, r2, r5, r9, sl, fp, sp}
  bc:	0000007d 	andeq	r0, r0, sp, ror r0

000000c0 <.LC9>:
  c0:	7573202c 	ldrbvc	r2, [r3, #-44]!	; 0xffffffd4
  c4:	65642d62 	strbvs	r2, [r4, #-3426]!	; 0xfffff29e
  c8:	25203a76 	strcs	r3, [r0, #-2678]!	; 0xfffff58a
  cc:	74202c64 	strtvc	r2, [r0], #-3172	; 0xfffff39c
  d0:	25203a6e 	strcs	r3, [r0, #-2670]!	; 0xfffff592
  d4:	50202c64 	eorpl	r2, r0, r4, ror #24
  d8:	30204449 	eorcc	r4, r0, r9, asr #8
  dc:	322e2578 	eorcc	r2, lr, #120, 10	; 0x1e000000
  e0:	322e2578 	eorcc	r2, lr, #120, 10	; 0x1e000000
  e4:	70202c78 	eorvc	r2, r0, r8, ror ip
  e8:	203a6c64 	eorscs	r6, sl, r4, ror #24
  ec:	000a6425 	andeq	r6, sl, r5, lsr #8

000000f0 <.LC10>:
  f0:	78322e25 	ldmdavc	r2!, {r0, r2, r5, r9, sl, fp, sp}
  f4:	00000020 	andeq	r0, r0, r0, lsr #32

000000f8 <.LC11>:
  f8:	0000000a 	andeq	r0, r0, sl

000000fc <.LC12>:
  fc:	72726f43 	rsbsvc	r6, r2, #268	; 0x10c
 100:	65747075 	ldrbvs	r7, [r4, #-117]!	; 0xffffff8b
 104:	52203f64 	eorpl	r3, r0, #100, 30	; 0x190
 108:	64204d44 	strtvs	r4, [r0], #-3396	; 0xfffff2bc
 10c:	20617461 	rsbcs	r7, r1, r1, ror #8
 110:	332d305b 			; <UNDEFINED> instruction: 0x332d305b
 114:	25203a5d 	strcs	r3, [r0, #-2653]!	; 0xfffff5a3
 118:	3a78322e 	bcc	1e0c9d8 <RDMMessage::PrintNoSc(unsigned char const*)+0x1e0c7b4>
 11c:	78322e25 	ldmdavc	r2!, {r0, r2, r5, r9, sl, fp, sp}
 120:	322e253a 	eorcc	r2, lr, #243269632	; 0xe800000
 124:	2e253a78 			; <UNDEFINED> instruction: 0x2e253a78
 128:	000a7832 	andeq	r7, sl, r2, lsr r8

Disassembly of section .comment:

00000000 <.comment>:
   0:	43434700 	movtmi	r4, #14080	; 0x3700
   4:	4728203a 			; <UNDEFINED> instruction: 0x4728203a
   8:	2029554e 	eorcs	r5, r9, lr, asr #10
   c:	332e3031 			; <UNDEFINED> instruction: 0x332e3031
  10:	Address 0x0000000000000010 is out of bounds.


Disassembly of section .ARM.attributes:

00000000 <.ARM.attributes>:
   0:	00003441 	andeq	r3, r0, r1, asr #8
   4:	61656100 	cmnvs	r5, r0, lsl #2
   8:	01006962 	tsteq	r0, r2, ror #18
   c:	0000002a 	andeq	r0, r0, sl, lsr #32
  10:	412d3705 			; <UNDEFINED> instruction: 0x412d3705
  14:	070a0600 	streq	r0, [sl, -r0, lsl #12]
  18:	09010841 	stmdbeq	r1, {r0, r6, fp}
  1c:	0c050a02 			; <UNDEFINED> instruction: 0x0c050a02
  20:	14041202 	strne	r1, [r4], #-514	; 0xfffffdfe
  24:	17011501 	strne	r1, [r1, -r1, lsl #10]
  28:	19011803 	stmdbne	r1, {r0, r1, fp, ip}
  2c:	1c011a01 			; <UNDEFINED> instruction: 0x1c011a01
  30:	22021e01 	andcs	r1, r2, #1, 28
  34:	Address 0x0000000000000034 is out of bounds.


rdmqueuedmessage.o:     file format elf32-littlearm


Disassembly of section .text:

00000000 <RDMQueuedMessage::RDMQueuedMessage()>:
   0:	e92d4010 	push	{r4, lr}
   4:	e1a04000 	mov	r4, r0
   8:	e3a03c01 	mov	r3, #256	; 0x100
   c:	e30e0a15 	movw	r0, #59925	; 0xea15
  10:	e1c430b0 	strh	r3, [r4]
  14:	ebfffffe 	bl	0 <operator new[](unsigned int)>
  18:	e5840004 	str	r0, [r4, #4]
  1c:	e1a00004 	mov	r0, r4
  20:	e8bd8010 	pop	{r4, pc}

00000024 <RDMQueuedMessage::~RDMQueuedMessage()>:
  24:	e92d4010 	push	{r4, lr}
  28:	e1a04000 	mov	r4, r0
  2c:	e5900004 	ldr	r0, [r0, #4]
  30:	e3500000 	cmp	r0, #0
  34:	0a000000 	beq	3c <RDMQueuedMessage::~RDMQueuedMessage()+0x18>
  38:	ebfffffe 	bl	0 <operator delete[](void*)>
  3c:	e1a00004 	mov	r0, r4
  40:	e8bd8010 	pop	{r4, pc}

00000044 <RDMQueuedMessage::Copy(TRdmMessage*, unsigned long)>:
  44:	e3a030eb 	mov	r3, #235	; 0xeb
  48:	e0020293 	mul	r2, r3, r2
  4c:	e5903004 	ldr	r3, [r0, #4]
  50:	e52de004 	push	{lr}		; (str lr, [sp, #-4]!)
  54:	e7d33002 	ldrb	r3, [r3, r2]
  58:	e5c13014 	strb	r3, [r1, #20]
  5c:	e5903004 	ldr	r3, [r0, #4]
  60:	e0833002 	add	r3, r3, r2
  64:	e5d33001 	ldrb	r3, [r3, #1]
  68:	e5c13015 	strb	r3, [r1, #21]
  6c:	e5903004 	ldr	r3, [r0, #4]
  70:	e0833002 	add	r3, r3, r2
  74:	e5d33002 	ldrb	r3, [r3, #2]
  78:	e5c13016 	strb	r3, [r1, #22]
  7c:	e5903004 	ldr	r3, [r0, #4]
  80:	e0833002 	add	r3, r3, r2
  84:	e5d3e003 	ldrb	lr, [r3, #3]
  88:	e5c1e017 	strb	lr, [r1, #23]
  8c:	e35e0000 	cmp	lr, #0
  90:	049df004 	popeq	{pc}		; (ldreq pc, [sp], #4)
  94:	e281c017 	add	ip, r1, #23
  98:	e3a01000 	mov	r1, #0
  9c:	e5903004 	ldr	r3, [r0, #4]
  a0:	e0833002 	add	r3, r3, r2
  a4:	e0833001 	add	r3, r3, r1
  a8:	e2811001 	add	r1, r1, #1
  ac:	e151000e 	cmp	r1, lr
  b0:	e5d33004 	ldrb	r3, [r3, #4]
  b4:	e5ec3001 	strb	r3, [ip, #1]!
  b8:	1afffff7 	bne	9c <RDMQueuedMessage::Copy(TRdmMessage*, unsigned long)+0x58>
  bc:	e49df004 	pop	{pc}		; (ldr pc, [sp], #4)

000000c0 <RDMQueuedMessage::GetMessageCount() const>:
  c0:	e5d00000 	ldrb	r0, [r0]
  c4:	e12fff1e 	bx	lr

000000c8 <RDMQueuedMessage::Handler(unsigned char*)>:
  c8:	e5d02001 	ldrb	r2, [r0, #1]
  cc:	e1a03001 	mov	r3, r1
  d0:	e52de004 	push	{lr}		; (str lr, [sp, #-4]!)
  d4:	e3520000 	cmp	r2, #0
  d8:	1a000005 	bne	f4 <RDMQueuedMessage::Handler(unsigned char*)+0x2c>
  dc:	e5d1e018 	ldrb	lr, [r1, #24]
  e0:	e5d02000 	ldrb	r2, [r0]
  e4:	e35e0001 	cmp	lr, #1
  e8:	0a000009 	beq	114 <RDMQueuedMessage::Handler(unsigned char*)+0x4c>
  ec:	e3520000 	cmp	r2, #0
  f0:	1a000004 	bne	108 <RDMQueuedMessage::Handler(unsigned char*)+0x40>
  f4:	e3a01030 	mov	r1, #48	; 0x30
  f8:	e3a02000 	mov	r2, #0
  fc:	e5c31010 	strb	r1, [r3, #16]
 100:	e5c32017 	strb	r2, [r3, #23]
 104:	e49df004 	pop	{pc}		; (ldr pc, [sp], #4)
 108:	e2422001 	sub	r2, r2, #1
 10c:	e6ef2072 	uxtb	r2, r2
 110:	e5c02000 	strb	r2, [r0]
 114:	e49de004 	pop	{lr}		; (ldr lr, [sp], #4)
 118:	eafffffe 	b	44 <RDMQueuedMessage::Copy(TRdmMessage*, unsigned long)>

0000011c <RDMQueuedMessage::Add(TRdmQueuedMessage const*)>:
 11c:	e5d03000 	ldrb	r3, [r0]
 120:	e3a02000 	mov	r2, #0
 124:	e5c02001 	strb	r2, [r0, #1]
 128:	e35300ff 	cmp	r3, #255	; 0xff
 12c:	0a000027 	beq	1d0 <RDMQueuedMessage::Add(TRdmQueuedMessage const*)+0xb4>
 130:	e92d4030 	push	{r4, r5, lr}
 134:	e1a05000 	mov	r5, r0
 138:	e5d1e000 	ldrb	lr, [r1]
 13c:	e3a000eb 	mov	r0, #235	; 0xeb
 140:	e595c004 	ldr	ip, [r5, #4]
 144:	e1630083 	smulbb	r3, r3, r0
 148:	e7cce003 	strb	lr, [ip, r3]
 14c:	e5d5e000 	ldrb	lr, [r5]
 150:	e5953004 	ldr	r3, [r5, #4]
 154:	e5d1c001 	ldrb	ip, [r1, #1]
 158:	e023309e 	mla	r3, lr, r0, r3
 15c:	e5c3c001 	strb	ip, [r3, #1]
 160:	e5d5e000 	ldrb	lr, [r5]
 164:	e5953004 	ldr	r3, [r5, #4]
 168:	e5d1c002 	ldrb	ip, [r1, #2]
 16c:	e023309e 	mla	r3, lr, r0, r3
 170:	e5c3c002 	strb	ip, [r3, #2]
 174:	e5d1c003 	ldrb	ip, [r1, #3]
 178:	e5d5e000 	ldrb	lr, [r5]
 17c:	e5953004 	ldr	r3, [r5, #4]
 180:	e15c0002 	cmp	ip, r2
 184:	e023309e 	mla	r3, lr, r0, r3
 188:	e5c3c003 	strb	ip, [r3, #3]
 18c:	1281c003 	addne	ip, r1, #3
 190:	0a000009 	beq	1bc <RDMQueuedMessage::Add(TRdmQueuedMessage const*)+0xa0>
 194:	e5d54000 	ldrb	r4, [r5]
 198:	e5953004 	ldr	r3, [r5, #4]
 19c:	e5fce001 	ldrb	lr, [ip, #1]!
 1a0:	e0233094 	mla	r3, r4, r0, r3
 1a4:	e0833002 	add	r3, r3, r2
 1a8:	e2822001 	add	r2, r2, #1
 1ac:	e5c3e004 	strb	lr, [r3, #4]
 1b0:	e5d13003 	ldrb	r3, [r1, #3]
 1b4:	e1530002 	cmp	r3, r2
 1b8:	8afffff5 	bhi	194 <RDMQueuedMessage::Add(TRdmQueuedMessage const*)+0x78>
 1bc:	e5d53000 	ldrb	r3, [r5]
 1c0:	e3a00001 	mov	r0, #1
 1c4:	e0833000 	add	r3, r3, r0
 1c8:	e5c53000 	strb	r3, [r5]
 1cc:	e8bd8030 	pop	{r4, r5, pc}
 1d0:	e1a00002 	mov	r0, r2
 1d4:	e12fff1e 	bx	lr

Disassembly of section .comment:

00000000 <.comment>:
   0:	43434700 	movtmi	r4, #14080	; 0x3700
   4:	4728203a 			; <UNDEFINED> instruction: 0x4728203a
   8:	2029554e 	eorcs	r5, r9, lr, asr #10
   c:	332e3031 			; <UNDEFINED> instruction: 0x332e3031
  10:	Address 0x0000000000000010 is out of bounds.


Disassembly of section .ARM.attributes:

00000000 <.ARM.attributes>:
   0:	00003441 	andeq	r3, r0, r1, asr #8
   4:	61656100 	cmnvs	r5, r0, lsl #2
   8:	01006962 	tsteq	r0, r2, ror #18
   c:	0000002a 	andeq	r0, r0, sl, lsr #32
  10:	412d3705 			; <UNDEFINED> instruction: 0x412d3705
  14:	070a0600 	streq	r0, [sl, -r0, lsl #12]
  18:	09010841 	stmdbeq	r1, {r0, r6, fp}
  1c:	0c050a02 			; <UNDEFINED> instruction: 0x0c050a02
  20:	14041202 	strne	r1, [r4], #-514	; 0xfffffdfe
  24:	17011501 	strne	r1, [r1, -r1, lsl #10]
  28:	19011803 	stmdbne	r1, {r0, r1, fp, ip}
  2c:	1c011a01 			; <UNDEFINED> instruction: 0x1c011a01
  30:	22021e01 	andcs	r1, r2, #1, 28
  34:	Address 0x0000000000000034 is out of bounds.


rdmslotinfo.o:     file format elf32-littlearm


Disassembly of section .text:

00000000 <RDMSlotInfo::GetTypeText(unsigned char, unsigned long&)>:
   0:	e3a02000 	mov	r2, #0
   4:	e300c000 	movw	ip, #0
   8:	e340c000 	movt	ip, #0
   c:	e1a03002 	mov	r3, r2
  10:	ea000000 	b	18 <RDMSlotInfo::GetTypeText(unsigned char, unsigned long&)+0x18>
  14:	e7dc2183 	ldrb	r2, [ip, r3, lsl #3]
  18:	e1500002 	cmp	r0, r2
  1c:	0a00000e 	beq	5c <RDMSlotInfo::GetTypeText(unsigned char, unsigned long&)+0x5c>
  20:	e2833001 	add	r3, r3, #1
  24:	e3530009 	cmp	r3, #9
  28:	1afffff9 	bne	14 <RDMSlotInfo::GetTypeText(unsigned char, unsigned long&)+0x14>
  2c:	e59f3064 	ldr	r3, [pc, #100]	; 98 <RDMSlotInfo::GetTypeText(unsigned char, unsigned long&)+0x98>
  30:	e3a0206e 	mov	r2, #110	; 0x6e
  34:	ea000000 	b	3c <RDMSlotInfo::GetTypeText(unsigned char, unsigned long&)+0x3c>
  38:	e5f32001 	ldrb	r2, [r3, #1]!
  3c:	e3520000 	cmp	r2, #0
  40:	1afffffc 	bne	38 <RDMSlotInfo::GetTypeText(unsigned char, unsigned long&)+0x38>
  44:	e3000000 	movw	r0, #0
  48:	e3400000 	movt	r0, #0
  4c:	e0433000 	sub	r3, r3, r0
  50:	e6ff3073 	uxth	r3, r3
  54:	e5813000 	str	r3, [r1]
  58:	e12fff1e 	bx	lr
  5c:	e3002000 	movw	r2, #0
  60:	e3402000 	movt	r2, #0
  64:	e0823183 	add	r3, r2, r3, lsl #3
  68:	e5930004 	ldr	r0, [r3, #4]
  6c:	e5d03000 	ldrb	r3, [r0]
  70:	e3530000 	cmp	r3, #0
  74:	0a000005 	beq	90 <RDMSlotInfo::GetTypeText(unsigned char, unsigned long&)+0x90>
  78:	e1a03000 	mov	r3, r0
  7c:	e5f32001 	ldrb	r2, [r3, #1]!
  80:	e3520000 	cmp	r2, #0
  84:	1afffffc 	bne	7c <RDMSlotInfo::GetTypeText(unsigned char, unsigned long&)+0x7c>
  88:	e0433000 	sub	r3, r3, r0
  8c:	e6ff3073 	uxth	r3, r3
  90:	e5813000 	str	r3, [r1]
  94:	e12fff1e 	bx	lr
  98:	00000001 	andeq	r0, r0, r1

0000009c <RDMSlotInfo::GetCategoryTextUndefined(unsigned short, unsigned long&)>:
  9c:	e59f3028 	ldr	r3, [pc, #40]	; cc <RDMSlotInfo::GetCategoryTextUndefined(unsigned short, unsigned long&)+0x30>
  a0:	e3a0206f 	mov	r2, #111	; 0x6f
  a4:	ea000000 	b	ac <RDMSlotInfo::GetCategoryTextUndefined(unsigned short, unsigned long&)+0x10>
  a8:	e5f32001 	ldrb	r2, [r3, #1]!
  ac:	e3520000 	cmp	r2, #0
  b0:	1afffffc 	bne	a8 <RDMSlotInfo::GetCategoryTextUndefined(unsigned short, unsigned long&)+0xc>
  b4:	e3000000 	movw	r0, #0
  b8:	e3400000 	movt	r0, #0
  bc:	e0433000 	sub	r3, r3, r0
  c0:	e6ff3073 	uxth	r3, r3
  c4:	e5813000 	str	r3, [r1]
  c8:	e12fff1e 	bx	lr
  cc:	00000001 	andeq	r0, r0, r1

000000d0 <RDMSlotInfo::GetCategoryText(unsigned short, unsigned short, unsigned long&)>:
  d0:	e30f3fff 	movw	r3, #65535	; 0xffff
  d4:	e1510003 	cmp	r1, r3
  d8:	e92d4010 	push	{r4, lr}
  dc:	0a000024 	beq	174 <RDMSlotInfo::GetCategoryText(unsigned short, unsigned short, unsigned long&)+0xa4>
  e0:	e3a0e028 	mov	lr, #40	; 0x28
  e4:	e3004000 	movw	r4, #0
  e8:	e3404000 	movt	r4, #0
  ec:	e300c302 	movw	ip, #770	; 0x302
  f0:	e3a00000 	mov	r0, #0
  f4:	e1a0300e 	mov	r3, lr
  f8:	ea000001 	b	104 <RDMSlotInfo::GetCategoryText(unsigned short, unsigned short, unsigned long&)+0x34>
  fc:	e084c18c 	add	ip, r4, ip, lsl #3
 100:	e1dcc4b8 	ldrh	ip, [ip, #72]	; 0x48
 104:	e151000c 	cmp	r1, ip
 108:	e08030c3 	add	r3, r0, r3, asr #1
 10c:	82830001 	addhi	r0, r3, #1
 110:	8a000001 	bhi	11c <RDMSlotInfo::GetCategoryText(unsigned short, unsigned short, unsigned long&)+0x4c>
 114:	2a000007 	bcs	138 <RDMSlotInfo::GetCategoryText(unsigned short, unsigned short, unsigned long&)+0x68>
 118:	e243e001 	sub	lr, r3, #1
 11c:	e04e3000 	sub	r3, lr, r0
 120:	e15e0000 	cmp	lr, r0
 124:	e080c0c3 	add	ip, r0, r3, asr #1
 128:	aafffff3 	bge	fc <RDMSlotInfo::GetCategoryText(unsigned short, unsigned short, unsigned long&)+0x2c>
 12c:	e3a00000 	mov	r0, #0
 130:	e5820000 	str	r0, [r2]
 134:	e8bd8010 	pop	{r4, pc}
 138:	e3001000 	movw	r1, #0
 13c:	e3401000 	movt	r1, #0
 140:	e0813183 	add	r3, r1, r3, lsl #3
 144:	e593004c 	ldr	r0, [r3, #76]	; 0x4c
 148:	e5d03000 	ldrb	r3, [r0]
 14c:	e3530000 	cmp	r3, #0
 150:	0a000005 	beq	16c <RDMSlotInfo::GetCategoryText(unsigned short, unsigned short, unsigned long&)+0x9c>
 154:	e1a03000 	mov	r3, r0
 158:	e5f31001 	ldrb	r1, [r3, #1]!
 15c:	e3510000 	cmp	r1, #0
 160:	1afffffc 	bne	158 <RDMSlotInfo::GetCategoryText(unsigned short, unsigned short, unsigned long&)+0x88>
 164:	e0433000 	sub	r3, r3, r0
 168:	e6ff3073 	uxth	r3, r3
 16c:	e5823000 	str	r3, [r2]
 170:	e8bd8010 	pop	{r4, pc}
 174:	e1a01002 	mov	r1, r2
 178:	ebfffffe 	bl	9c <RDMSlotInfo::GetCategoryTextUndefined(unsigned short, unsigned long&)>
 17c:	e8bd8010 	pop	{r4, pc}

00000180 <RDMSlotInfo::bsearch(unsigned short)>:
 180:	e3a01028 	mov	r1, #40	; 0x28
 184:	e1a0c000 	mov	ip, r0
 188:	e52de004 	push	{lr}		; (str lr, [sp, #-4]!)
 18c:	e300e000 	movw	lr, #0
 190:	e340e000 	movt	lr, #0
 194:	e3002302 	movw	r2, #770	; 0x302
 198:	e3a03000 	mov	r3, #0
 19c:	e1a00001 	mov	r0, r1
 1a0:	ea000001 	b	1ac <RDMSlotInfo::bsearch(unsigned short)+0x2c>
 1a4:	e08e2182 	add	r2, lr, r2, lsl #3
 1a8:	e1d224b8 	ldrh	r2, [r2, #72]	; 0x48
 1ac:	e15c0002 	cmp	ip, r2
 1b0:	e08300c0 	add	r0, r3, r0, asr #1
 1b4:	82803001 	addhi	r3, r0, #1
 1b8:	8a000001 	bhi	1c4 <RDMSlotInfo::bsearch(unsigned short)+0x44>
 1bc:	249df004 	popcs	{pc}		; (ldrcs pc, [sp], #4)
 1c0:	e2401001 	sub	r1, r0, #1
 1c4:	e0410003 	sub	r0, r1, r3
 1c8:	e1530001 	cmp	r3, r1
 1cc:	e08320c0 	add	r2, r3, r0, asr #1
 1d0:	dafffff3 	ble	1a4 <RDMSlotInfo::bsearch(unsigned short)+0x24>
 1d4:	e3e00000 	mvn	r0, #0
 1d8:	e49df004 	pop	{pc}		; (ldr pc, [sp], #4)

Disassembly of section .rodata.str1.4:

00000000 <.LC0>:
   0:	65646e55 	strbvs	r6, [r4, #-3669]!	; 0xfffff1ab
   4:	656e6966 	strbvs	r6, [lr, #-2406]!	; 0xfffff69a
   8:	65732064 	ldrbvs	r2, [r3, #-100]!	; 0xffffff9c
   c:	646e6f63 	strbtvs	r6, [lr], #-3939	; 0xfffff09d
  10:	20797261 	rsbscs	r7, r9, r1, ror #4
  14:	65707974 	ldrbvs	r7, [r0, #-2420]!	; 0xfffff68c
  18:	00000000 	andeq	r0, r0, r0

0000001c <.LC1>:
  1c:	64206f4e 	strtvs	r6, [r0], #-3918	; 0xfffff0b2
  20:	6e696665 	cdpvs	6, 6, cr6, cr9, cr5, {3}
  24:	6f697469 	svcvs	0x00697469
  28:	0000006e 	andeq	r0, r0, lr, rrx
  2c:	65746e49 	ldrbvs	r6, [r4, #-3657]!	; 0xfffff1b7
  30:	7469736e 	strbtvc	r7, [r9], #-878	; 0xfffffc92
  34:	00000079 	andeq	r0, r0, r9, ror r0
  38:	65746e49 	ldrbvs	r6, [r4, #-3657]!	; 0xfffff1b7
  3c:	7469736e 	strbtvc	r7, [r9], #-878	; 0xfffffc92
  40:	614d2079 	hvcvs	53769	; 0xd209
  44:	72657473 	rsbvc	r7, r5, #1929379840	; 0x73000000
  48:	00000000 	andeq	r0, r0, r0
  4c:	006e6150 	rsbeq	r6, lr, r0, asr r1
  50:	746c6954 	strbtvc	r6, [ip], #-2388	; 0xfffff6ac
  54:	00000000 	andeq	r0, r0, r0
  58:	6f6c6f43 	svcvs	0x006c6f43
  5c:	68572072 	ldmdavs	r7, {r1, r4, r5, r6, sp}^
  60:	006c6565 	rsbeq	r6, ip, r5, ror #10
  64:	74627553 	strbtvc	r7, [r2], #-1363	; 0xfffffaad
  68:	74636172 	strbtvc	r6, [r3], #-370	; 0xfffffe8e
  6c:	20657669 	rsbcs	r7, r5, r9, ror #12
  70:	6f6c6f43 	svcvs	0x006c6f43
  74:	694d2072 	stmdbvs	sp, {r1, r4, r5, r6, sp}^
  78:	20726578 	rsbscs	r6, r2, r8, ror r5
  7c:	209380e2 	addscs	r8, r3, r2, ror #1
  80:	6e617943 	vnmulvs.f16	s15, s2, s6	; <UNPREDICTABLE>
  84:	756c422f 	strbvc	r4, [ip, #-559]!	; 0xfffffdd1
  88:	00000065 	andeq	r0, r0, r5, rrx
  8c:	74627553 	strbtvc	r7, [r2], #-1363	; 0xfffffaad
  90:	74636172 	strbtvc	r6, [r3], #-370	; 0xfffffe8e
  94:	20657669 	rsbcs	r7, r5, r9, ror #12
  98:	6f6c6f43 	svcvs	0x006c6f43
  9c:	694d2072 	stmdbvs	sp, {r1, r4, r5, r6, sp}^
  a0:	20726578 	rsbscs	r6, r2, r8, ror r5
  a4:	209380e2 	addscs	r8, r3, r2, ror #1
  a8:	6c6c6559 	cfstr64vs	mvdx6, [ip], #-356	; 0xfffffe9c
  ac:	412f776f 			; <UNDEFINED> instruction: 0x412f776f
  b0:	7265626d 	rsbvc	r6, r5, #-805306362	; 0xd0000006
  b4:	00000000 	andeq	r0, r0, r0
  b8:	74627553 	strbtvc	r7, [r2], #-1363	; 0xfffffaad
  bc:	74636172 	strbtvc	r6, [r3], #-370	; 0xfffffe8e
  c0:	20657669 	rsbcs	r7, r5, r9, ror #12
  c4:	6f6c6f43 	svcvs	0x006c6f43
  c8:	694d2072 	stmdbvs	sp, {r1, r4, r5, r6, sp}^
  cc:	20726578 	rsbscs	r6, r2, r8, ror r5
  d0:	614d202d 	cmpvs	sp, sp, lsr #32
  d4:	746e6567 	strbtvc	r6, [lr], #-1383	; 0xfffffa99
  d8:	00000061 	andeq	r0, r0, r1, rrx
  dc:	69646441 	stmdbvs	r4!, {r0, r6, sl, sp, lr}^
  e0:	65766974 	ldrbvs	r6, [r6, #-2420]!	; 0xfffff68c
  e4:	6c6f4320 	stclvs	3, cr4, [pc], #-128	; 6c <.LC1+0x50>
  e8:	4d20726f 	sfmmi	f7, 4, [r0, #-444]!	; 0xfffffe44
  ec:	72657869 	rsbvc	r7, r5, #6881280	; 0x690000
  f0:	52202d20 	eorpl	r2, r0, #32, 26	; 0x800
  f4:	00006465 	andeq	r6, r0, r5, ror #8
  f8:	69646441 	stmdbvs	r4!, {r0, r6, sl, sp, lr}^
  fc:	65766974 	ldrbvs	r6, [r6, #-2420]!	; 0xfffff68c
 100:	6c6f4320 	stclvs	3, cr4, [pc], #-128	; 88 <.LC1+0x6c>
 104:	4d20726f 	sfmmi	f7, 4, [r0, #-444]!	; 0xfffffe44
 108:	72657869 	rsbvc	r7, r5, #6881280	; 0x690000
 10c:	47202d20 	strmi	r2, [r0, -r0, lsr #26]!
 110:	6e656572 	mcrvs	5, 3, r6, cr5, cr2, {3}
 114:	00000000 	andeq	r0, r0, r0
 118:	69646441 	stmdbvs	r4!, {r0, r6, sl, sp, lr}^
 11c:	65766974 	ldrbvs	r6, [r6, #-2420]!	; 0xfffff68c
 120:	6c6f4320 	stclvs	3, cr4, [pc], #-128	; a8 <.LC1+0x8c>
 124:	4d20726f 	sfmmi	f7, 4, [r0, #-444]!	; 0xfffffe44
 128:	72657869 	rsbvc	r7, r5, #6881280	; 0x690000
 12c:	42202d20 	eormi	r2, r0, #32, 26	; 0x800
 130:	0065756c 	rsbeq	r7, r5, ip, ror #10
 134:	6f6c6f43 	svcvs	0x006c6f43
 138:	65542072 	ldrbvs	r2, [r4, #-114]	; 0xffffff8e
 13c:	7265706d 	rsbvc	r7, r5, #109	; 0x6d
 140:	72757461 	rsbsvc	r7, r5, #1627389952	; 0x61000000
 144:	6f432065 	svcvs	0x00432065
 148:	63657272 	cmnvs	r5, #536870919	; 0x20000007
 14c:	6e6f6974 			; <UNDEFINED> instruction: 0x6e6f6974
 150:	00000000 	andeq	r0, r0, r0
 154:	69646441 	stmdbvs	r4!, {r0, r6, sl, sp, lr}^
 158:	65766974 	ldrbvs	r6, [r6, #-2420]!	; 0xfffff68c
 15c:	6c6f4320 	stclvs	3, cr4, [pc], #-128	; e4 <.LC1+0xc8>
 160:	4d20726f 	sfmmi	f7, 4, [r0, #-444]!	; 0xfffffe44
 164:	72657869 	rsbvc	r7, r5, #6881280	; 0x690000
 168:	41202d20 			; <UNDEFINED> instruction: 0x41202d20
 16c:	7265626d 	rsbvc	r6, r5, #-805306362	; 0xd0000006
 170:	00000000 	andeq	r0, r0, r0
 174:	69646441 	stmdbvs	r4!, {r0, r6, sl, sp, lr}^
 178:	65766974 	ldrbvs	r6, [r6, #-2420]!	; 0xfffff68c
 17c:	6c6f4320 	stclvs	3, cr4, [pc], #-128	; 104 <.LC1+0xe8>
 180:	4d20726f 	sfmmi	f7, 4, [r0, #-444]!	; 0xfffffe44
 184:	72657869 	rsbvc	r7, r5, #6881280	; 0x690000
 188:	57202d20 	strpl	r2, [r0, -r0, lsr #26]!
 18c:	65746968 	ldrbvs	r6, [r4, #-2408]!	; 0xfffff698
 190:	00000000 	andeq	r0, r0, r0
 194:	69646441 	stmdbvs	r4!, {r0, r6, sl, sp, lr}^
 198:	65766974 	ldrbvs	r6, [r6, #-2420]!	; 0xfffff68c
 19c:	6c6f4320 	stclvs	3, cr4, [pc], #-128	; 124 <.LC1+0x108>
 1a0:	4d20726f 	sfmmi	f7, 4, [r0, #-444]!	; 0xfffffe44
 1a4:	72657869 	rsbvc	r7, r5, #6881280	; 0x690000
 1a8:	57202d20 	strpl	r2, [r0, -r0, lsr #26]!
 1ac:	206d7261 	rsbcs	r7, sp, r1, ror #4
 1b0:	74696857 	strbtvc	r6, [r9], #-2135	; 0xfffff7a9
 1b4:	00000065 	andeq	r0, r0, r5, rrx
 1b8:	69646441 	stmdbvs	r4!, {r0, r6, sl, sp, lr}^
 1bc:	65766974 	ldrbvs	r6, [r6, #-2420]!	; 0xfffff68c
 1c0:	6c6f4320 	stclvs	3, cr4, [pc], #-128	; 148 <.LC1+0x12c>
 1c4:	4d20726f 	sfmmi	f7, 4, [r0, #-444]!	; 0xfffffe44
 1c8:	72657869 	rsbvc	r7, r5, #6881280	; 0x690000
 1cc:	43202d20 			; <UNDEFINED> instruction: 0x43202d20
 1d0:	206c6f6f 	rsbcs	r6, ip, pc, ror #30
 1d4:	74696857 	strbtvc	r6, [r9], #-2135	; 0xfffff7a9
 1d8:	00000065 	andeq	r0, r0, r5, rrx
 1dc:	74627553 	strbtvc	r7, [r2], #-1363	; 0xfffffaad
 1e0:	74636172 	strbtvc	r6, [r3], #-370	; 0xfffffe8e
 1e4:	20657669 	rsbcs	r7, r5, r9, ror #12
 1e8:	6f6c6f43 	svcvs	0x006c6f43
 1ec:	694d2072 	stmdbvs	sp, {r1, r4, r5, r6, sp}^
 1f0:	20726578 	rsbscs	r6, r2, r8, ror r5
 1f4:	5655202d 	ldrbpl	r2, [r5], -sp, lsr #32
 1f8:	00000000 	andeq	r0, r0, r0
 1fc:	00657548 	rsbeq	r7, r5, r8, asr #10
 200:	75746153 	ldrbvc	r6, [r4, #-339]!	; 0xfffffead
 204:	69746172 	ldmdbvs	r4!, {r1, r4, r5, r6, r8, sp, lr}^
 208:	00006e6f 	andeq	r6, r0, pc, ror #28
 20c:	74617453 	strbtvc	r7, [r1], #-1107	; 0xfffffbad
 210:	67206369 	strvs	r6, [r0, -r9, ror #6]!
 214:	206f626f 	rsbcs	r6, pc, pc, ror #4
 218:	65656877 	strbvs	r6, [r5, #-2167]!	; 0xfffff789
 21c:	0000006c 	andeq	r0, r0, ip, rrx
 220:	61746f52 	cmnvs	r4, r2, asr pc
 224:	676e6974 			; <UNDEFINED> instruction: 0x676e6974
 228:	626f6720 	rsbvs	r6, pc, #32, 14	; 0x800000
 22c:	6877206f 	ldmdavs	r7!, {r0, r1, r2, r3, r5, r6, sp}^
 230:	006c6565 	rsbeq	r6, ip, r5, ror #10
 234:	73697250 	cmnvc	r9, #80, 4
 238:	6877206d 	ldmdavs	r7!, {r0, r2, r3, r5, r6, sp}^
 23c:	006c6565 	rsbeq	r6, ip, r5, ror #10
 240:	65666645 	strbvs	r6, [r6, #-1605]!	; 0xfffff9bb
 244:	20737463 	rsbscs	r7, r3, r3, ror #8
 248:	65656877 	strbvs	r6, [r5, #-2167]!	; 0xfffff789
 24c:	0000006c 	andeq	r0, r0, ip, rrx
 250:	6d616542 	cfstr64vs	mvdx6, [r1, #-264]!	; 0xfffffef8
 254:	7a697320 	bvc	1a5cedc <RDMSlotInfo::bsearch(unsigned short)+0x1a5cd5c>
 258:	72692065 	rsbvc	r2, r9, #101	; 0x65
 25c:	00007369 	andeq	r7, r0, r9, ror #6
 260:	65676445 	strbvs	r6, [r7, #-1093]!	; 0xfffffbbb
 264:	6e654c2f 	cdpvs	12, 6, cr4, cr5, cr15, {1}
 268:	6f662073 	svcvs	0x00662073
 26c:	00737563 	rsbseq	r7, r3, r3, ror #10
 270:	736f7246 	cmnvc	pc, #1610612740	; 0x60000004
 274:	69442f74 	stmdbvs	r4, {r2, r4, r5, r6, r8, r9, sl, fp, sp}^
 278:	73756666 	cmnvc	r5, #106954752	; 0x6600000
 27c:	006e6f69 	rsbeq	r6, lr, r9, ror #30
 280:	6f727453 	svcvs	0x00727453
 284:	532f6562 			; <UNDEFINED> instruction: 0x532f6562
 288:	74747568 	ldrbtvc	r7, [r4], #-1384	; 0xfffffa98
 28c:	00007265 	andeq	r7, r0, r5, ror #4
 290:	6d6f6f5a 	stclvs	15, cr6, [pc, #-360]!	; 130 <.LC1+0x114>
 294:	6e656c20 	cdpvs	12, 6, cr6, cr5, cr0, {1}
 298:	00000073 	andeq	r0, r0, r3, ror r0
 29c:	6d617246 	sfmvs	f7, 2, [r1, #-280]!	; 0xfffffee8
 2a0:	20676e69 	rsbcs	r6, r7, r9, ror #28
 2a4:	74756873 	ldrbtvc	r6, [r5], #-2163	; 0xfffff78d
 2a8:	00726574 	rsbseq	r6, r2, r4, ror r5
 2ac:	6d617246 	sfmvs	f7, 2, [r1, #-280]!	; 0xfffffee8
 2b0:	20676e69 	rsbcs	r6, r7, r9, ror #28
 2b4:	74756873 	ldrbtvc	r6, [r5], #-2163	; 0xfffff78d
 2b8:	20726574 	rsbscs	r6, r2, r4, ror r5
 2bc:	61746f72 	cmnvs	r4, r2, ror pc
 2c0:	6e6f6974 			; <UNDEFINED> instruction: 0x6e6f6974
 2c4:	00000000 	andeq	r0, r0, r0
 2c8:	73756f44 	cmnvc	r5, #68, 30	; 0x110
 2cc:	00007265 	andeq	r7, r0, r5, ror #4
 2d0:	6e726142 	rpwvssm	f6, f2, f2
 2d4:	6f6f4420 	svcvs	0x006f4420
 2d8:	00000072 	andeq	r0, r0, r2, ror r0
 2dc:	706d614c 	rsbvc	r6, sp, ip, asr #2
 2e0:	6e6f6320 	cdpvs	3, 6, cr6, cr15, cr0, {1}
 2e4:	6c6f7274 	sfmvs	f7, 2, [pc], #-464	; 11c <.LC1+0x100>
 2e8:	6e756620 	cdpvs	6, 7, cr6, cr5, cr0, {1}
 2ec:	6f697463 	svcvs	0x00697463
 2f0:	0000736e 	andeq	r7, r0, lr, ror #6
 2f4:	74786946 	ldrbtvc	r6, [r8], #-2374	; 0xfffff6ba
 2f8:	20657275 	rsbcs	r7, r5, r5, ror r2
 2fc:	746e6f63 	strbtvc	r6, [lr], #-3939	; 0xfffff09d
 300:	206c6f72 	rsbcs	r6, ip, r2, ror pc
 304:	6e616863 	cdpvs	8, 6, cr6, cr1, cr3, {3}
 308:	006c656e 	rsbeq	r6, ip, lr, ror #10
 30c:	7263614d 	rsbvc	r6, r3, #1073741843	; 0x40000013
 310:	6f63206f 	svcvs	0x0063206f
 314:	6f72746e 	svcvs	0x0072746e
 318:	0000006c 	andeq	r0, r0, ip, rrx
 31c:	616c6552 	cmnvs	ip, r2, asr r5
 320:	726f2079 	rsbvc	r2, pc, #121	; 0x79
 324:	776f7020 	strbvc	r7, [pc, -r0, lsr #32]!
 328:	63207265 			; <UNDEFINED> instruction: 0x63207265
 32c:	72746e6f 	rsbsvc	r6, r4, #1776	; 0x6f0
 330:	00006c6f 	andeq	r6, r0, pc, ror #24
 334:	206e6146 	rsbcs	r6, lr, r6, asr #2
 338:	746e6f63 	strbtvc	r6, [lr], #-3939	; 0xfffff09d
 33c:	006c6f72 	rsbeq	r6, ip, r2, ror pc
 340:	74616548 	strbtvc	r6, [r1], #-1352	; 0xfffffab8
 344:	63207265 			; <UNDEFINED> instruction: 0x63207265
 348:	72746e6f 	rsbsvc	r6, r4, #1776	; 0x6f0
 34c:	00006c6f 	andeq	r6, r0, pc, ror #24
 350:	6e756f46 	cdpvs	15, 7, cr6, cr5, cr6, {2}
 354:	6e696174 	mcrvs	1, 3, r6, cr9, cr4, {3}
 358:	74617720 	strbtvc	r7, [r1], #-1824	; 0xfffff8e0
 35c:	70207265 	eorvc	r7, r0, r5, ror #4
 360:	20706d75 	rsbscs	r6, r0, r5, ror sp
 364:	746e6f63 	strbtvc	r6, [lr], #-3939	; 0xfffff09d
 368:	206c6f72 	rsbcs	r6, ip, r2, ror pc
 36c:	00000000 	andeq	r0, r0, r0
 370:	746f6c53 	strbtvc	r6, [pc], #-3155	; 378 <.LC1+0x35c>
 374:	72696420 	rsbvc	r6, r9, #32, 8	; 0x20000000
 378:	6c746365 	ldclvs	3, cr6, [r4], #-404	; 0xfffffe6c
 37c:	6f632079 	svcvs	0x00632079
 380:	6f72746e 	svcvs	0x0072746e
 384:	7020736c 	eorvc	r7, r0, ip, ror #6
 388:	6d617261 	sfmvs	f7, 2, [r1, #-388]!	; 0xfffffe7c
 38c:	72657465 	rsbvc	r7, r5, #1694498816	; 0x65000000
 390:	65722820 	ldrbvs	r2, [r2, #-2080]!	; 0xfffff7e0
 394:	73657270 	cmnvc	r5, #112, 4
 398:	73746e65 	cmnvc	r4, #1616	; 0x650
 39c:	616f4320 	cmnvs	pc, r0, lsr #6
 3a0:	20657372 	rsbcs	r7, r5, r2, ror r3
 3a4:	20726f66 	rsbscs	r6, r2, r6, ror #30
 3a8:	622d3631 	eorvs	r3, sp, #51380224	; 0x3100000
 3ac:	70207469 	eorvc	r7, r0, r9, ror #8
 3b0:	6d617261 	sfmvs	f7, 2, [r1, #-388]!	; 0xfffffe7c
 3b4:	72657465 	rsbvc	r7, r5, #1694498816	; 0x65000000
 3b8:	00002973 	andeq	r2, r0, r3, ror r9
 3bc:	656e6946 	strbvs	r6, [lr, #-2374]!	; 0xfffff6ba
 3c0:	6f66202c 	svcvs	0x0066202c
 3c4:	36312072 			; <UNDEFINED> instruction: 0x36312072
 3c8:	7469622d 	strbtvc	r6, [r9], #-557	; 0xfffffdd3
 3cc:	72617020 	rsbvc	r7, r1, #32
 3d0:	74656d61 	strbtvc	r6, [r5], #-3425	; 0xfffff29f
 3d4:	00737265 	rsbseq	r7, r3, r5, ror #4
 3d8:	746f6c53 	strbtvc	r6, [pc], #-3155	; 3e0 <.LC1+0x3c4>
 3dc:	74657320 	strbtvc	r7, [r5], #-800	; 0xfffffce0
 3e0:	69742073 	ldmdbvs	r4!, {r0, r1, r4, r5, r6, sp}^
 3e4:	676e696d 	strbvs	r6, [lr, -sp, ror #18]!
 3e8:	6c617620 	stclvs	6, cr7, [r1], #-128	; 0xffffff80
 3ec:	66206575 			; <UNDEFINED> instruction: 0x66206575
 3f0:	6120726f 			; <UNDEFINED> instruction: 0x6120726f
 3f4:	636f7373 	cmnvs	pc, #-872415231	; 0xcc000001
 3f8:	65746169 	ldrbvs	r6, [r4, #-361]!	; 0xfffffe97
 3fc:	61702064 	cmnvs	r0, r4, rrx
 400:	656d6172 	strbvs	r6, [sp, #-370]!	; 0xfffffe8e
 404:	00726574 	rsbseq	r6, r2, r4, ror r5
 408:	746f6c53 	strbtvc	r6, [pc], #-3155	; 410 <.LC1+0x3f4>
 40c:	74657320 	strbtvc	r7, [r5], #-800	; 0xfffffce0
 410:	70732073 	rsbsvc	r2, r3, r3, ror r0
 414:	2f646565 	svccs	0x00646565
 418:	6f6c6576 	svcvs	0x006c6576
 41c:	79746963 	ldmdbvc	r4!, {r0, r1, r5, r6, r8, fp, sp, lr}^
 420:	726f6620 	rsbvc	r6, pc, #32, 12	; 0x2000000
 424:	73736120 	cmnvc	r3, #32, 2
 428:	6169636f 	cmnvs	r9, pc, ror #6
 42c:	20646574 	rsbcs	r6, r4, r4, ror r5
 430:	61726170 	cmnvs	r2, r0, ror r1
 434:	6574656d 	ldrbvs	r6, [r4, #-1389]!	; 0xfffffa93
 438:	00000072 	andeq	r0, r0, r2, ror r0
 43c:	746f6c53 	strbtvc	r6, [pc], #-3155	; 444 <.LC1+0x428>
 440:	6f727020 	svcvs	0x00727020
 444:	65646976 	strbvs	r6, [r4, #-2422]!	; 0xfffff68a
 448:	6f632073 	svcvs	0x00632073
 44c:	6f72746e 	svcvs	0x0072746e
 450:	6f6d2f6c 	svcvs	0x006d2f6c
 454:	69206564 	stmdbvs	r0!, {r2, r5, r6, r8, sl, sp, lr}
 458:	206f666e 	rsbcs	r6, pc, lr, ror #12
 45c:	20726f66 	rsbscs	r6, r2, r6, ror #30
 460:	61726170 	cmnvs	r2, r0, ror r1
 464:	6574656d 	ldrbvs	r6, [r4, #-1389]!	; 0xfffffa93
 468:	00000072 	andeq	r0, r0, r2, ror r0
 46c:	746f6c53 	strbtvc	r6, [pc], #-3155	; 474 <.LC1+0x458>
 470:	74657320 	strbtvc	r7, [r5], #-800	; 0xfffffce0
 474:	6e692073 	mcrvs	0, 3, r2, cr9, cr3, {3}
 478:	20786564 	rsbscs	r6, r8, r4, ror #10
 47c:	69736f70 	ldmdbvs	r3!, {r4, r5, r6, r8, r9, sl, fp, sp, lr}^
 480:	6e6f6974 			; <UNDEFINED> instruction: 0x6e6f6974
 484:	726f6620 	rsbvc	r6, pc, #32, 12	; 0x2000000
 488:	73736120 	cmnvc	r3, #32, 2
 48c:	6169636f 	cmnvs	r9, pc, ror #6
 490:	20646574 	rsbcs	r6, r4, r4, ror r5
 494:	61726170 	cmnvs	r2, r0, ror r1
 498:	6574656d 	ldrbvs	r6, [r4, #-1389]!	; 0xfffffa93
 49c:	00000072 	andeq	r0, r0, r2, ror r0
 4a0:	746f6c53 	strbtvc	r6, [pc], #-3155	; 4a8 <.LC1+0x48c>
 4a4:	74657320 	strbtvc	r7, [r5], #-800	; 0xfffffce0
 4a8:	6f722073 	svcvs	0x00722073
 4ac:	69746174 	ldmdbvs	r4!, {r2, r4, r5, r6, r8, sp, lr}^
 4b0:	73206e6f 			; <UNDEFINED> instruction: 0x73206e6f
 4b4:	64656570 	strbtvs	r6, [r5], #-1392	; 0xfffffa90
 4b8:	726f6620 	rsbvc	r6, pc, #32, 12	; 0x2000000
 4bc:	73736120 	cmnvc	r3, #32, 2
 4c0:	6169636f 	cmnvs	r9, pc, ror #6
 4c4:	20646574 	rsbcs	r6, r4, r4, ror r5
 4c8:	61726170 	cmnvs	r2, r0, ror r1
 4cc:	6574656d 	ldrbvs	r6, [r4, #-1389]!	; 0xfffffa93
 4d0:	00000072 	andeq	r0, r0, r2, ror r0
 4d4:	626d6f43 	rsbvs	r6, sp, #268	; 0x10c
 4d8:	64656e69 	strbtvs	r6, [r5], #-3689	; 0xfffff197
 4dc:	646e6920 	strbtvs	r6, [lr], #-2336	; 0xfffff6e0
 4e0:	722f7865 	eorvc	r7, pc, #6619136	; 0x650000
 4e4:	7461746f 	strbtvc	r7, [r1], #-1135	; 0xfffffb91
 4e8:	206e6f69 	rsbcs	r6, lr, r9, ror #30
 4ec:	746e6f63 	strbtvc	r6, [lr], #-3939	; 0xfffff09d
 4f0:	006c6f72 	rsbeq	r6, ip, r2, ror pc

Disassembly of section .rodata:

00000000 <s_tTableC1>:
   0:	00000000 	andeq	r0, r0, r0
   4:	00000370 	andeq	r0, r0, r0, ror r3
   8:	00000001 	andeq	r0, r0, r1
   c:	000003bc 			; <UNDEFINED> instruction: 0x000003bc
  10:	00000002 	andeq	r0, r0, r2
  14:	000003d8 	ldrdeq	r0, [r0], -r8
  18:	00000003 	andeq	r0, r0, r3
  1c:	00000408 	andeq	r0, r0, r8, lsl #8
  20:	00000004 	andeq	r0, r0, r4
  24:	0000043c 	andeq	r0, r0, ip, lsr r4
  28:	00000005 	andeq	r0, r0, r5
  2c:	0000046c 	andeq	r0, r0, ip, ror #8
  30:	00000006 	andeq	r0, r0, r6
  34:	000004a0 	andeq	r0, r0, r0, lsr #9
  38:	00000007 	andeq	r0, r0, r7
  3c:	000004d4 	ldrdeq	r0, [r0], -r4
  40:	000000ff 	strdeq	r0, [r0], -pc	; <UNPREDICTABLE>
  44:	00000000 	andeq	r0, r0, r0

00000048 <s_tTableC2>:
  48:	00000001 	andeq	r0, r0, r1
  4c:	0000002c 	andeq	r0, r0, ip, lsr #32
  50:	00000002 	andeq	r0, r0, r2
  54:	00000038 	andeq	r0, r0, r8, lsr r0
  58:	00000101 	andeq	r0, r0, r1, lsl #2
  5c:	0000004c 	andeq	r0, r0, ip, asr #32
  60:	00000102 	andeq	r0, r0, r2, lsl #2
  64:	00000050 	andeq	r0, r0, r0, asr r0
  68:	00000201 	andeq	r0, r0, r1, lsl #4
  6c:	00000058 	andeq	r0, r0, r8, asr r0
  70:	00000202 	andeq	r0, r0, r2, lsl #4
  74:	00000064 	andeq	r0, r0, r4, rrx
  78:	00000203 	andeq	r0, r0, r3, lsl #4
  7c:	0000008c 	andeq	r0, r0, ip, lsl #1
  80:	00000204 	andeq	r0, r0, r4, lsl #4
  84:	000000b8 	strheq	r0, [r0], -r8
  88:	00000205 	andeq	r0, r0, r5, lsl #4
  8c:	000000dc 	ldrdeq	r0, [r0], -ip
  90:	00000206 	andeq	r0, r0, r6, lsl #4
  94:	000000f8 	strdeq	r0, [r0], -r8
  98:	00000207 	andeq	r0, r0, r7, lsl #4
  9c:	00000118 	andeq	r0, r0, r8, lsl r1
  a0:	00000208 	andeq	r0, r0, r8, lsl #4
  a4:	00000134 	andeq	r0, r0, r4, lsr r1
  a8:	00000211 	andeq	r0, r0, r1, lsl r2
  ac:	00000154 	andeq	r0, r0, r4, asr r1
  b0:	00000212 	andeq	r0, r0, r2, lsl r2
  b4:	00000174 	andeq	r0, r0, r4, ror r1
  b8:	00000213 	andeq	r0, r0, r3, lsl r2
  bc:	00000194 	muleq	r0, r4, r1
  c0:	00000214 	andeq	r0, r0, r4, lsl r2
  c4:	000001b8 			; <UNDEFINED> instruction: 0x000001b8
  c8:	00000215 	andeq	r0, r0, r5, lsl r2
  cc:	000001dc 	ldrdeq	r0, [r0], -ip
  d0:	00000216 	andeq	r0, r0, r6, lsl r2
  d4:	000001fc 	strdeq	r0, [r0], -ip
  d8:	00000217 	andeq	r0, r0, r7, lsl r2
  dc:	00000200 	andeq	r0, r0, r0, lsl #4
  e0:	00000301 	andeq	r0, r0, r1, lsl #6
  e4:	0000020c 	andeq	r0, r0, ip, lsl #4
  e8:	00000302 	andeq	r0, r0, r2, lsl #6
  ec:	00000220 	andeq	r0, r0, r0, lsr #4
  f0:	00000303 	andeq	r0, r0, r3, lsl #6
  f4:	00000234 	andeq	r0, r0, r4, lsr r2
  f8:	00000304 	andeq	r0, r0, r4, lsl #6
  fc:	00000240 	andeq	r0, r0, r0, asr #4
 100:	00000401 	andeq	r0, r0, r1, lsl #8
 104:	00000250 	andeq	r0, r0, r0, asr r2
 108:	00000402 	andeq	r0, r0, r2, lsl #8
 10c:	00000260 	andeq	r0, r0, r0, ror #4
 110:	00000403 	andeq	r0, r0, r3, lsl #8
 114:	00000270 	andeq	r0, r0, r0, ror r2
 118:	00000404 	andeq	r0, r0, r4, lsl #8
 11c:	00000280 	andeq	r0, r0, r0, lsl #5
 120:	00000405 	andeq	r0, r0, r5, lsl #8
 124:	00000290 	muleq	r0, r0, r2
 128:	00000406 	andeq	r0, r0, r6, lsl #8
 12c:	0000029c 	muleq	r0, ip, r2
 130:	00000407 	andeq	r0, r0, r7, lsl #8
 134:	000002ac 	andeq	r0, r0, ip, lsr #5
 138:	00000408 	andeq	r0, r0, r8, lsl #8
 13c:	000002c8 	andeq	r0, r0, r8, asr #5
 140:	00000409 	andeq	r0, r0, r9, lsl #8
 144:	000002d0 	ldrdeq	r0, [r0], -r0	; <UNPREDICTABLE>
 148:	00000501 	andeq	r0, r0, r1, lsl #10
 14c:	000002dc 	ldrdeq	r0, [r0], -ip
 150:	00000502 	andeq	r0, r0, r2, lsl #10
 154:	000002f4 	strdeq	r0, [r0], -r4
 158:	00000504 	andeq	r0, r0, r4, lsl #10
 15c:	0000030c 	andeq	r0, r0, ip, lsl #6
 160:	00000505 	andeq	r0, r0, r5, lsl #10
 164:	0000031c 	andeq	r0, r0, ip, lsl r3
 168:	00000506 	andeq	r0, r0, r6, lsl #10
 16c:	00000334 	andeq	r0, r0, r4, lsr r3
 170:	00000507 	andeq	r0, r0, r7, lsl #10
 174:	00000340 	andeq	r0, r0, r0, asr #6
 178:	00000508 	andeq	r0, r0, r8, lsl #10
 17c:	00000350 	andeq	r0, r0, r0, asr r3
 180:	0000ffff 	strdeq	pc, [r0], -pc	; <UNPREDICTABLE>
 184:	0000001c 	andeq	r0, r0, ip, lsl r0

Disassembly of section .comment:

00000000 <.comment>:
   0:	43434700 	movtmi	r4, #14080	; 0x3700
   4:	4728203a 			; <UNDEFINED> instruction: 0x4728203a
   8:	2029554e 	eorcs	r5, r9, lr, asr #10
   c:	332e3031 			; <UNDEFINED> instruction: 0x332e3031
  10:	Address 0x0000000000000010 is out of bounds.


Disassembly of section .ARM.attributes:

00000000 <.ARM.attributes>:
   0:	00003441 	andeq	r3, r0, r1, asr #8
   4:	61656100 	cmnvs	r5, r0, lsl #2
   8:	01006962 	tsteq	r0, r2, ror #18
   c:	0000002a 	andeq	r0, r0, sl, lsr #32
  10:	412d3705 			; <UNDEFINED> instruction: 0x412d3705
  14:	070a0600 	streq	r0, [sl, -r0, lsl #12]
  18:	09010841 	stmdbeq	r1, {r0, r6, fp}
  1c:	0c050a02 			; <UNDEFINED> instruction: 0x0c050a02
  20:	14041202 	strne	r1, [r4], #-514	; 0xfffffdfe
  24:	17011501 	strne	r1, [r1, -r1, lsl #10]
  28:	19011803 	stmdbne	r1, {r0, r1, fp, ip}
  2c:	1c011a01 			; <UNDEFINED> instruction: 0x1c011a01
  30:	22021e01 	andcs	r1, r2, #1, 28
  34:	Address 0x0000000000000034 is out of bounds.

